ARM GAS  C:\Users\Charlie\AppData\Local\Temp\ccMNBuPc.s 			page 1


   1              		.syntax unified
   2              		.cpu cortex-m3
   3              		.fpu softvfp
   4              		.eabi_attribute 20, 1
   5              		.eabi_attribute 21, 1
   6              		.eabi_attribute 23, 3
   7              		.eabi_attribute 24, 1
   8              		.eabi_attribute 25, 1
   9              		.eabi_attribute 26, 1
  10              		.eabi_attribute 30, 6
  11              		.eabi_attribute 34, 1
  12              		.eabi_attribute 18, 4
  13              		.thumb
  14              		.file	"EZI2C_1_PM.c"
  15              		.text
  16              	.Ltext0:
  17              		.cfi_sections	.debug_frame
  18              		.global	EZI2C_1_backup
  19              		.data
  20              		.align	2
  21              		.type	EZI2C_1_backup, %object
  22              		.size	EZI2C_1_backup, 6
  23              	EZI2C_1_backup:
  24 0000 00       		.byte	0
  25 0001 C1       		.byte	-63
  26 0002 08       		.byte	8
  27 0003 41       		.byte	65
  28 0004 03       		.byte	3
  29 0005 00       		.byte	0
  30              		.comm	EZI2C_1_wakeupSource,1,1
  31 0006 0000     		.section	.text.EZI2C_1_SaveConfig,"ax",%progbits
  32              		.align	2
  33              		.global	EZI2C_1_SaveConfig
  34              		.thumb
  35              		.thumb_func
  36              		.type	EZI2C_1_SaveConfig, %function
  37              	EZI2C_1_SaveConfig:
  38              	.LFB0:
  39              		.file 1 ".\\Generated_Source\\PSoC5\\EZI2C_1_PM.c"
   1:.\Generated_Source\PSoC5/EZI2C_1_PM.c **** /*******************************************************************************
   2:.\Generated_Source\PSoC5/EZI2C_1_PM.c **** * File Name: EZI2C_1_PM.c
   3:.\Generated_Source\PSoC5/EZI2C_1_PM.c **** * Version 2.0
   4:.\Generated_Source\PSoC5/EZI2C_1_PM.c **** *
   5:.\Generated_Source\PSoC5/EZI2C_1_PM.c **** * Description:
   6:.\Generated_Source\PSoC5/EZI2C_1_PM.c **** *  This file contains the API for the proper switching to/from the low power
   7:.\Generated_Source\PSoC5/EZI2C_1_PM.c **** *  modes.
   8:.\Generated_Source\PSoC5/EZI2C_1_PM.c **** *
   9:.\Generated_Source\PSoC5/EZI2C_1_PM.c **** ********************************************************************************
  10:.\Generated_Source\PSoC5/EZI2C_1_PM.c **** * Copyright 2008-2015, Cypress Semiconductor Corporation.  All rights reserved.
  11:.\Generated_Source\PSoC5/EZI2C_1_PM.c **** * You may use this file only in accordance with the license, terms, conditions,
  12:.\Generated_Source\PSoC5/EZI2C_1_PM.c **** * disclaimers, and limitations in the end user license agreement accompanying
  13:.\Generated_Source\PSoC5/EZI2C_1_PM.c **** * the software package with which this file was provided.
  14:.\Generated_Source\PSoC5/EZI2C_1_PM.c **** *******************************************************************************/
  15:.\Generated_Source\PSoC5/EZI2C_1_PM.c **** 
  16:.\Generated_Source\PSoC5/EZI2C_1_PM.c **** #include "EZI2C_1_PVT.h"
  17:.\Generated_Source\PSoC5/EZI2C_1_PM.c **** 
  18:.\Generated_Source\PSoC5/EZI2C_1_PM.c **** EZI2C_1_BACKUP_STRUCT EZI2C_1_backup =
ARM GAS  C:\Users\Charlie\AppData\Local\Temp\ccMNBuPc.s 			page 2


  19:.\Generated_Source\PSoC5/EZI2C_1_PM.c **** {
  20:.\Generated_Source\PSoC5/EZI2C_1_PM.c ****     EZI2C_1_DISABLED,
  21:.\Generated_Source\PSoC5/EZI2C_1_PM.c ****     EZI2C_1_DEFAULT_XCFG,
  22:.\Generated_Source\PSoC5/EZI2C_1_PM.c ****     EZI2C_1_DEFAULT_ADDR,
  23:.\Generated_Source\PSoC5/EZI2C_1_PM.c ****     EZI2C_1_DEFAULT_CFG,
  24:.\Generated_Source\PSoC5/EZI2C_1_PM.c ****     EZI2C_1_DEFAULT_CLKDIV1,
  25:.\Generated_Source\PSoC5/EZI2C_1_PM.c ****     EZI2C_1_DEFAULT_CLKDIV2
  26:.\Generated_Source\PSoC5/EZI2C_1_PM.c **** };
  27:.\Generated_Source\PSoC5/EZI2C_1_PM.c **** 
  28:.\Generated_Source\PSoC5/EZI2C_1_PM.c **** #if (EZI2C_1_WAKEUP_ENABLED)
  29:.\Generated_Source\PSoC5/EZI2C_1_PM.c ****     volatile uint8 EZI2C_1_wakeupSource;
  30:.\Generated_Source\PSoC5/EZI2C_1_PM.c **** #endif /* (EZI2C_1_WAKEUP_ENABLED) */
  31:.\Generated_Source\PSoC5/EZI2C_1_PM.c **** 
  32:.\Generated_Source\PSoC5/EZI2C_1_PM.c **** 
  33:.\Generated_Source\PSoC5/EZI2C_1_PM.c **** /*******************************************************************************
  34:.\Generated_Source\PSoC5/EZI2C_1_PM.c **** * Function Name: EZI2C_1_SaveConfig
  35:.\Generated_Source\PSoC5/EZI2C_1_PM.c **** ********************************************************************************
  36:.\Generated_Source\PSoC5/EZI2C_1_PM.c **** *
  37:.\Generated_Source\PSoC5/EZI2C_1_PM.c **** * Summary:
  38:.\Generated_Source\PSoC5/EZI2C_1_PM.c **** *  The Enable wakeup from Sleep Mode selection influences this function
  39:.\Generated_Source\PSoC5/EZI2C_1_PM.c **** *  implementation:
  40:.\Generated_Source\PSoC5/EZI2C_1_PM.c **** *   Unchecked: Stores the component non-retention configuration registers.
  41:.\Generated_Source\PSoC5/EZI2C_1_PM.c **** *   Checked:   Enables backup regulator of the I2C hardware. If a transaction
  42:.\Generated_Source\PSoC5/EZI2C_1_PM.c **** *              intended for component executes during this function call,
  43:.\Generated_Source\PSoC5/EZI2C_1_PM.c **** *              it waits until the current transaction is completed and
  44:.\Generated_Source\PSoC5/EZI2C_1_PM.c **** *              I2C hardware is ready to go to sleep mode. All subsequent
  45:.\Generated_Source\PSoC5/EZI2C_1_PM.c **** *              I2C traffic is NAKed until the device is put to sleep mode.
  46:.\Generated_Source\PSoC5/EZI2C_1_PM.c **** *
  47:.\Generated_Source\PSoC5/EZI2C_1_PM.c **** * Parameters:
  48:.\Generated_Source\PSoC5/EZI2C_1_PM.c **** *  None.
  49:.\Generated_Source\PSoC5/EZI2C_1_PM.c **** *
  50:.\Generated_Source\PSoC5/EZI2C_1_PM.c **** * Return:
  51:.\Generated_Source\PSoC5/EZI2C_1_PM.c **** *  None.
  52:.\Generated_Source\PSoC5/EZI2C_1_PM.c **** *
  53:.\Generated_Source\PSoC5/EZI2C_1_PM.c **** * Global variables:
  54:.\Generated_Source\PSoC5/EZI2C_1_PM.c **** *  EZI2C_1_backup - The non-retention registers are saved to.
  55:.\Generated_Source\PSoC5/EZI2C_1_PM.c **** *
  56:.\Generated_Source\PSoC5/EZI2C_1_PM.c **** * Reentrant:
  57:.\Generated_Source\PSoC5/EZI2C_1_PM.c **** *  No.
  58:.\Generated_Source\PSoC5/EZI2C_1_PM.c **** *
  59:.\Generated_Source\PSoC5/EZI2C_1_PM.c **** *******************************************************************************/
  60:.\Generated_Source\PSoC5/EZI2C_1_PM.c **** void EZI2C_1_SaveConfig(void) 
  61:.\Generated_Source\PSoC5/EZI2C_1_PM.c **** {
  40              		.loc 1 61 0
  41              		.cfi_startproc
  42              		@ args = 0, pretend = 0, frame = 8
  43              		@ frame_needed = 1, uses_anonymous_args = 0
  44 0000 80B5     		push	{r7, lr}
  45              		.cfi_def_cfa_offset 8
  46              		.cfi_offset 7, -8
  47              		.cfi_offset 14, -4
  48 0002 82B0     		sub	sp, sp, #8
  49              		.cfi_def_cfa_offset 16
  50 0004 00AF     		add	r7, sp, #0
  51              		.cfi_def_cfa_register 7
  62:.\Generated_Source\PSoC5/EZI2C_1_PM.c **** #if (EZI2C_1_WAKEUP_ENABLED)
  63:.\Generated_Source\PSoC5/EZI2C_1_PM.c ****     uint8 interruptState;
ARM GAS  C:\Users\Charlie\AppData\Local\Temp\ccMNBuPc.s 			page 3


  64:.\Generated_Source\PSoC5/EZI2C_1_PM.c **** #endif /* (EZI2C_1_WAKEUP_ENABLED) */
  65:.\Generated_Source\PSoC5/EZI2C_1_PM.c **** 
  66:.\Generated_Source\PSoC5/EZI2C_1_PM.c ****     /* Store component configuration into backup structure */
  67:.\Generated_Source\PSoC5/EZI2C_1_PM.c ****     EZI2C_1_backup.cfg     = EZI2C_1_CFG_REG;
  52              		.loc 1 67 0
  53 0006 254B     		ldr	r3, .L3
  54 0008 1B78     		ldrb	r3, [r3]
  55 000a DAB2     		uxtb	r2, r3
  56 000c 244B     		ldr	r3, .L3+4
  57 000e DA70     		strb	r2, [r3, #3]
  68:.\Generated_Source\PSoC5/EZI2C_1_PM.c ****     EZI2C_1_backup.xcfg    = EZI2C_1_XCFG_REG;
  58              		.loc 1 68 0
  59 0010 244B     		ldr	r3, .L3+8
  60 0012 1B78     		ldrb	r3, [r3]
  61 0014 DAB2     		uxtb	r2, r3
  62 0016 224B     		ldr	r3, .L3+4
  63 0018 5A70     		strb	r2, [r3, #1]
  69:.\Generated_Source\PSoC5/EZI2C_1_PM.c ****     EZI2C_1_backup.adr     = EZI2C_1_ADDR_REG;
  64              		.loc 1 69 0
  65 001a 234B     		ldr	r3, .L3+12
  66 001c 1B78     		ldrb	r3, [r3]
  67 001e DAB2     		uxtb	r2, r3
  68 0020 1F4B     		ldr	r3, .L3+4
  69 0022 9A70     		strb	r2, [r3, #2]
  70:.\Generated_Source\PSoC5/EZI2C_1_PM.c ****     EZI2C_1_backup.clkDiv1 = EZI2C_1_CLKDIV1_REG;
  70              		.loc 1 70 0
  71 0024 214B     		ldr	r3, .L3+16
  72 0026 1B78     		ldrb	r3, [r3]
  73 0028 DAB2     		uxtb	r2, r3
  74 002a 1D4B     		ldr	r3, .L3+4
  75 002c 1A71     		strb	r2, [r3, #4]
  71:.\Generated_Source\PSoC5/EZI2C_1_PM.c ****     EZI2C_1_backup.clkDiv2 = EZI2C_1_CLKDIV2_REG;
  76              		.loc 1 71 0
  77 002e 204B     		ldr	r3, .L3+20
  78 0030 1B78     		ldrb	r3, [r3]
  79 0032 DAB2     		uxtb	r2, r3
  80 0034 1A4B     		ldr	r3, .L3+4
  81 0036 5A71     		strb	r2, [r3, #5]
  72:.\Generated_Source\PSoC5/EZI2C_1_PM.c **** 
  73:.\Generated_Source\PSoC5/EZI2C_1_PM.c **** #if (EZI2C_1_WAKEUP_ENABLED)
  74:.\Generated_Source\PSoC5/EZI2C_1_PM.c ****     /* Enable I2C backup regulator */
  75:.\Generated_Source\PSoC5/EZI2C_1_PM.c ****     interruptState = CyEnterCriticalSection();
  82              		.loc 1 75 0
  83 0038 FFF7FEFF 		bl	CyEnterCriticalSection
  84 003c 0346     		mov	r3, r0
  85 003e FB71     		strb	r3, [r7, #7]
  76:.\Generated_Source\PSoC5/EZI2C_1_PM.c ****     EZI2C_1_PWRSYS_CR1_REG |= EZI2C_1_PWRSYS_CR1_I2C_BACKUP;
  86              		.loc 1 76 0
  87 0040 1C4A     		ldr	r2, .L3+24
  88 0042 1C4B     		ldr	r3, .L3+24
  89 0044 1B78     		ldrb	r3, [r3]
  90 0046 DBB2     		uxtb	r3, r3
  91 0048 43F00403 		orr	r3, r3, #4
  92 004c DBB2     		uxtb	r3, r3
  93 004e 1370     		strb	r3, [r2]
  77:.\Generated_Source\PSoC5/EZI2C_1_PM.c ****     CyExitCriticalSection(interruptState);
  94              		.loc 1 77 0
ARM GAS  C:\Users\Charlie\AppData\Local\Temp\ccMNBuPc.s 			page 4


  95 0050 FB79     		ldrb	r3, [r7, #7]	@ zero_extendqisi2
  96 0052 1846     		mov	r0, r3
  97 0054 FFF7FEFF 		bl	CyExitCriticalSection
  78:.\Generated_Source\PSoC5/EZI2C_1_PM.c **** 
  79:.\Generated_Source\PSoC5/EZI2C_1_PM.c ****     /* Wait for completion of the current transaction. The following
  80:.\Generated_Source\PSoC5/EZI2C_1_PM.c ****     * transactions have to be NACKed until the device enters the low power mode.
  81:.\Generated_Source\PSoC5/EZI2C_1_PM.c ****     * After a wakeup, the force NACK bit is cleared automatically.
  82:.\Generated_Source\PSoC5/EZI2C_1_PM.c ****     */
  83:.\Generated_Source\PSoC5/EZI2C_1_PM.c ****     EZI2C_1_XCFG_REG |= EZI2C_1_XCFG_FORCE_NACK;
  98              		.loc 1 83 0
  99 0058 124A     		ldr	r2, .L3+8
 100 005a 124B     		ldr	r3, .L3+8
 101 005c 1B78     		ldrb	r3, [r3]
 102 005e DBB2     		uxtb	r3, r3
 103 0060 43F01003 		orr	r3, r3, #16
 104 0064 DBB2     		uxtb	r3, r3
 105 0066 1370     		strb	r3, [r2]
  84:.\Generated_Source\PSoC5/EZI2C_1_PM.c ****     while (0u == (EZI2C_1_XCFG_REG & EZI2C_1_XCFG_SLEEP_READY))
 106              		.loc 1 84 0
 107 0068 00BF     		nop
 108              	.L2:
 109              		.loc 1 84 0 is_stmt 0 discriminator 1
 110 006a 0E4B     		ldr	r3, .L3+8
 111 006c 1B78     		ldrb	r3, [r3]
 112 006e DBB2     		uxtb	r3, r3
 113 0070 03F02003 		and	r3, r3, #32
 114 0074 002B     		cmp	r3, #0
 115 0076 F8D0     		beq	.L2
  85:.\Generated_Source\PSoC5/EZI2C_1_PM.c ****     {
  86:.\Generated_Source\PSoC5/EZI2C_1_PM.c ****     }
  87:.\Generated_Source\PSoC5/EZI2C_1_PM.c **** 
  88:.\Generated_Source\PSoC5/EZI2C_1_PM.c ****      /* Setup wakeup interrupt */
  89:.\Generated_Source\PSoC5/EZI2C_1_PM.c ****     EZI2C_1_DisableInt();
 116              		.loc 1 89 0 is_stmt 1
 117 0078 0F4B     		ldr	r3, .L3+28
 118 007a 4FF40042 		mov	r2, #32768
 119 007e 1A60     		str	r2, [r3]
  90:.\Generated_Source\PSoC5/EZI2C_1_PM.c ****     EZI2C_1_wakeupSource = 0u; /* Clear wakeup event */
 120              		.loc 1 90 0
 121 0080 0E4B     		ldr	r3, .L3+32
 122 0082 0022     		movs	r2, #0
 123 0084 1A70     		strb	r2, [r3]
  91:.\Generated_Source\PSoC5/EZI2C_1_PM.c ****     (void) CyIntSetVector(EZI2C_1_ISR_NUMBER, &EZI2C_1_WAKEUP_ISR);
 124              		.loc 1 91 0
 125 0086 0F20     		movs	r0, #15
 126 0088 0D49     		ldr	r1, .L3+36
 127 008a FFF7FEFF 		bl	CyIntSetVector
  92:.\Generated_Source\PSoC5/EZI2C_1_PM.c ****     EZI2C_1_EnableInt();
 128              		.loc 1 92 0
 129 008e 0D4B     		ldr	r3, .L3+40
 130 0090 4FF40042 		mov	r2, #32768
 131 0094 1A60     		str	r2, [r3]
  93:.\Generated_Source\PSoC5/EZI2C_1_PM.c **** #endif /* (EZI2C_1_WAKEUP_ENABLED) */
  94:.\Generated_Source\PSoC5/EZI2C_1_PM.c **** }
 132              		.loc 1 94 0
 133 0096 0837     		adds	r7, r7, #8
 134              		.cfi_def_cfa_offset 8
ARM GAS  C:\Users\Charlie\AppData\Local\Temp\ccMNBuPc.s 			page 5


 135 0098 BD46     		mov	sp, r7
 136              		.cfi_def_cfa_register 13
 137              		@ sp needed
 138 009a 80BD     		pop	{r7, pc}
 139              	.L4:
 140              		.align	2
 141              	.L3:
 142 009c D6490040 		.word	1073760726
 143 00a0 00000000 		.word	EZI2C_1_backup
 144 00a4 C8490040 		.word	1073760712
 145 00a8 CA490040 		.word	1073760714
 146 00ac DB490040 		.word	1073760731
 147 00b0 DC490040 		.word	1073760732
 148 00b4 31430040 		.word	1073759025
 149 00b8 80E100E0 		.word	-536813184
 150 00bc 00000000 		.word	EZI2C_1_wakeupSource
 151 00c0 00000000 		.word	EZI2C_1_WAKEUP_ISR
 152 00c4 00E100E0 		.word	-536813312
 153              		.cfi_endproc
 154              	.LFE0:
 155              		.size	EZI2C_1_SaveConfig, .-EZI2C_1_SaveConfig
 156              		.section	.text.EZI2C_1_RestoreConfig,"ax",%progbits
 157              		.align	2
 158              		.global	EZI2C_1_RestoreConfig
 159              		.thumb
 160              		.thumb_func
 161              		.type	EZI2C_1_RestoreConfig, %function
 162              	EZI2C_1_RestoreConfig:
 163              	.LFB1:
  95:.\Generated_Source\PSoC5/EZI2C_1_PM.c **** 
  96:.\Generated_Source\PSoC5/EZI2C_1_PM.c **** 
  97:.\Generated_Source\PSoC5/EZI2C_1_PM.c **** /*******************************************************************************
  98:.\Generated_Source\PSoC5/EZI2C_1_PM.c **** * Function Name: EZI2C_1_RestoreConfig
  99:.\Generated_Source\PSoC5/EZI2C_1_PM.c **** ********************************************************************************
 100:.\Generated_Source\PSoC5/EZI2C_1_PM.c **** *
 101:.\Generated_Source\PSoC5/EZI2C_1_PM.c **** * Summary:
 102:.\Generated_Source\PSoC5/EZI2C_1_PM.c **** *  The Enable wakeup from Sleep Mode selection influences this function
 103:.\Generated_Source\PSoC5/EZI2C_1_PM.c **** *  implementation:
 104:.\Generated_Source\PSoC5/EZI2C_1_PM.c **** *   Unchecked: Restores the component non-retention configuration registers
 105:.\Generated_Source\PSoC5/EZI2C_1_PM.c **** *              to the state they were in before I2C_Sleep() or I2C_SaveConfig()
 106:.\Generated_Source\PSoC5/EZI2C_1_PM.c **** *              was called.
 107:.\Generated_Source\PSoC5/EZI2C_1_PM.c **** *   Checked:   Disables the backup regulator of the I2C hardware. Sets up the
 108:.\Generated_Source\PSoC5/EZI2C_1_PM.c **** *              regular component interrupt handler and generates the component
 109:.\Generated_Source\PSoC5/EZI2C_1_PM.c **** *              interrupt if it was wake up source to release the bus and
 110:.\Generated_Source\PSoC5/EZI2C_1_PM.c **** *              continue in-coming I2C transaction.
 111:.\Generated_Source\PSoC5/EZI2C_1_PM.c **** *
 112:.\Generated_Source\PSoC5/EZI2C_1_PM.c **** * Parameters:
 113:.\Generated_Source\PSoC5/EZI2C_1_PM.c **** *  None.
 114:.\Generated_Source\PSoC5/EZI2C_1_PM.c **** *
 115:.\Generated_Source\PSoC5/EZI2C_1_PM.c **** * Return:
 116:.\Generated_Source\PSoC5/EZI2C_1_PM.c **** *  None.
 117:.\Generated_Source\PSoC5/EZI2C_1_PM.c **** *
 118:.\Generated_Source\PSoC5/EZI2C_1_PM.c **** * Global variables:
 119:.\Generated_Source\PSoC5/EZI2C_1_PM.c **** *  EZI2C_1_backup - the non-retention registers are restored from.
 120:.\Generated_Source\PSoC5/EZI2C_1_PM.c **** *
 121:.\Generated_Source\PSoC5/EZI2C_1_PM.c **** * Reentrant:
 122:.\Generated_Source\PSoC5/EZI2C_1_PM.c **** *  No.
ARM GAS  C:\Users\Charlie\AppData\Local\Temp\ccMNBuPc.s 			page 6


 123:.\Generated_Source\PSoC5/EZI2C_1_PM.c **** *
 124:.\Generated_Source\PSoC5/EZI2C_1_PM.c **** * Side Effects:
 125:.\Generated_Source\PSoC5/EZI2C_1_PM.c **** *  Calling this function before EZI2C_1_SaveConfig() or
 126:.\Generated_Source\PSoC5/EZI2C_1_PM.c **** *  EZI2C_1_Sleep() may produce unexpected behavior.
 127:.\Generated_Source\PSoC5/EZI2C_1_PM.c **** *
 128:.\Generated_Source\PSoC5/EZI2C_1_PM.c **** *******************************************************************************/
 129:.\Generated_Source\PSoC5/EZI2C_1_PM.c **** void EZI2C_1_RestoreConfig(void) 
 130:.\Generated_Source\PSoC5/EZI2C_1_PM.c **** {
 164              		.loc 1 130 0
 165              		.cfi_startproc
 166              		@ args = 0, pretend = 0, frame = 8
 167              		@ frame_needed = 1, uses_anonymous_args = 0
 168 0000 80B5     		push	{r7, lr}
 169              		.cfi_def_cfa_offset 8
 170              		.cfi_offset 7, -8
 171              		.cfi_offset 14, -4
 172 0002 82B0     		sub	sp, sp, #8
 173              		.cfi_def_cfa_offset 16
 174 0004 00AF     		add	r7, sp, #0
 175              		.cfi_def_cfa_register 7
 131:.\Generated_Source\PSoC5/EZI2C_1_PM.c ****     uint8 intState;
 132:.\Generated_Source\PSoC5/EZI2C_1_PM.c **** 
 133:.\Generated_Source\PSoC5/EZI2C_1_PM.c ****     if (0u != (EZI2C_1_PWRSYS_CR1_I2C_BACKUP & EZI2C_1_PWRSYS_CR1_REG))
 176              		.loc 1 133 0
 177 0006 304B     		ldr	r3, .L9
 178 0008 1B78     		ldrb	r3, [r3]
 179 000a DBB2     		uxtb	r3, r3
 180 000c 03F00403 		and	r3, r3, #4
 181 0010 DBB2     		uxtb	r3, r3
 182 0012 002B     		cmp	r3, #0
 183 0014 10D0     		beq	.L6
 134:.\Generated_Source\PSoC5/EZI2C_1_PM.c ****     /* Exit from Sleep */
 135:.\Generated_Source\PSoC5/EZI2C_1_PM.c ****     {
 136:.\Generated_Source\PSoC5/EZI2C_1_PM.c ****         /* Disable I2C backup regulator */
 137:.\Generated_Source\PSoC5/EZI2C_1_PM.c ****         intState = CyEnterCriticalSection();
 184              		.loc 1 137 0
 185 0016 FFF7FEFF 		bl	CyEnterCriticalSection
 186 001a 0346     		mov	r3, r0
 187 001c FB71     		strb	r3, [r7, #7]
 138:.\Generated_Source\PSoC5/EZI2C_1_PM.c ****         EZI2C_1_PWRSYS_CR1_REG &= (uint8) ~EZI2C_1_PWRSYS_CR1_I2C_BACKUP;
 188              		.loc 1 138 0
 189 001e 2A4A     		ldr	r2, .L9
 190 0020 294B     		ldr	r3, .L9
 191 0022 1B78     		ldrb	r3, [r3]
 192 0024 DBB2     		uxtb	r3, r3
 193 0026 23F00403 		bic	r3, r3, #4
 194 002a DBB2     		uxtb	r3, r3
 195 002c 1370     		strb	r3, [r2]
 139:.\Generated_Source\PSoC5/EZI2C_1_PM.c ****         CyExitCriticalSection(intState);
 196              		.loc 1 139 0
 197 002e FB79     		ldrb	r3, [r7, #7]	@ zero_extendqisi2
 198 0030 1846     		mov	r0, r3
 199 0032 FFF7FEFF 		bl	CyExitCriticalSection
 200 0036 2EE0     		b	.L7
 201              	.L6:
 140:.\Generated_Source\PSoC5/EZI2C_1_PM.c ****     }
 141:.\Generated_Source\PSoC5/EZI2C_1_PM.c ****     else /* Exit from Hibernate (bit is cleared) or wakeup disabled */
ARM GAS  C:\Users\Charlie\AppData\Local\Temp\ccMNBuPc.s 			page 7


 142:.\Generated_Source\PSoC5/EZI2C_1_PM.c ****     {
 143:.\Generated_Source\PSoC5/EZI2C_1_PM.c ****     #if (EZI2C_1_WAKEUP_ENABLED)
 144:.\Generated_Source\PSoC5/EZI2C_1_PM.c ****         /* Disable power to I2C block before register restore */
 145:.\Generated_Source\PSoC5/EZI2C_1_PM.c ****         intState = CyEnterCriticalSection();
 202              		.loc 1 145 0
 203 0038 FFF7FEFF 		bl	CyEnterCriticalSection
 204 003c 0346     		mov	r3, r0
 205 003e FB71     		strb	r3, [r7, #7]
 146:.\Generated_Source\PSoC5/EZI2C_1_PM.c ****         EZI2C_1_PM_ACT_CFG_REG  &= (uint8) ~EZI2C_1_ACT_PWR_EN;
 206              		.loc 1 146 0
 207 0040 224A     		ldr	r2, .L9+4
 208 0042 224B     		ldr	r3, .L9+4
 209 0044 1B78     		ldrb	r3, [r3]
 210 0046 DBB2     		uxtb	r3, r3
 211 0048 23F00403 		bic	r3, r3, #4
 212 004c DBB2     		uxtb	r3, r3
 213 004e 1370     		strb	r3, [r2]
 147:.\Generated_Source\PSoC5/EZI2C_1_PM.c ****         EZI2C_1_PM_STBY_CFG_REG &= (uint8) ~EZI2C_1_STBY_PWR_EN;
 214              		.loc 1 147 0
 215 0050 1F4A     		ldr	r2, .L9+8
 216 0052 1F4B     		ldr	r3, .L9+8
 217 0054 1B78     		ldrb	r3, [r3]
 218 0056 DBB2     		uxtb	r3, r3
 219 0058 23F00403 		bic	r3, r3, #4
 220 005c DBB2     		uxtb	r3, r3
 221 005e 1370     		strb	r3, [r2]
 148:.\Generated_Source\PSoC5/EZI2C_1_PM.c ****         CyExitCriticalSection(intState);
 222              		.loc 1 148 0
 223 0060 FB79     		ldrb	r3, [r7, #7]	@ zero_extendqisi2
 224 0062 1846     		mov	r0, r3
 225 0064 FFF7FEFF 		bl	CyExitCriticalSection
 149:.\Generated_Source\PSoC5/EZI2C_1_PM.c **** 
 150:.\Generated_Source\PSoC5/EZI2C_1_PM.c ****         /* Enable component after restore complete */
 151:.\Generated_Source\PSoC5/EZI2C_1_PM.c ****         EZI2C_1_backup.enableState = EZI2C_1_ENABLED;
 226              		.loc 1 151 0
 227 0068 1A4B     		ldr	r3, .L9+12
 228 006a 0122     		movs	r2, #1
 229 006c 1A70     		strb	r2, [r3]
 152:.\Generated_Source\PSoC5/EZI2C_1_PM.c ****     #endif /* (EZI2C_1_WAKEUP_ENABLED) */
 153:.\Generated_Source\PSoC5/EZI2C_1_PM.c **** 
 154:.\Generated_Source\PSoC5/EZI2C_1_PM.c ****         /* Restore component registers: Hibernate disable power */
 155:.\Generated_Source\PSoC5/EZI2C_1_PM.c ****         EZI2C_1_CFG_REG     = EZI2C_1_backup.cfg;
 230              		.loc 1 155 0
 231 006e 1A4B     		ldr	r3, .L9+16
 232 0070 184A     		ldr	r2, .L9+12
 233 0072 D278     		ldrb	r2, [r2, #3]	@ zero_extendqisi2
 234 0074 1A70     		strb	r2, [r3]
 156:.\Generated_Source\PSoC5/EZI2C_1_PM.c ****         EZI2C_1_XCFG_REG    = EZI2C_1_backup.xcfg;
 235              		.loc 1 156 0
 236 0076 194B     		ldr	r3, .L9+20
 237 0078 164A     		ldr	r2, .L9+12
 238 007a 5278     		ldrb	r2, [r2, #1]	@ zero_extendqisi2
 239 007c 1A70     		strb	r2, [r3]
 157:.\Generated_Source\PSoC5/EZI2C_1_PM.c ****         EZI2C_1_ADDR_REG    = EZI2C_1_backup.adr;
 240              		.loc 1 157 0
 241 007e 184B     		ldr	r3, .L9+24
 242 0080 144A     		ldr	r2, .L9+12
ARM GAS  C:\Users\Charlie\AppData\Local\Temp\ccMNBuPc.s 			page 8


 243 0082 9278     		ldrb	r2, [r2, #2]	@ zero_extendqisi2
 244 0084 1A70     		strb	r2, [r3]
 158:.\Generated_Source\PSoC5/EZI2C_1_PM.c ****         EZI2C_1_CLKDIV1_REG = EZI2C_1_backup.clkDiv1;
 245              		.loc 1 158 0
 246 0086 174B     		ldr	r3, .L9+28
 247 0088 124A     		ldr	r2, .L9+12
 248 008a 1279     		ldrb	r2, [r2, #4]	@ zero_extendqisi2
 249 008c 1A70     		strb	r2, [r3]
 159:.\Generated_Source\PSoC5/EZI2C_1_PM.c ****         EZI2C_1_CLKDIV2_REG = EZI2C_1_backup.clkDiv2;
 250              		.loc 1 159 0
 251 008e 164B     		ldr	r3, .L9+32
 252 0090 104A     		ldr	r2, .L9+12
 253 0092 5279     		ldrb	r2, [r2, #5]	@ zero_extendqisi2
 254 0094 1A70     		strb	r2, [r3]
 255              	.L7:
 160:.\Generated_Source\PSoC5/EZI2C_1_PM.c ****     }
 161:.\Generated_Source\PSoC5/EZI2C_1_PM.c **** 
 162:.\Generated_Source\PSoC5/EZI2C_1_PM.c **** #if (EZI2C_1_WAKEUP_ENABLED)
 163:.\Generated_Source\PSoC5/EZI2C_1_PM.c ****     /* Set I2C interrupt to be pending if component is source of wake up */
 164:.\Generated_Source\PSoC5/EZI2C_1_PM.c ****     EZI2C_1_DisableInt();
 256              		.loc 1 164 0
 257 0096 154B     		ldr	r3, .L9+36
 258 0098 4FF40042 		mov	r2, #32768
 259 009c 1A60     		str	r2, [r3]
 165:.\Generated_Source\PSoC5/EZI2C_1_PM.c ****     (void) CyIntSetVector(EZI2C_1_ISR_NUMBER, &EZI2C_1_ISR);
 260              		.loc 1 165 0
 261 009e 0F20     		movs	r0, #15
 262 00a0 1349     		ldr	r1, .L9+40
 263 00a2 FFF7FEFF 		bl	CyIntSetVector
 166:.\Generated_Source\PSoC5/EZI2C_1_PM.c ****     if (0u != EZI2C_1_wakeupSource)
 264              		.loc 1 166 0
 265 00a6 134B     		ldr	r3, .L9+44
 266 00a8 1B78     		ldrb	r3, [r3]
 267 00aa DBB2     		uxtb	r3, r3
 268 00ac 002B     		cmp	r3, #0
 269 00ae 03D0     		beq	.L8
 167:.\Generated_Source\PSoC5/EZI2C_1_PM.c ****     {
 168:.\Generated_Source\PSoC5/EZI2C_1_PM.c ****         /* Generate interrupt to release I2C bus */
 169:.\Generated_Source\PSoC5/EZI2C_1_PM.c ****         (void) CyIntSetPending(EZI2C_1_ISR_NUMBER);
 270              		.loc 1 169 0
 271 00b0 114B     		ldr	r3, .L9+48
 272 00b2 4FF40042 		mov	r2, #32768
 273 00b6 1A60     		str	r2, [r3]
 274              	.L8:
 170:.\Generated_Source\PSoC5/EZI2C_1_PM.c ****     }
 171:.\Generated_Source\PSoC5/EZI2C_1_PM.c ****     EZI2C_1_EnableInt();
 275              		.loc 1 171 0
 276 00b8 104B     		ldr	r3, .L9+52
 277 00ba 4FF40042 		mov	r2, #32768
 278 00be 1A60     		str	r2, [r3]
 172:.\Generated_Source\PSoC5/EZI2C_1_PM.c **** #endif /* (EZI2C_1_WAKEUP_ENABLED) */
 173:.\Generated_Source\PSoC5/EZI2C_1_PM.c **** }
 279              		.loc 1 173 0
 280 00c0 0837     		adds	r7, r7, #8
 281              		.cfi_def_cfa_offset 8
 282 00c2 BD46     		mov	sp, r7
 283              		.cfi_def_cfa_register 13
ARM GAS  C:\Users\Charlie\AppData\Local\Temp\ccMNBuPc.s 			page 9


 284              		@ sp needed
 285 00c4 80BD     		pop	{r7, pc}
 286              	.L10:
 287 00c6 00BF     		.align	2
 288              	.L9:
 289 00c8 31430040 		.word	1073759025
 290 00cc A5430040 		.word	1073759141
 291 00d0 B5430040 		.word	1073759157
 292 00d4 00000000 		.word	EZI2C_1_backup
 293 00d8 D6490040 		.word	1073760726
 294 00dc C8490040 		.word	1073760712
 295 00e0 CA490040 		.word	1073760714
 296 00e4 DB490040 		.word	1073760731
 297 00e8 DC490040 		.word	1073760732
 298 00ec 80E100E0 		.word	-536813184
 299 00f0 00000000 		.word	EZI2C_1_ISR
 300 00f4 00000000 		.word	EZI2C_1_wakeupSource
 301 00f8 00E200E0 		.word	-536813056
 302 00fc 00E100E0 		.word	-536813312
 303              		.cfi_endproc
 304              	.LFE1:
 305              		.size	EZI2C_1_RestoreConfig, .-EZI2C_1_RestoreConfig
 306              		.section	.text.EZI2C_1_Sleep,"ax",%progbits
 307              		.align	2
 308              		.global	EZI2C_1_Sleep
 309              		.thumb
 310              		.thumb_func
 311              		.type	EZI2C_1_Sleep, %function
 312              	EZI2C_1_Sleep:
 313              	.LFB2:
 174:.\Generated_Source\PSoC5/EZI2C_1_PM.c **** 
 175:.\Generated_Source\PSoC5/EZI2C_1_PM.c **** 
 176:.\Generated_Source\PSoC5/EZI2C_1_PM.c **** /*******************************************************************************
 177:.\Generated_Source\PSoC5/EZI2C_1_PM.c **** * Function Name: EZI2C_1_Sleep
 178:.\Generated_Source\PSoC5/EZI2C_1_PM.c **** ********************************************************************************
 179:.\Generated_Source\PSoC5/EZI2C_1_PM.c **** *
 180:.\Generated_Source\PSoC5/EZI2C_1_PM.c **** * Summary:
 181:.\Generated_Source\PSoC5/EZI2C_1_PM.c **** *  This is the preferred method to prepare the component before device enters
 182:.\Generated_Source\PSoC5/EZI2C_1_PM.c **** *  sleep mode.
 183:.\Generated_Source\PSoC5/EZI2C_1_PM.c **** *  The Enable wakeup from Sleep Mode selection influences this function
 184:.\Generated_Source\PSoC5/EZI2C_1_PM.c **** *  implementation:
 185:.\Generated_Source\PSoC5/EZI2C_1_PM.c **** *   Unchecked: Checks current EZI2C component state, saves it, and disables the
 186:.\Generated_Source\PSoC5/EZI2C_1_PM.c **** *              component by calling EZI2C_Stop() if it is currently enabled.
 187:.\Generated_Source\PSoC5/EZI2C_1_PM.c **** *              EZI2C_SaveConfig() is then called to save the component
 188:.\Generated_Source\PSoC5/EZI2C_1_PM.c **** *              non-retention configuration registers.
 189:.\Generated_Source\PSoC5/EZI2C_1_PM.c **** *   Checked:   If a transaction intended for component is in progress during
 190:.\Generated_Source\PSoC5/EZI2C_1_PM.c **** *              this function call, it waits until the current transaction is
 191:.\Generated_Source\PSoC5/EZI2C_1_PM.c **** *              completed. All subsequent I2C traffic intended for component is
 192:.\Generated_Source\PSoC5/EZI2C_1_PM.c **** *              NAKed until the device is put to sleep mode. The address match
 193:.\Generated_Source\PSoC5/EZI2C_1_PM.c **** *              event wakes up the device.
 194:.\Generated_Source\PSoC5/EZI2C_1_PM.c **** *
 195:.\Generated_Source\PSoC5/EZI2C_1_PM.c **** *  Call the EZI2C_Sleep() function before calling the CyPmSleep() or the
 196:.\Generated_Source\PSoC5/EZI2C_1_PM.c **** *  CyPmHibernate() function. Refer to the PSoC Creator System Reference Guide
 197:.\Generated_Source\PSoC5/EZI2C_1_PM.c **** *  for more information about power-management functions.
 198:.\Generated_Source\PSoC5/EZI2C_1_PM.c **** *
 199:.\Generated_Source\PSoC5/EZI2C_1_PM.c **** * Parameters:
 200:.\Generated_Source\PSoC5/EZI2C_1_PM.c **** *  None.
ARM GAS  C:\Users\Charlie\AppData\Local\Temp\ccMNBuPc.s 			page 10


 201:.\Generated_Source\PSoC5/EZI2C_1_PM.c **** *
 202:.\Generated_Source\PSoC5/EZI2C_1_PM.c **** * Return:
 203:.\Generated_Source\PSoC5/EZI2C_1_PM.c **** *  None.
 204:.\Generated_Source\PSoC5/EZI2C_1_PM.c **** *
 205:.\Generated_Source\PSoC5/EZI2C_1_PM.c **** * Global variables:
 206:.\Generated_Source\PSoC5/EZI2C_1_PM.c **** *  EZI2C_1_backup - The non retention registers are saved to. Changed
 207:.\Generated_Source\PSoC5/EZI2C_1_PM.c **** *  by EZI2C_1_SaveConfig() function call.
 208:.\Generated_Source\PSoC5/EZI2C_1_PM.c **** *
 209:.\Generated_Source\PSoC5/EZI2C_1_PM.c **** * Reentrant:
 210:.\Generated_Source\PSoC5/EZI2C_1_PM.c **** *  No.
 211:.\Generated_Source\PSoC5/EZI2C_1_PM.c **** *
 212:.\Generated_Source\PSoC5/EZI2C_1_PM.c **** *******************************************************************************/
 213:.\Generated_Source\PSoC5/EZI2C_1_PM.c **** void EZI2C_1_Sleep(void) 
 214:.\Generated_Source\PSoC5/EZI2C_1_PM.c **** {
 314              		.loc 1 214 0
 315              		.cfi_startproc
 316              		@ args = 0, pretend = 0, frame = 0
 317              		@ frame_needed = 1, uses_anonymous_args = 0
 318 0000 80B5     		push	{r7, lr}
 319              		.cfi_def_cfa_offset 8
 320              		.cfi_offset 7, -8
 321              		.cfi_offset 14, -4
 322 0002 00AF     		add	r7, sp, #0
 323              		.cfi_def_cfa_register 7
 215:.\Generated_Source\PSoC5/EZI2C_1_PM.c **** #if (EZI2C_1_WAKEUP_ENABLED)
 216:.\Generated_Source\PSoC5/EZI2C_1_PM.c ****     /* Do not re-enable component in EZI2C_1_Wakeup(). It remains enabled as it is wakeup source */
 217:.\Generated_Source\PSoC5/EZI2C_1_PM.c ****     EZI2C_1_backup.enableState = EZI2C_1_DISABLED;
 324              		.loc 1 217 0
 325 0004 024B     		ldr	r3, .L12
 326 0006 0022     		movs	r2, #0
 327 0008 1A70     		strb	r2, [r3]
 218:.\Generated_Source\PSoC5/EZI2C_1_PM.c **** #else
 219:.\Generated_Source\PSoC5/EZI2C_1_PM.c ****     /* Store component state enabled or disable to restore after wakeup */
 220:.\Generated_Source\PSoC5/EZI2C_1_PM.c ****     EZI2C_1_backup.enableState = (EZI2C_1_PM_ACT_CFG_REG & EZI2C_1_ACT_PWR_EN);
 221:.\Generated_Source\PSoC5/EZI2C_1_PM.c **** 
 222:.\Generated_Source\PSoC5/EZI2C_1_PM.c ****     if (0u != EZI2C_1_backup.enableState)
 223:.\Generated_Source\PSoC5/EZI2C_1_PM.c ****     {
 224:.\Generated_Source\PSoC5/EZI2C_1_PM.c ****         /* Disable component before enter Sleep */
 225:.\Generated_Source\PSoC5/EZI2C_1_PM.c ****         EZI2C_1_Stop();
 226:.\Generated_Source\PSoC5/EZI2C_1_PM.c ****     }
 227:.\Generated_Source\PSoC5/EZI2C_1_PM.c **** #endif /* (EZI2C_1_WAKEUP_ENABLED) */
 228:.\Generated_Source\PSoC5/EZI2C_1_PM.c **** 
 229:.\Generated_Source\PSoC5/EZI2C_1_PM.c ****     EZI2C_1_SaveConfig();
 328              		.loc 1 229 0
 329 000a FFF7FEFF 		bl	EZI2C_1_SaveConfig
 230:.\Generated_Source\PSoC5/EZI2C_1_PM.c **** }
 330              		.loc 1 230 0
 331 000e 80BD     		pop	{r7, pc}
 332              	.L13:
 333              		.align	2
 334              	.L12:
 335 0010 00000000 		.word	EZI2C_1_backup
 336              		.cfi_endproc
 337              	.LFE2:
 338              		.size	EZI2C_1_Sleep, .-EZI2C_1_Sleep
 339              		.section	.text.EZI2C_1_Wakeup,"ax",%progbits
 340              		.align	2
ARM GAS  C:\Users\Charlie\AppData\Local\Temp\ccMNBuPc.s 			page 11


 341              		.global	EZI2C_1_Wakeup
 342              		.thumb
 343              		.thumb_func
 344              		.type	EZI2C_1_Wakeup, %function
 345              	EZI2C_1_Wakeup:
 346              	.LFB3:
 231:.\Generated_Source\PSoC5/EZI2C_1_PM.c **** 
 232:.\Generated_Source\PSoC5/EZI2C_1_PM.c **** 
 233:.\Generated_Source\PSoC5/EZI2C_1_PM.c **** /*******************************************************************************
 234:.\Generated_Source\PSoC5/EZI2C_1_PM.c **** * Function Name: EZI2C_1_Wakeup
 235:.\Generated_Source\PSoC5/EZI2C_1_PM.c **** ********************************************************************************
 236:.\Generated_Source\PSoC5/EZI2C_1_PM.c **** *
 237:.\Generated_Source\PSoC5/EZI2C_1_PM.c **** * Summary:
 238:.\Generated_Source\PSoC5/EZI2C_1_PM.c **** *  This is the preferred method to prepare the component for active mode
 239:.\Generated_Source\PSoC5/EZI2C_1_PM.c **** *  operation (when device exits sleep mode).
 240:.\Generated_Source\PSoC5/EZI2C_1_PM.c **** *  The Enable wakeup from Sleep Mode selection influences this function
 241:.\Generated_Source\PSoC5/EZI2C_1_PM.c **** *  implementation:
 242:.\Generated_Source\PSoC5/EZI2C_1_PM.c **** *   Unchecked: Restores the component non-retention configuration registers
 243:.\Generated_Source\PSoC5/EZI2C_1_PM.c **** *              by calling EZI2C_RestoreConfig(). If the component was enabled
 244:.\Generated_Source\PSoC5/EZI2C_1_PM.c **** *              before the EZI2C_Sleep() function was called, EZI2C_Wakeup()
 245:.\Generated_Source\PSoC5/EZI2C_1_PM.c **** *              re-enables it.
 246:.\Generated_Source\PSoC5/EZI2C_1_PM.c **** *   Checked:   Disables the backup regulator of I2C hardware. The incoming
 247:.\Generated_Source\PSoC5/EZI2C_1_PM.c **** *              transaction continues as soon as the regular EZI2C interrupt
 248:.\Generated_Source\PSoC5/EZI2C_1_PM.c **** *              handler is set up (global interrupts has to be  enabled to
 249:.\Generated_Source\PSoC5/EZI2C_1_PM.c **** *              service EZI2C component interrupt).
 250:.\Generated_Source\PSoC5/EZI2C_1_PM.c **** *
 251:.\Generated_Source\PSoC5/EZI2C_1_PM.c **** * Parameters:
 252:.\Generated_Source\PSoC5/EZI2C_1_PM.c **** *  None.
 253:.\Generated_Source\PSoC5/EZI2C_1_PM.c **** *
 254:.\Generated_Source\PSoC5/EZI2C_1_PM.c **** * Return:
 255:.\Generated_Source\PSoC5/EZI2C_1_PM.c **** *  None.
 256:.\Generated_Source\PSoC5/EZI2C_1_PM.c **** *
 257:.\Generated_Source\PSoC5/EZI2C_1_PM.c **** * Global variables:
 258:.\Generated_Source\PSoC5/EZI2C_1_PM.c **** *  EZI2C_1_backup - The non retention registers are restored from.
 259:.\Generated_Source\PSoC5/EZI2C_1_PM.c **** *
 260:.\Generated_Source\PSoC5/EZI2C_1_PM.c **** * Reentrant:
 261:.\Generated_Source\PSoC5/EZI2C_1_PM.c **** *  No.
 262:.\Generated_Source\PSoC5/EZI2C_1_PM.c **** *
 263:.\Generated_Source\PSoC5/EZI2C_1_PM.c **** * Side Effects:
 264:.\Generated_Source\PSoC5/EZI2C_1_PM.c **** *  Calling this function before EZI2C_1_SaveConfig() or
 265:.\Generated_Source\PSoC5/EZI2C_1_PM.c **** *  EZI2C_1_Sleep() will lead to unpredictable results.
 266:.\Generated_Source\PSoC5/EZI2C_1_PM.c **** *
 267:.\Generated_Source\PSoC5/EZI2C_1_PM.c **** *******************************************************************************/
 268:.\Generated_Source\PSoC5/EZI2C_1_PM.c **** void EZI2C_1_Wakeup(void) 
 269:.\Generated_Source\PSoC5/EZI2C_1_PM.c **** {
 347              		.loc 1 269 0
 348              		.cfi_startproc
 349              		@ args = 0, pretend = 0, frame = 0
 350              		@ frame_needed = 1, uses_anonymous_args = 0
 351 0000 80B5     		push	{r7, lr}
 352              		.cfi_def_cfa_offset 8
 353              		.cfi_offset 7, -8
 354              		.cfi_offset 14, -4
 355 0002 00AF     		add	r7, sp, #0
 356              		.cfi_def_cfa_register 7
 270:.\Generated_Source\PSoC5/EZI2C_1_PM.c ****     EZI2C_1_RestoreConfig();
 357              		.loc 1 270 0
ARM GAS  C:\Users\Charlie\AppData\Local\Temp\ccMNBuPc.s 			page 12


 358 0004 FFF7FEFF 		bl	EZI2C_1_RestoreConfig
 271:.\Generated_Source\PSoC5/EZI2C_1_PM.c **** 
 272:.\Generated_Source\PSoC5/EZI2C_1_PM.c ****     if (0u != EZI2C_1_backup.enableState)
 359              		.loc 1 272 0
 360 0008 034B     		ldr	r3, .L16
 361 000a 1B78     		ldrb	r3, [r3]	@ zero_extendqisi2
 362 000c 002B     		cmp	r3, #0
 363 000e 01D0     		beq	.L14
 273:.\Generated_Source\PSoC5/EZI2C_1_PM.c ****     {
 274:.\Generated_Source\PSoC5/EZI2C_1_PM.c ****         /* Enable component as it was enabled before Sleep */
 275:.\Generated_Source\PSoC5/EZI2C_1_PM.c ****         EZI2C_1_Enable();
 364              		.loc 1 275 0
 365 0010 FFF7FEFF 		bl	EZI2C_1_Enable
 366              	.L14:
 276:.\Generated_Source\PSoC5/EZI2C_1_PM.c ****     }
 277:.\Generated_Source\PSoC5/EZI2C_1_PM.c **** }
 367              		.loc 1 277 0
 368 0014 80BD     		pop	{r7, pc}
 369              	.L17:
 370 0016 00BF     		.align	2
 371              	.L16:
 372 0018 00000000 		.word	EZI2C_1_backup
 373              		.cfi_endproc
 374              	.LFE3:
 375              		.size	EZI2C_1_Wakeup, .-EZI2C_1_Wakeup
 376              		.text
 377              	.Letext0:
 378              		.file 2 ".\\Generated_Source\\PSoC5\\cytypes.h"
 379              		.file 3 ".\\Generated_Source\\PSoC5\\EZI2C_1.h"