ARM GAS  C:\Users\charl\AppData\Local\Temp\ccvo9AHk.s 			page 1


   1              		.syntax unified
   2              		.cpu cortex-m3
   3              		.fpu softvfp
   4              		.eabi_attribute 20, 1
   5              		.eabi_attribute 21, 1
   6              		.eabi_attribute 23, 3
   7              		.eabi_attribute 24, 1
   8              		.eabi_attribute 25, 1
   9              		.eabi_attribute 26, 1
  10              		.eabi_attribute 30, 6
  11              		.eabi_attribute 34, 1
  12              		.eabi_attribute 18, 4
  13              		.thumb
  14              		.file	"GND.c"
  15              		.text
  16              	.Ltext0:
  17              		.cfi_sections	.debug_frame
  18              		.section	.text.GND_Write,"ax",%progbits
  19              		.align	2
  20              		.global	GND_Write
  21              		.thumb
  22              		.thumb_func
  23              		.type	GND_Write, %function
  24              	GND_Write:
  25              	.LFB0:
  26              		.file 1 ".\\Generated_Source\\PSoC5\\GND.c"
   1:.\Generated_Source\PSoC5/GND.c **** /*******************************************************************************
   2:.\Generated_Source\PSoC5/GND.c **** * File Name: GND.c  
   3:.\Generated_Source\PSoC5/GND.c **** * Version 2.10
   4:.\Generated_Source\PSoC5/GND.c **** *
   5:.\Generated_Source\PSoC5/GND.c **** * Description:
   6:.\Generated_Source\PSoC5/GND.c **** *  This file contains API to enable firmware control of a Pins component.
   7:.\Generated_Source\PSoC5/GND.c **** *
   8:.\Generated_Source\PSoC5/GND.c **** * Note:
   9:.\Generated_Source\PSoC5/GND.c **** *
  10:.\Generated_Source\PSoC5/GND.c **** ********************************************************************************
  11:.\Generated_Source\PSoC5/GND.c **** * Copyright 2008-2014, Cypress Semiconductor Corporation.  All rights reserved.
  12:.\Generated_Source\PSoC5/GND.c **** * You may use this file only in accordance with the license, terms, conditions, 
  13:.\Generated_Source\PSoC5/GND.c **** * disclaimers, and limitations in the end user license agreement accompanying 
  14:.\Generated_Source\PSoC5/GND.c **** * the software package with which this file was provided.
  15:.\Generated_Source\PSoC5/GND.c **** *******************************************************************************/
  16:.\Generated_Source\PSoC5/GND.c **** 
  17:.\Generated_Source\PSoC5/GND.c **** #include "cytypes.h"
  18:.\Generated_Source\PSoC5/GND.c **** #include "GND.h"
  19:.\Generated_Source\PSoC5/GND.c **** 
  20:.\Generated_Source\PSoC5/GND.c **** /* APIs are not generated for P15[7:6] on PSoC 5 */
  21:.\Generated_Source\PSoC5/GND.c **** #if !(CY_PSOC5A &&\
  22:.\Generated_Source\PSoC5/GND.c **** 	 GND__PORT == 15 && ((GND__MASK & 0xC0) != 0))
  23:.\Generated_Source\PSoC5/GND.c **** 
  24:.\Generated_Source\PSoC5/GND.c **** 
  25:.\Generated_Source\PSoC5/GND.c **** /*******************************************************************************
  26:.\Generated_Source\PSoC5/GND.c **** * Function Name: GND_Write
  27:.\Generated_Source\PSoC5/GND.c **** ********************************************************************************
  28:.\Generated_Source\PSoC5/GND.c **** *
  29:.\Generated_Source\PSoC5/GND.c **** * Summary:
  30:.\Generated_Source\PSoC5/GND.c **** *  Assign a new value to the digital port's data output register.  
  31:.\Generated_Source\PSoC5/GND.c **** *
ARM GAS  C:\Users\charl\AppData\Local\Temp\ccvo9AHk.s 			page 2


  32:.\Generated_Source\PSoC5/GND.c **** * Parameters:  
  33:.\Generated_Source\PSoC5/GND.c **** *  prtValue:  The value to be assigned to the Digital Port. 
  34:.\Generated_Source\PSoC5/GND.c **** *
  35:.\Generated_Source\PSoC5/GND.c **** * Return: 
  36:.\Generated_Source\PSoC5/GND.c **** *  None
  37:.\Generated_Source\PSoC5/GND.c **** *  
  38:.\Generated_Source\PSoC5/GND.c **** *******************************************************************************/
  39:.\Generated_Source\PSoC5/GND.c **** void GND_Write(uint8 value) 
  40:.\Generated_Source\PSoC5/GND.c **** {
  27              		.loc 1 40 0
  28              		.cfi_startproc
  29              		@ args = 0, pretend = 0, frame = 16
  30              		@ frame_needed = 1, uses_anonymous_args = 0
  31              		@ link register save eliminated.
  32 0000 80B4     		push	{r7}
  33              		.cfi_def_cfa_offset 4
  34              		.cfi_offset 7, -4
  35 0002 85B0     		sub	sp, sp, #20
  36              		.cfi_def_cfa_offset 24
  37 0004 00AF     		add	r7, sp, #0
  38              		.cfi_def_cfa_register 7
  39 0006 0346     		mov	r3, r0
  40 0008 FB71     		strb	r3, [r7, #7]
  41:.\Generated_Source\PSoC5/GND.c ****     uint8 staticBits = (GND_DR & (uint8)(~GND_MASK));
  41              		.loc 1 41 0
  42 000a 0A4B     		ldr	r3, .L2
  43 000c 1B78     		ldrb	r3, [r3]
  44 000e DBB2     		uxtb	r3, r3
  45 0010 23F01F03 		bic	r3, r3, #31
  46 0014 FB73     		strb	r3, [r7, #15]
  42:.\Generated_Source\PSoC5/GND.c ****     GND_DR = staticBits | ((uint8)(value << GND_SHIFT) & GND_MASK);
  47              		.loc 1 42 0
  48 0016 0749     		ldr	r1, .L2
  49 0018 FB79     		ldrb	r3, [r7, #7]
  50 001a 03F01F03 		and	r3, r3, #31
  51 001e DAB2     		uxtb	r2, r3
  52 0020 FB7B     		ldrb	r3, [r7, #15]
  53 0022 1343     		orrs	r3, r3, r2
  54 0024 DBB2     		uxtb	r3, r3
  55 0026 0B70     		strb	r3, [r1]
  43:.\Generated_Source\PSoC5/GND.c **** }
  56              		.loc 1 43 0
  57 0028 1437     		adds	r7, r7, #20
  58              		.cfi_def_cfa_offset 4
  59 002a BD46     		mov	sp, r7
  60              		.cfi_def_cfa_register 13
  61              		@ sp needed
  62 002c 5DF8047B 		ldr	r7, [sp], #4
  63              		.cfi_restore 7
  64              		.cfi_def_cfa_offset 0
  65 0030 7047     		bx	lr
  66              	.L3:
  67 0032 00BF     		.align	2
  68              	.L2:
  69 0034 20510040 		.word	1073762592
  70              		.cfi_endproc
  71              	.LFE0:
ARM GAS  C:\Users\charl\AppData\Local\Temp\ccvo9AHk.s 			page 3


  72              		.size	GND_Write, .-GND_Write
  73              		.section	.text.GND_SetDriveMode,"ax",%progbits
  74              		.align	2
  75              		.global	GND_SetDriveMode
  76              		.thumb
  77              		.thumb_func
  78              		.type	GND_SetDriveMode, %function
  79              	GND_SetDriveMode:
  80              	.LFB1:
  44:.\Generated_Source\PSoC5/GND.c **** 
  45:.\Generated_Source\PSoC5/GND.c **** 
  46:.\Generated_Source\PSoC5/GND.c **** /*******************************************************************************
  47:.\Generated_Source\PSoC5/GND.c **** * Function Name: GND_SetDriveMode
  48:.\Generated_Source\PSoC5/GND.c **** ********************************************************************************
  49:.\Generated_Source\PSoC5/GND.c **** *
  50:.\Generated_Source\PSoC5/GND.c **** * Summary:
  51:.\Generated_Source\PSoC5/GND.c **** *  Change the drive mode on the pins of the port.
  52:.\Generated_Source\PSoC5/GND.c **** * 
  53:.\Generated_Source\PSoC5/GND.c **** * Parameters:  
  54:.\Generated_Source\PSoC5/GND.c **** *  mode:  Change the pins to one of the following drive modes.
  55:.\Generated_Source\PSoC5/GND.c **** *
  56:.\Generated_Source\PSoC5/GND.c **** *  GND_DM_STRONG     Strong Drive 
  57:.\Generated_Source\PSoC5/GND.c **** *  GND_DM_OD_HI      Open Drain, Drives High 
  58:.\Generated_Source\PSoC5/GND.c **** *  GND_DM_OD_LO      Open Drain, Drives Low 
  59:.\Generated_Source\PSoC5/GND.c **** *  GND_DM_RES_UP     Resistive Pull Up 
  60:.\Generated_Source\PSoC5/GND.c **** *  GND_DM_RES_DWN    Resistive Pull Down 
  61:.\Generated_Source\PSoC5/GND.c **** *  GND_DM_RES_UPDWN  Resistive Pull Up/Down 
  62:.\Generated_Source\PSoC5/GND.c **** *  GND_DM_DIG_HIZ    High Impedance Digital 
  63:.\Generated_Source\PSoC5/GND.c **** *  GND_DM_ALG_HIZ    High Impedance Analog 
  64:.\Generated_Source\PSoC5/GND.c **** *
  65:.\Generated_Source\PSoC5/GND.c **** * Return: 
  66:.\Generated_Source\PSoC5/GND.c **** *  None
  67:.\Generated_Source\PSoC5/GND.c **** *
  68:.\Generated_Source\PSoC5/GND.c **** *******************************************************************************/
  69:.\Generated_Source\PSoC5/GND.c **** void GND_SetDriveMode(uint8 mode) 
  70:.\Generated_Source\PSoC5/GND.c **** {
  81              		.loc 1 70 0
  82              		.cfi_startproc
  83              		@ args = 0, pretend = 0, frame = 8
  84              		@ frame_needed = 1, uses_anonymous_args = 0
  85              		@ link register save eliminated.
  86 0000 80B4     		push	{r7}
  87              		.cfi_def_cfa_offset 4
  88              		.cfi_offset 7, -4
  89 0002 83B0     		sub	sp, sp, #12
  90              		.cfi_def_cfa_offset 16
  91 0004 00AF     		add	r7, sp, #0
  92              		.cfi_def_cfa_register 7
  93 0006 0346     		mov	r3, r0
  94 0008 FB71     		strb	r3, [r7, #7]
  71:.\Generated_Source\PSoC5/GND.c **** 	CyPins_SetPinDriveMode(GND_0, mode);
  95              		.loc 1 71 0
  96 000a 2A4B     		ldr	r3, .L5
  97 000c 294A     		ldr	r2, .L5
  98 000e 1278     		ldrb	r2, [r2]
  99 0010 D2B2     		uxtb	r2, r2
 100 0012 D2B2     		uxtb	r2, r2
ARM GAS  C:\Users\charl\AppData\Local\Temp\ccvo9AHk.s 			page 4


 101 0014 22F00E02 		bic	r2, r2, #14
 102 0018 D1B2     		uxtb	r1, r2
 103 001a FA79     		ldrb	r2, [r7, #7]	@ zero_extendqisi2
 104 001c 02F00E02 		and	r2, r2, #14
 105 0020 D2B2     		uxtb	r2, r2
 106 0022 0A43     		orrs	r2, r2, r1
 107 0024 D2B2     		uxtb	r2, r2
 108 0026 D2B2     		uxtb	r2, r2
 109 0028 1A70     		strb	r2, [r3]
  72:.\Generated_Source\PSoC5/GND.c **** 	CyPins_SetPinDriveMode(GND_1, mode);
 110              		.loc 1 72 0
 111 002a 234B     		ldr	r3, .L5+4
 112 002c 224A     		ldr	r2, .L5+4
 113 002e 1278     		ldrb	r2, [r2]
 114 0030 D2B2     		uxtb	r2, r2
 115 0032 D2B2     		uxtb	r2, r2
 116 0034 22F00E02 		bic	r2, r2, #14
 117 0038 D1B2     		uxtb	r1, r2
 118 003a FA79     		ldrb	r2, [r7, #7]	@ zero_extendqisi2
 119 003c 02F00E02 		and	r2, r2, #14
 120 0040 D2B2     		uxtb	r2, r2
 121 0042 0A43     		orrs	r2, r2, r1
 122 0044 D2B2     		uxtb	r2, r2
 123 0046 D2B2     		uxtb	r2, r2
 124 0048 1A70     		strb	r2, [r3]
  73:.\Generated_Source\PSoC5/GND.c **** 	CyPins_SetPinDriveMode(GND_2, mode);
 125              		.loc 1 73 0
 126 004a 1C4B     		ldr	r3, .L5+8
 127 004c 1B4A     		ldr	r2, .L5+8
 128 004e 1278     		ldrb	r2, [r2]
 129 0050 D2B2     		uxtb	r2, r2
 130 0052 D2B2     		uxtb	r2, r2
 131 0054 22F00E02 		bic	r2, r2, #14
 132 0058 D1B2     		uxtb	r1, r2
 133 005a FA79     		ldrb	r2, [r7, #7]	@ zero_extendqisi2
 134 005c 02F00E02 		and	r2, r2, #14
 135 0060 D2B2     		uxtb	r2, r2
 136 0062 0A43     		orrs	r2, r2, r1
 137 0064 D2B2     		uxtb	r2, r2
 138 0066 D2B2     		uxtb	r2, r2
 139 0068 1A70     		strb	r2, [r3]
  74:.\Generated_Source\PSoC5/GND.c **** 	CyPins_SetPinDriveMode(GND_3, mode);
 140              		.loc 1 74 0
 141 006a 154B     		ldr	r3, .L5+12
 142 006c 144A     		ldr	r2, .L5+12
 143 006e 1278     		ldrb	r2, [r2]
 144 0070 D2B2     		uxtb	r2, r2
 145 0072 D2B2     		uxtb	r2, r2
 146 0074 22F00E02 		bic	r2, r2, #14
 147 0078 D1B2     		uxtb	r1, r2
 148 007a FA79     		ldrb	r2, [r7, #7]	@ zero_extendqisi2
 149 007c 02F00E02 		and	r2, r2, #14
 150 0080 D2B2     		uxtb	r2, r2
 151 0082 0A43     		orrs	r2, r2, r1
 152 0084 D2B2     		uxtb	r2, r2
 153 0086 D2B2     		uxtb	r2, r2
 154 0088 1A70     		strb	r2, [r3]
ARM GAS  C:\Users\charl\AppData\Local\Temp\ccvo9AHk.s 			page 5


  75:.\Generated_Source\PSoC5/GND.c **** 	CyPins_SetPinDriveMode(GND_4, mode);
 155              		.loc 1 75 0
 156 008a 0E4B     		ldr	r3, .L5+16
 157 008c 0D4A     		ldr	r2, .L5+16
 158 008e 1278     		ldrb	r2, [r2]
 159 0090 D2B2     		uxtb	r2, r2
 160 0092 D2B2     		uxtb	r2, r2
 161 0094 22F00E02 		bic	r2, r2, #14
 162 0098 D1B2     		uxtb	r1, r2
 163 009a FA79     		ldrb	r2, [r7, #7]	@ zero_extendqisi2
 164 009c 02F00E02 		and	r2, r2, #14
 165 00a0 D2B2     		uxtb	r2, r2
 166 00a2 0A43     		orrs	r2, r2, r1
 167 00a4 D2B2     		uxtb	r2, r2
 168 00a6 D2B2     		uxtb	r2, r2
 169 00a8 1A70     		strb	r2, [r3]
  76:.\Generated_Source\PSoC5/GND.c **** }
 170              		.loc 1 76 0
 171 00aa 0C37     		adds	r7, r7, #12
 172              		.cfi_def_cfa_offset 4
 173 00ac BD46     		mov	sp, r7
 174              		.cfi_def_cfa_register 13
 175              		@ sp needed
 176 00ae 5DF8047B 		ldr	r7, [sp], #4
 177              		.cfi_restore 7
 178              		.cfi_def_cfa_offset 0
 179 00b2 7047     		bx	lr
 180              	.L6:
 181              		.align	2
 182              	.L5:
 183 00b4 10500040 		.word	1073762320
 184 00b8 11500040 		.word	1073762321
 185 00bc 12500040 		.word	1073762322
 186 00c0 13500040 		.word	1073762323
 187 00c4 14500040 		.word	1073762324
 188              		.cfi_endproc
 189              	.LFE1:
 190              		.size	GND_SetDriveMode, .-GND_SetDriveMode
 191              		.section	.text.GND_Read,"ax",%progbits
 192              		.align	2
 193              		.global	GND_Read
 194              		.thumb
 195              		.thumb_func
 196              		.type	GND_Read, %function
 197              	GND_Read:
 198              	.LFB2:
  77:.\Generated_Source\PSoC5/GND.c **** 
  78:.\Generated_Source\PSoC5/GND.c **** 
  79:.\Generated_Source\PSoC5/GND.c **** /*******************************************************************************
  80:.\Generated_Source\PSoC5/GND.c **** * Function Name: GND_Read
  81:.\Generated_Source\PSoC5/GND.c **** ********************************************************************************
  82:.\Generated_Source\PSoC5/GND.c **** *
  83:.\Generated_Source\PSoC5/GND.c **** * Summary:
  84:.\Generated_Source\PSoC5/GND.c **** *  Read the current value on the pins of the Digital Port in right justified 
  85:.\Generated_Source\PSoC5/GND.c **** *  form.
  86:.\Generated_Source\PSoC5/GND.c **** *
  87:.\Generated_Source\PSoC5/GND.c **** * Parameters:  
ARM GAS  C:\Users\charl\AppData\Local\Temp\ccvo9AHk.s 			page 6


  88:.\Generated_Source\PSoC5/GND.c **** *  None
  89:.\Generated_Source\PSoC5/GND.c **** *
  90:.\Generated_Source\PSoC5/GND.c **** * Return: 
  91:.\Generated_Source\PSoC5/GND.c **** *  Returns the current value of the Digital Port as a right justified number
  92:.\Generated_Source\PSoC5/GND.c **** *  
  93:.\Generated_Source\PSoC5/GND.c **** * Note:
  94:.\Generated_Source\PSoC5/GND.c **** *  Macro GND_ReadPS calls this function. 
  95:.\Generated_Source\PSoC5/GND.c **** *  
  96:.\Generated_Source\PSoC5/GND.c **** *******************************************************************************/
  97:.\Generated_Source\PSoC5/GND.c **** uint8 GND_Read(void) 
  98:.\Generated_Source\PSoC5/GND.c **** {
 199              		.loc 1 98 0
 200              		.cfi_startproc
 201              		@ args = 0, pretend = 0, frame = 0
 202              		@ frame_needed = 1, uses_anonymous_args = 0
 203              		@ link register save eliminated.
 204 0000 80B4     		push	{r7}
 205              		.cfi_def_cfa_offset 4
 206              		.cfi_offset 7, -4
 207 0002 00AF     		add	r7, sp, #0
 208              		.cfi_def_cfa_register 7
  99:.\Generated_Source\PSoC5/GND.c ****     return (GND_PS & GND_MASK) >> GND_SHIFT;
 209              		.loc 1 99 0
 210 0004 054B     		ldr	r3, .L9
 211 0006 1B78     		ldrb	r3, [r3]
 212 0008 DBB2     		uxtb	r3, r3
 213 000a 03F01F03 		and	r3, r3, #31
 214 000e DBB2     		uxtb	r3, r3
 100:.\Generated_Source\PSoC5/GND.c **** }
 215              		.loc 1 100 0
 216 0010 1846     		mov	r0, r3
 217 0012 BD46     		mov	sp, r7
 218              		.cfi_def_cfa_register 13
 219              		@ sp needed
 220 0014 5DF8047B 		ldr	r7, [sp], #4
 221              		.cfi_restore 7
 222              		.cfi_def_cfa_offset 0
 223 0018 7047     		bx	lr
 224              	.L10:
 225 001a 00BF     		.align	2
 226              	.L9:
 227 001c 21510040 		.word	1073762593
 228              		.cfi_endproc
 229              	.LFE2:
 230              		.size	GND_Read, .-GND_Read
 231              		.section	.text.GND_ReadDataReg,"ax",%progbits
 232              		.align	2
 233              		.global	GND_ReadDataReg
 234              		.thumb
 235              		.thumb_func
 236              		.type	GND_ReadDataReg, %function
 237              	GND_ReadDataReg:
 238              	.LFB3:
 101:.\Generated_Source\PSoC5/GND.c **** 
 102:.\Generated_Source\PSoC5/GND.c **** 
 103:.\Generated_Source\PSoC5/GND.c **** /*******************************************************************************
 104:.\Generated_Source\PSoC5/GND.c **** * Function Name: GND_ReadDataReg
ARM GAS  C:\Users\charl\AppData\Local\Temp\ccvo9AHk.s 			page 7


 105:.\Generated_Source\PSoC5/GND.c **** ********************************************************************************
 106:.\Generated_Source\PSoC5/GND.c **** *
 107:.\Generated_Source\PSoC5/GND.c **** * Summary:
 108:.\Generated_Source\PSoC5/GND.c **** *  Read the current value assigned to a Digital Port's data output register
 109:.\Generated_Source\PSoC5/GND.c **** *
 110:.\Generated_Source\PSoC5/GND.c **** * Parameters:  
 111:.\Generated_Source\PSoC5/GND.c **** *  None 
 112:.\Generated_Source\PSoC5/GND.c **** *
 113:.\Generated_Source\PSoC5/GND.c **** * Return: 
 114:.\Generated_Source\PSoC5/GND.c **** *  Returns the current value assigned to the Digital Port's data output register
 115:.\Generated_Source\PSoC5/GND.c **** *  
 116:.\Generated_Source\PSoC5/GND.c **** *******************************************************************************/
 117:.\Generated_Source\PSoC5/GND.c **** uint8 GND_ReadDataReg(void) 
 118:.\Generated_Source\PSoC5/GND.c **** {
 239              		.loc 1 118 0
 240              		.cfi_startproc
 241              		@ args = 0, pretend = 0, frame = 0
 242              		@ frame_needed = 1, uses_anonymous_args = 0
 243              		@ link register save eliminated.
 244 0000 80B4     		push	{r7}
 245              		.cfi_def_cfa_offset 4
 246              		.cfi_offset 7, -4
 247 0002 00AF     		add	r7, sp, #0
 248              		.cfi_def_cfa_register 7
 119:.\Generated_Source\PSoC5/GND.c ****     return (GND_DR & GND_MASK) >> GND_SHIFT;
 249              		.loc 1 119 0
 250 0004 054B     		ldr	r3, .L13
 251 0006 1B78     		ldrb	r3, [r3]
 252 0008 DBB2     		uxtb	r3, r3
 253 000a 03F01F03 		and	r3, r3, #31
 254 000e DBB2     		uxtb	r3, r3
 120:.\Generated_Source\PSoC5/GND.c **** }
 255              		.loc 1 120 0
 256 0010 1846     		mov	r0, r3
 257 0012 BD46     		mov	sp, r7
 258              		.cfi_def_cfa_register 13
 259              		@ sp needed
 260 0014 5DF8047B 		ldr	r7, [sp], #4
 261              		.cfi_restore 7
 262              		.cfi_def_cfa_offset 0
 263 0018 7047     		bx	lr
 264              	.L14:
 265 001a 00BF     		.align	2
 266              	.L13:
 267 001c 20510040 		.word	1073762592
 268              		.cfi_endproc
 269              	.LFE3:
 270              		.size	GND_ReadDataReg, .-GND_ReadDataReg
 271              		.text
 272              	.Letext0:
 273              		.file 2 ".\\Generated_Source\\PSoC5\\cytypes.h"