ARM GAS  C:\Users\Charlie\AppData\Local\Temp\ccaJss1H.s 			page 1


   1              		.syntax unified
   2              		.cpu cortex-m3
   3              		.fpu softvfp
   4              		.eabi_attribute 20, 1
   5              		.eabi_attribute 21, 1
   6              		.eabi_attribute 23, 3
   7              		.eabi_attribute 24, 1
   8              		.eabi_attribute 25, 1
   9              		.eabi_attribute 26, 1
  10              		.eabi_attribute 30, 6
  11              		.eabi_attribute 34, 1
  12              		.eabi_attribute 18, 4
  13              		.thumb
  14              		.file	"main.c"
  15              		.text
  16              	.Ltext0:
  17              		.cfi_sections	.debug_frame
  18              		.section	.rodata
  19              		.align	2
  20              	.LC0:
  21 0000 434F4D20 		.ascii	"COM Port Open\000"
  21      506F7274 
  21      204F7065 
  21      6E00
  22 000e 0000     		.align	2
  23              	.LC1:
  24 0010 4F766572 		.ascii	"Overall: %ld mV\015\012\000"
  24      616C6C3A 
  24      20256C64 
  24      206D560D 
  24      0A00
  25 0022 0000     		.align	2
  26              	.LC2:
  27 0024 50726F64 		.ascii	"Production: %ld mV\015\012\000"
  27      75637469 
  27      6F6E3A20 
  27      256C6420 
  27      6D560D0A 
  28 0039 000000   		.align	2
  29              	.LC3:
  30 003c 4670756D 		.ascii	"Fpump: %ld mV\015\012\000"
  30      703A2025 
  30      6C64206D 
  30      560D0A00 
  31              		.align	2
  32              	.LC4:
  33 004c 46696E6A 		.ascii	"Finj: %ld mV\015\012\000"
  33      3A20256C 
  33      64206D56 
  33      0D0A00
  34 005b 00       		.align	2
  35              	.LC5:
  36 005c 49676E69 		.ascii	"Ignition: %ld mV\015\012\000"
  36      74696F6E 
  36      3A20256C 
  36      64206D56 
  36      0D0A00
ARM GAS  C:\Users\Charlie\AppData\Local\Temp\ccaJss1H.s 			page 2


  37 006f 00       		.align	2
  38              	.LC6:
  39 0070 52656656 		.ascii	"RefV: %ld mV\015\012\012\012\012\012\012\015\000"
  39      3A20256C 
  39      64206D56 
  39      0D0A0A0A 
  39      0A0A0A0D 
  40 0085 000000   		.align	2
  41              	.LC7:
  42 0088 456D756C 		.ascii	"Emulated Data: %x \015\012\000"
  42      61746564 
  42      20446174 
  42      613A2025 
  42      78200D0A 
  43 009d 000000   		.section	.text.main,"ax",%progbits
  44              		.align	2
  45              		.global	main
  46              		.thumb
  47              		.thumb_func
  48              		.type	main, %function
  49              	main:
  50              	.LFB63:
  51              		.file 1 ".\\main.c"
   1:.\main.c      **** /******************************************************************************
   2:.\main.c      **** * Project Name		: VTM16 Current Sensors
   3:.\main.c      **** * File Name			: main.c
   4:.\main.c      **** * Version 			: **
   5:.\main.c      **** * Device Used		: CY8C5888LTI-LP097
   6:.\main.c      **** * Software Used		: PSoC Creator 3.1 SP2
   7:.\main.c      **** * Compiler    		: ARM GCC 4.8.4, ARM RVDS Generic, ARM MDK Generic
   8:.\main.c      **** * Related Hardware	: CY8CKIT059 PSoC 5 LP Prototyping Kit 
   9:.\main.c      **** * Owner				: KLMZ
  10:.\main.c      **** *
  11:.\main.c      **** ********************************************************************************
  12:.\main.c      **** * Copyright (2015), Cypress Semiconductor Corporation. All Rights Reserved.
  13:.\main.c      **** ********************************************************************************
  14:.\main.c      **** * This software is owned by Cypress Semiconductor Corporation (Cypress)
  15:.\main.c      **** * and is protected by and subject to worldwide patent protection (United
  16:.\main.c      **** * States and foreign), United States copyright laws and international treaty
  17:.\main.c      **** * provisions. Cypress hereby grants to licensee a personal, non-exclusive,
  18:.\main.c      **** * non-transferable license to copy, use, modify, create derivative works of,
  19:.\main.c      **** * and compile the Cypress Source Code and derivative works for the sole
  20:.\main.c      **** * purpose of creating custom software in support of licensee product to be
  21:.\main.c      **** * used only in conjunction with a Cypress integrated circuit as specified in
  22:.\main.c      **** * the applicable agreement. Any reproduction, modification, translation,
  23:.\main.c      **** * compilation, or representation of this software except as specified above 
  24:.\main.c      **** * is prohibited without the express written permission of Cypress.
  25:.\main.c      **** *
  26:.\main.c      **** * Disclaimer: CYPRESS MAKES NO WARRANTY OF ANY KIND, EXPRESS OR IMPLIED, WITH 
  27:.\main.c      **** * REGARD TO THIS MATERIAL, INCLUDING, BUT NOT LIMITED TO, THE IMPLIED 
  28:.\main.c      **** * WARRANTIES OF MERCHANTABILITY AND FITNESS FOR A PARTICULAR PURPOSE.
  29:.\main.c      **** * Cypress reserves the right to make changes without further notice to the 
  30:.\main.c      **** * materials described herein. Cypress does not assume any liability arising out 
  31:.\main.c      **** * of the application or use of any product or circuit described herein. Cypress 
  32:.\main.c      **** * does not authorize its products for use as critical components in life-support 
  33:.\main.c      **** * systems where a malfunction or failure may reasonably be expected to result in 
  34:.\main.c      **** * significant injury to the user. The inclusion of Cypress' product in a life-
ARM GAS  C:\Users\Charlie\AppData\Local\Temp\ccaJss1H.s 			page 3


  35:.\main.c      **** * support systems application implies that the manufacturer assumes all risk of 
  36:.\main.c      **** * such use and in doing so indemnifies Cypress against all charges. 
  37:.\main.c      **** *
  38:.\main.c      **** * Use of this Software may be limited by and subject to the applicable Cypress
  39:.\main.c      **** * software license agreement. 
  40:.\main.c      **** *******************************************************************************/
  41:.\main.c      **** 
  42:.\main.c      **** #include <device.h>
  43:.\main.c      **** #include "stdio.h"
  44:.\main.c      **** 
  45:.\main.c      **** /* Project Defines */
  46:.\main.c      **** #define FALSE  0
  47:.\main.c      **** #define TRUE   1
  48:.\main.c      **** #define TRANSMIT_BUFFER_SIZE  16
  49:.\main.c      **** #define I2C_BUFFER_SIZE 0x0C
  50:.\main.c      **** #define I2C_RW_AREA_SIZE 0x00
  51:.\main.c      **** 
  52:.\main.c      **** 
  53:.\main.c      **** /*******************************************************************************
  54:.\main.c      **** * Function Name: main
  55:.\main.c      **** ********************************************************************************
  56:.\main.c      **** *
  57:.\main.c      **** * Summary:
  58:.\main.c      **** *  main() performs following functions:
  59:.\main.c      **** *  1: Starts the ADC and UART components.
  60:.\main.c      **** *  2: Checks for ADC end of conversion.  Stores latest result in output
  61:.\main.c      **** *     if conversion complete.
  62:.\main.c      **** *  3: Checks for UART input.
  63:.\main.c      **** *     On 'C' or 'c' received: transmits the last sample via the UART.
  64:.\main.c      **** *     On 'S' or 's' received: continuously transmits samples as they are completed.
  65:.\main.c      **** *     On 'X' or 'x' received: stops continuously transmitting samples.
  66:.\main.c      **** *     On 'E' or 'e' received: transmits a dummy byte of data.
  67:.\main.c      **** *
  68:.\main.c      **** * Parameters:
  69:.\main.c      **** *  None.
  70:.\main.c      **** *
  71:.\main.c      **** * Return:
  72:.\main.c      **** *  None.
  73:.\main.c      **** *
  74:.\main.c      **** *******************************************************************************/
  75:.\main.c      **** 
  76:.\main.c      **** //Need to use ezi2c_get_activity to develop a mechanism for data coherency
  77:.\main.c      **** //Only write to buffer if it is not busy
  78:.\main.c      **** void main()
  79:.\main.c      **** {
  52              		.loc 1 79 0
  53              		.cfi_startproc
  54              		@ args = 0, pretend = 0, frame = 64
  55              		@ frame_needed = 1, uses_anonymous_args = 0
  56 0000 80B5     		push	{r7, lr}
  57              		.cfi_def_cfa_offset 8
  58              		.cfi_offset 7, -8
  59              		.cfi_offset 14, -4
  60 0002 90B0     		sub	sp, sp, #64
  61              		.cfi_def_cfa_offset 72
  62 0004 00AF     		add	r7, sp, #0
  63              		.cfi_def_cfa_register 7
ARM GAS  C:\Users\Charlie\AppData\Local\Temp\ccaJss1H.s 			page 4


  80:.\main.c      ****     /* Variable to store ADC result */
  81:.\main.c      ****     int16 Output;
  82:.\main.c      ****     int32 data[6];
  83:.\main.c      ****     /* Variable to store UART received character */
  84:.\main.c      ****     uint8 Ch;
  85:.\main.c      ****     /* Variable used to send emulated data */
  86:.\main.c      ****     uint8 EmulatedData;
  87:.\main.c      ****     /* Flags used to store transmit data commands */
  88:.\main.c      ****     uint8 ContinuouslySendData;
  89:.\main.c      ****     uint8 SendSingleByte;
  90:.\main.c      ****     uint8 SendEmulatedData;
  91:.\main.c      ****     //Set Up i2c variables
  92:.\main.c      ****     uint8 i2cBuffer[I2C_BUFFER_SIZE];
  93:.\main.c      ****     /* Transmit Buffer */
  94:.\main.c      ****     char TransmitBuffer[TRANSMIT_BUFFER_SIZE];
  95:.\main.c      ****     
  96:.\main.c      ****     
  97:.\main.c      ****     int i;
  98:.\main.c      ****     /* Start the components */
  99:.\main.c      ****     ADC_SAR_Seq_1_Start();
  64              		.loc 1 99 0
  65 0006 FFF7FEFF 		bl	ADC_SAR_Seq_1_Start
 100:.\main.c      ****     UART_1_Start();
  66              		.loc 1 100 0
  67 000a FFF7FEFF 		bl	UART_1_Start
 101:.\main.c      ****     EZI2C_1_Start();
  68              		.loc 1 101 0
  69 000e FFF7FEFF 		bl	EZI2C_1_Start
 102:.\main.c      ****     EZI2C_1_SetBuffer1(I2C_BUFFER_SIZE, I2C_RW_AREA_SIZE, i2cBuffer); 
  70              		.loc 1 102 0
  71 0012 07F11003 		add	r3, r7, #16
  72 0016 0C20     		movs	r0, #12
  73 0018 0021     		movs	r1, #0
  74 001a 1A46     		mov	r2, r3
  75 001c FFF7FEFF 		bl	EZI2C_1_SetBuffer1
 103:.\main.c      ****     
 104:.\main.c      ****     /* Initialize Variables */
 105:.\main.c      ****     ContinuouslySendData = FALSE;
  76              		.loc 1 105 0
  77 0020 0023     		movs	r3, #0
  78 0022 87F83E30 		strb	r3, [r7, #62]
 106:.\main.c      ****     SendSingleByte = FALSE;
  79              		.loc 1 106 0
  80 0026 0023     		movs	r3, #0
  81 0028 87F83D30 		strb	r3, [r7, #61]
 107:.\main.c      ****     SendEmulatedData = FALSE;
  82              		.loc 1 107 0
  83 002c 0023     		movs	r3, #0
  84 002e 87F83C30 		strb	r3, [r7, #60]
 108:.\main.c      ****     EmulatedData = 0;
  85              		.loc 1 108 0
  86 0032 0023     		movs	r3, #0
  87 0034 87F83F30 		strb	r3, [r7, #63]
 109:.\main.c      ****     
 110:.\main.c      ****     /* Start the ADC conversion */
 111:.\main.c      ****     ADC_SAR_Seq_1_StartConvert();
  88              		.loc 1 111 0
ARM GAS  C:\Users\Charlie\AppData\Local\Temp\ccaJss1H.s 			page 5


  89 0038 FFF7FEFF 		bl	ADC_SAR_Seq_1_StartConvert
 112:.\main.c      ****     
 113:.\main.c      ****     /* Send message to verify COM port is connected properly */
 114:.\main.c      ****     UART_1_PutString("COM Port Open");
  90              		.loc 1 114 0
  91 003c 6148     		ldr	r0, .L19
  92 003e FFF7FEFF 		bl	UART_1_PutString
  93              	.L17:
 115:.\main.c      ****     
 116:.\main.c      ****     for(;;)
 117:.\main.c      ****     {        
 118:.\main.c      ****         /* Non-blocking call to get the latest data recieved  */
 119:.\main.c      ****         Ch = UART_1_GetChar();
  94              		.loc 1 119 0
  95 0042 FFF7FEFF 		bl	UART_1_GetChar
  96 0046 0346     		mov	r3, r0
  97 0048 87F83730 		strb	r3, [r7, #55]
 120:.\main.c      ****         
 121:.\main.c      ****         /* Set flags based on UART command */
 122:.\main.c      ****         switch(Ch)
  98              		.loc 1 122 0
  99 004c 97F83730 		ldrb	r3, [r7, #55]	@ zero_extendqisi2
 100 0050 582B     		cmp	r3, #88
 101 0052 21D0     		beq	.L3
 102 0054 582B     		cmp	r3, #88
 103 0056 0BDC     		bgt	.L4
 104 0058 432B     		cmp	r3, #67
 105 005a 15D0     		beq	.L5
 106 005c 432B     		cmp	r3, #67
 107 005e 02DC     		bgt	.L6
 108 0060 002B     		cmp	r3, #0
 109 0062 21D0     		beq	.L18
 123:.\main.c      ****         {
 124:.\main.c      ****             case 0:
 125:.\main.c      ****                 /* No new data was recieved */
 126:.\main.c      ****                 break;
 127:.\main.c      ****             case 'C':
 128:.\main.c      ****             case 'c':
 129:.\main.c      ****                 SendSingleByte = TRUE;
 130:.\main.c      ****                 break;
 131:.\main.c      ****             case 'S':
 132:.\main.c      ****             case 's':
 133:.\main.c      ****                 ContinuouslySendData = TRUE;
 134:.\main.c      ****                 break;
 135:.\main.c      ****             case 'X':
 136:.\main.c      ****             case 'x':
 137:.\main.c      ****                 ContinuouslySendData = FALSE;
 138:.\main.c      ****                 break;
 139:.\main.c      ****             case 'E':
 140:.\main.c      ****             case 'e':
 141:.\main.c      ****                 SendEmulatedData = TRUE;
 142:.\main.c      ****                 break;
 143:.\main.c      ****             default:
 144:.\main.c      ****                 /* Place error handling code here */
 145:.\main.c      ****                 break;    
 110              		.loc 1 145 0
 111 0064 21E0     		b	.L11
ARM GAS  C:\Users\Charlie\AppData\Local\Temp\ccaJss1H.s 			page 6


 112              	.L6:
 122:.\main.c      ****         {
 113              		.loc 1 122 0
 114 0066 452B     		cmp	r3, #69
 115 0068 1AD0     		beq	.L8
 116 006a 532B     		cmp	r3, #83
 117 006c 10D0     		beq	.L9
 118              		.loc 1 145 0
 119 006e 1CE0     		b	.L11
 120              	.L4:
 122:.\main.c      ****         {
 121              		.loc 1 122 0
 122 0070 652B     		cmp	r3, #101
 123 0072 15D0     		beq	.L8
 124 0074 652B     		cmp	r3, #101
 125 0076 02DC     		bgt	.L10
 126 0078 632B     		cmp	r3, #99
 127 007a 05D0     		beq	.L5
 128              		.loc 1 145 0
 129 007c 15E0     		b	.L11
 130              	.L10:
 122:.\main.c      ****         {
 131              		.loc 1 122 0
 132 007e 732B     		cmp	r3, #115
 133 0080 06D0     		beq	.L9
 134 0082 782B     		cmp	r3, #120
 135 0084 08D0     		beq	.L3
 136              		.loc 1 145 0
 137 0086 10E0     		b	.L11
 138              	.L5:
 129:.\main.c      ****                 break;
 139              		.loc 1 129 0
 140 0088 0123     		movs	r3, #1
 141 008a 87F83D30 		strb	r3, [r7, #61]
 130:.\main.c      ****             case 'S':
 142              		.loc 1 130 0
 143 008e 0CE0     		b	.L11
 144              	.L9:
 133:.\main.c      ****                 break;
 145              		.loc 1 133 0
 146 0090 0123     		movs	r3, #1
 147 0092 87F83E30 		strb	r3, [r7, #62]
 134:.\main.c      ****             case 'X':
 148              		.loc 1 134 0
 149 0096 08E0     		b	.L11
 150              	.L3:
 137:.\main.c      ****                 break;
 151              		.loc 1 137 0
 152 0098 0023     		movs	r3, #0
 153 009a 87F83E30 		strb	r3, [r7, #62]
 138:.\main.c      ****             case 'E':
 154              		.loc 1 138 0
 155 009e 04E0     		b	.L11
 156              	.L8:
 141:.\main.c      ****                 break;
 157              		.loc 1 141 0
 158 00a0 0123     		movs	r3, #1
ARM GAS  C:\Users\Charlie\AppData\Local\Temp\ccaJss1H.s 			page 7


 159 00a2 87F83C30 		strb	r3, [r7, #60]
 142:.\main.c      ****             default:
 160              		.loc 1 142 0
 161 00a6 00E0     		b	.L11
 162              	.L18:
 126:.\main.c      ****             case 'C':
 163              		.loc 1 126 0
 164 00a8 00BF     		nop
 165              	.L11:
 146:.\main.c      ****         }
 147:.\main.c      ****         
 148:.\main.c      ****         /* Check to see if an ADC conversion has completed */
 149:.\main.c      ****         //At some point should switch to interrupts
 150:.\main.c      ****         if(ADC_SAR_Seq_1_IsEndConversion(ADC_SAR_Seq_1_RETURN_STATUS))
 166              		.loc 1 150 0
 167 00aa 0120     		movs	r0, #1
 168 00ac FFF7FEFF 		bl	ADC_SAR_Seq_1_IsEndConversion
 169 00b0 0346     		mov	r3, r0
 170 00b2 002B     		cmp	r3, #0
 171 00b4 00F08580 		beq	.L12
 151:.\main.c      ****         {
 152:.\main.c      ****             /* Use the GetResult16 API to get an 8 bit unsigned result in
 153:.\main.c      ****              * single ended mode.  The API CountsTo_mVolts is then used
 154:.\main.c      ****              * to convert the ADC counts into mV before transmitting via
 155:.\main.c      ****              * the UART.  See the datasheet API description for more
 156:.\main.c      ****              * details */
 157:.\main.c      ****             i = 0;
 172              		.loc 1 157 0
 173 00b8 0023     		movs	r3, #0
 174 00ba BB63     		str	r3, [r7, #56]
 158:.\main.c      ****             for(i = 0;i<6;i++)
 175              		.loc 1 158 0
 176 00bc 0023     		movs	r3, #0
 177 00be BB63     		str	r3, [r7, #56]
 178 00c0 16E0     		b	.L13
 179              	.L14:
 159:.\main.c      ****             {
 160:.\main.c      ****             Output = ADC_SAR_Seq_1_GetResult16(i);
 180              		.loc 1 160 0 discriminator 3
 181 00c2 BB6B     		ldr	r3, [r7, #56]
 182 00c4 9BB2     		uxth	r3, r3
 183 00c6 1846     		mov	r0, r3
 184 00c8 FFF7FEFF 		bl	ADC_SAR_Seq_1_GetResult16
 185 00cc 0346     		mov	r3, r0
 186 00ce BB86     		strh	r3, [r7, #52]	@ movhi
 161:.\main.c      ****             data[i] = ADC_SAR_Seq_1_CountsTo_mVolts(Output);
 187              		.loc 1 161 0 discriminator 3
 188 00d0 B7F93430 		ldrsh	r3, [r7, #52]
 189 00d4 1846     		mov	r0, r3
 190 00d6 FFF7FEFF 		bl	ADC_SAR_Seq_1_CountsTo_mVolts
 191 00da 0246     		mov	r2, r0
 192 00dc BB6B     		ldr	r3, [r7, #56]
 193 00de 9B00     		lsls	r3, r3, #2
 194 00e0 07F14001 		add	r1, r7, #64
 195 00e4 0B44     		add	r3, r3, r1
 196 00e6 43F8242C 		str	r2, [r3, #-36]
 158:.\main.c      ****             for(i = 0;i<6;i++)
ARM GAS  C:\Users\Charlie\AppData\Local\Temp\ccaJss1H.s 			page 8


 197              		.loc 1 158 0 discriminator 3
 198 00ea BB6B     		ldr	r3, [r7, #56]
 199 00ec 0133     		adds	r3, r3, #1
 200 00ee BB63     		str	r3, [r7, #56]
 201              	.L13:
 158:.\main.c      ****             for(i = 0;i<6;i++)
 202              		.loc 1 158 0 is_stmt 0 discriminator 1
 203 00f0 BB6B     		ldr	r3, [r7, #56]
 204 00f2 052B     		cmp	r3, #5
 205 00f4 E5DD     		ble	.L14
 162:.\main.c      ****             }
 163:.\main.c      ****             /* Send data based on last UART command */
 164:.\main.c      ****             if(SendSingleByte || ContinuouslySendData)
 206              		.loc 1 164 0 is_stmt 1
 207 00f6 97F83D30 		ldrb	r3, [r7, #61]	@ zero_extendqisi2
 208 00fa 002B     		cmp	r3, #0
 209 00fc 03D1     		bne	.L15
 210              		.loc 1 164 0 is_stmt 0 discriminator 1
 211 00fe 97F83E30 		ldrb	r3, [r7, #62]	@ zero_extendqisi2
 212 0102 002B     		cmp	r3, #0
 213 0104 45D0     		beq	.L16
 214              	.L15:
 165:.\main.c      ****             {
 166:.\main.c      ****                 /* Format ADC result for transmition */
 167:.\main.c      ****                 sprintf(TransmitBuffer, "Overall: %ld mV\r\n", data[0]);
 215              		.loc 1 167 0 is_stmt 1
 216 0106 FB69     		ldr	r3, [r7, #28]
 217 0108 3A46     		mov	r2, r7
 218 010a 1046     		mov	r0, r2
 219 010c 2E49     		ldr	r1, .L19+4
 220 010e 1A46     		mov	r2, r3
 221 0110 FFF7FEFF 		bl	sprintf
 168:.\main.c      ****                 /* Send out the data */
 169:.\main.c      ****                 UART_1_PutString(TransmitBuffer);
 222              		.loc 1 169 0
 223 0114 3B46     		mov	r3, r7
 224 0116 1846     		mov	r0, r3
 225 0118 FFF7FEFF 		bl	UART_1_PutString
 170:.\main.c      ****                 
 171:.\main.c      ****                 sprintf(TransmitBuffer, "Production: %ld mV\r\n", data[1]);
 226              		.loc 1 171 0
 227 011c 3B6A     		ldr	r3, [r7, #32]
 228 011e 3A46     		mov	r2, r7
 229 0120 1046     		mov	r0, r2
 230 0122 2A49     		ldr	r1, .L19+8
 231 0124 1A46     		mov	r2, r3
 232 0126 FFF7FEFF 		bl	sprintf
 172:.\main.c      ****                 UART_1_PutString(TransmitBuffer);      
 233              		.loc 1 172 0
 234 012a 3B46     		mov	r3, r7
 235 012c 1846     		mov	r0, r3
 236 012e FFF7FEFF 		bl	UART_1_PutString
 173:.\main.c      ****                 sprintf(TransmitBuffer, "Fpump: %ld mV\r\n", data[2]);
 237              		.loc 1 173 0
 238 0132 7B6A     		ldr	r3, [r7, #36]
 239 0134 3A46     		mov	r2, r7
 240 0136 1046     		mov	r0, r2
ARM GAS  C:\Users\Charlie\AppData\Local\Temp\ccaJss1H.s 			page 9


 241 0138 2549     		ldr	r1, .L19+12
 242 013a 1A46     		mov	r2, r3
 243 013c FFF7FEFF 		bl	sprintf
 174:.\main.c      ****                 UART_1_PutString(TransmitBuffer);                  
 244              		.loc 1 174 0
 245 0140 3B46     		mov	r3, r7
 246 0142 1846     		mov	r0, r3
 247 0144 FFF7FEFF 		bl	UART_1_PutString
 175:.\main.c      ****                 sprintf(TransmitBuffer, "Finj: %ld mV\r\n", data[3]);
 248              		.loc 1 175 0
 249 0148 BB6A     		ldr	r3, [r7, #40]
 250 014a 3A46     		mov	r2, r7
 251 014c 1046     		mov	r0, r2
 252 014e 2149     		ldr	r1, .L19+16
 253 0150 1A46     		mov	r2, r3
 254 0152 FFF7FEFF 		bl	sprintf
 176:.\main.c      ****                 UART_1_PutString(TransmitBuffer);                 
 255              		.loc 1 176 0
 256 0156 3B46     		mov	r3, r7
 257 0158 1846     		mov	r0, r3
 258 015a FFF7FEFF 		bl	UART_1_PutString
 177:.\main.c      ****                 sprintf(TransmitBuffer, "Ignition: %ld mV\r\n", data[4]);
 259              		.loc 1 177 0
 260 015e FB6A     		ldr	r3, [r7, #44]
 261 0160 3A46     		mov	r2, r7
 262 0162 1046     		mov	r0, r2
 263 0164 1C49     		ldr	r1, .L19+20
 264 0166 1A46     		mov	r2, r3
 265 0168 FFF7FEFF 		bl	sprintf
 178:.\main.c      ****                 UART_1_PutString(TransmitBuffer);                   
 266              		.loc 1 178 0
 267 016c 3B46     		mov	r3, r7
 268 016e 1846     		mov	r0, r3
 269 0170 FFF7FEFF 		bl	UART_1_PutString
 179:.\main.c      ****                 sprintf(TransmitBuffer, "RefV: %ld mV\r\n\n\n\n\n\n\r", data[5]);
 270              		.loc 1 179 0
 271 0174 3B6B     		ldr	r3, [r7, #48]
 272 0176 3A46     		mov	r2, r7
 273 0178 1046     		mov	r0, r2
 274 017a 1849     		ldr	r1, .L19+24
 275 017c 1A46     		mov	r2, r3
 276 017e FFF7FEFF 		bl	sprintf
 180:.\main.c      ****                 UART_1_PutString(TransmitBuffer);                   
 277              		.loc 1 180 0
 278 0182 3B46     		mov	r3, r7
 279 0184 1846     		mov	r0, r3
 280 0186 FFF7FEFF 		bl	UART_1_PutString
 181:.\main.c      ****                 /* Reset the send once flag */
 182:.\main.c      ****                 SendSingleByte = FALSE;
 281              		.loc 1 182 0
 282 018a 0023     		movs	r3, #0
 283 018c 87F83D30 		strb	r3, [r7, #61]
 284 0190 17E0     		b	.L12
 285              	.L16:
 183:.\main.c      ****             }
 184:.\main.c      ****             else if(SendEmulatedData)
 286              		.loc 1 184 0
ARM GAS  C:\Users\Charlie\AppData\Local\Temp\ccaJss1H.s 			page 10


 287 0192 97F83C30 		ldrb	r3, [r7, #60]	@ zero_extendqisi2
 288 0196 002B     		cmp	r3, #0
 289 0198 13D0     		beq	.L12
 185:.\main.c      ****             {
 186:.\main.c      ****                 /* Format ADC result for transmition */
 187:.\main.c      ****                 sprintf(TransmitBuffer, "Emulated Data: %x \r\n", EmulatedData);
 290              		.loc 1 187 0
 291 019a 97F83F30 		ldrb	r3, [r7, #63]	@ zero_extendqisi2
 292 019e 3A46     		mov	r2, r7
 293 01a0 1046     		mov	r0, r2
 294 01a2 0F49     		ldr	r1, .L19+28
 295 01a4 1A46     		mov	r2, r3
 296 01a6 FFF7FEFF 		bl	sprintf
 188:.\main.c      ****                 /* Send out the data */
 189:.\main.c      ****                 UART_1_PutString(TransmitBuffer);
 297              		.loc 1 189 0
 298 01aa 3B46     		mov	r3, r7
 299 01ac 1846     		mov	r0, r3
 300 01ae FFF7FEFF 		bl	UART_1_PutString
 190:.\main.c      ****                 EmulatedData++;
 301              		.loc 1 190 0
 302 01b2 97F83F30 		ldrb	r3, [r7, #63]	@ zero_extendqisi2
 303 01b6 0133     		adds	r3, r3, #1
 304 01b8 87F83F30 		strb	r3, [r7, #63]
 191:.\main.c      ****                 /* Reset the send once flag */
 192:.\main.c      ****                 SendEmulatedData = FALSE;   
 305              		.loc 1 192 0
 306 01bc 0023     		movs	r3, #0
 307 01be 87F83C30 		strb	r3, [r7, #60]
 308              	.L12:
 193:.\main.c      ****             }
 194:.\main.c      ****         }
 195:.\main.c      ****     }
 309              		.loc 1 195 0
 310 01c2 3EE7     		b	.L17
 311              	.L20:
 312              		.align	2
 313              	.L19:
 314 01c4 00000000 		.word	.LC0
 315 01c8 10000000 		.word	.LC1
 316 01cc 24000000 		.word	.LC2
 317 01d0 3C000000 		.word	.LC3
 318 01d4 4C000000 		.word	.LC4
 319 01d8 5C000000 		.word	.LC5
 320 01dc 70000000 		.word	.LC6
 321 01e0 88000000 		.word	.LC7
 322              		.cfi_endproc
 323              	.LFE63:
 324              		.size	main, .-main
 325              		.text
 326              	.Letext0:
 327              		.file 2 "c:\\program files (x86)\\cypress\\psoc creator\\3.3\\psoc creator\\import\\gnu\\arm\\4.9.
 328              		.file 3 "c:\\program files (x86)\\cypress\\psoc creator\\3.3\\psoc creator\\import\\gnu\\arm\\4.9.
 329              		.file 4 "Generated_Source\\PSoC5/cytypes.h"
 330              		.file 5 "Generated_Source\\PSoC5/core_cm3.h"