ARM GAS  C:\Users\Charlie\AppData\Local\Temp\ccHorJpd.s 			page 1


   1              		.syntax unified
   2              		.cpu cortex-m3
   3              		.fpu softvfp
   4              		.eabi_attribute 20, 1
   5              		.eabi_attribute 21, 1
   6              		.eabi_attribute 23, 3
   7              		.eabi_attribute 24, 1
   8              		.eabi_attribute 25, 1
   9              		.eabi_attribute 26, 1
  10              		.eabi_attribute 30, 6
  11              		.eabi_attribute 34, 1
  12              		.eabi_attribute 18, 4
  13              		.thumb
  14              		.file	"Pin_1.c"
  15              		.text
  16              	.Ltext0:
  17              		.cfi_sections	.debug_frame
  18              		.section	.text.Pin_1_Write,"ax",%progbits
  19              		.align	2
  20              		.global	Pin_1_Write
  21              		.thumb
  22              		.thumb_func
  23              		.type	Pin_1_Write, %function
  24              	Pin_1_Write:
  25              	.LFB0:
  26              		.file 1 ".\\Generated_Source\\PSoC5\\Pin_1.c"
   1:.\Generated_Source\PSoC5/Pin_1.c **** /*******************************************************************************
   2:.\Generated_Source\PSoC5/Pin_1.c **** * File Name: Pin_1.c  
   3:.\Generated_Source\PSoC5/Pin_1.c **** * Version 2.10
   4:.\Generated_Source\PSoC5/Pin_1.c **** *
   5:.\Generated_Source\PSoC5/Pin_1.c **** * Description:
   6:.\Generated_Source\PSoC5/Pin_1.c **** *  This file contains API to enable firmware control of a Pins component.
   7:.\Generated_Source\PSoC5/Pin_1.c **** *
   8:.\Generated_Source\PSoC5/Pin_1.c **** * Note:
   9:.\Generated_Source\PSoC5/Pin_1.c **** *
  10:.\Generated_Source\PSoC5/Pin_1.c **** ********************************************************************************
  11:.\Generated_Source\PSoC5/Pin_1.c **** * Copyright 2008-2014, Cypress Semiconductor Corporation.  All rights reserved.
  12:.\Generated_Source\PSoC5/Pin_1.c **** * You may use this file only in accordance with the license, terms, conditions, 
  13:.\Generated_Source\PSoC5/Pin_1.c **** * disclaimers, and limitations in the end user license agreement accompanying 
  14:.\Generated_Source\PSoC5/Pin_1.c **** * the software package with which this file was provided.
  15:.\Generated_Source\PSoC5/Pin_1.c **** *******************************************************************************/
  16:.\Generated_Source\PSoC5/Pin_1.c **** 
  17:.\Generated_Source\PSoC5/Pin_1.c **** #include "cytypes.h"
  18:.\Generated_Source\PSoC5/Pin_1.c **** #include "Pin_1.h"
  19:.\Generated_Source\PSoC5/Pin_1.c **** 
  20:.\Generated_Source\PSoC5/Pin_1.c **** /* APIs are not generated for P15[7:6] on PSoC 5 */
  21:.\Generated_Source\PSoC5/Pin_1.c **** #if !(CY_PSOC5A &&\
  22:.\Generated_Source\PSoC5/Pin_1.c **** 	 Pin_1__PORT == 15 && ((Pin_1__MASK & 0xC0) != 0))
  23:.\Generated_Source\PSoC5/Pin_1.c **** 
  24:.\Generated_Source\PSoC5/Pin_1.c **** 
  25:.\Generated_Source\PSoC5/Pin_1.c **** /*******************************************************************************
  26:.\Generated_Source\PSoC5/Pin_1.c **** * Function Name: Pin_1_Write
  27:.\Generated_Source\PSoC5/Pin_1.c **** ********************************************************************************
  28:.\Generated_Source\PSoC5/Pin_1.c **** *
  29:.\Generated_Source\PSoC5/Pin_1.c **** * Summary:
  30:.\Generated_Source\PSoC5/Pin_1.c **** *  Assign a new value to the digital port's data output register.  
  31:.\Generated_Source\PSoC5/Pin_1.c **** *
ARM GAS  C:\Users\Charlie\AppData\Local\Temp\ccHorJpd.s 			page 2


  32:.\Generated_Source\PSoC5/Pin_1.c **** * Parameters:  
  33:.\Generated_Source\PSoC5/Pin_1.c **** *  prtValue:  The value to be assigned to the Digital Port. 
  34:.\Generated_Source\PSoC5/Pin_1.c **** *
  35:.\Generated_Source\PSoC5/Pin_1.c **** * Return: 
  36:.\Generated_Source\PSoC5/Pin_1.c **** *  None
  37:.\Generated_Source\PSoC5/Pin_1.c **** *  
  38:.\Generated_Source\PSoC5/Pin_1.c **** *******************************************************************************/
  39:.\Generated_Source\PSoC5/Pin_1.c **** void Pin_1_Write(uint8 value) 
  40:.\Generated_Source\PSoC5/Pin_1.c **** {
  27              		.loc 1 40 0
  28              		.cfi_startproc
  29              		@ args = 0, pretend = 0, frame = 16
  30              		@ frame_needed = 1, uses_anonymous_args = 0
  31              		@ link register save eliminated.
  32 0000 80B4     		push	{r7}
  33              		.cfi_def_cfa_offset 4
  34              		.cfi_offset 7, -4
  35 0002 85B0     		sub	sp, sp, #20
  36              		.cfi_def_cfa_offset 24
  37 0004 00AF     		add	r7, sp, #0
  38              		.cfi_def_cfa_register 7
  39 0006 0346     		mov	r3, r0
  40 0008 FB71     		strb	r3, [r7, #7]
  41:.\Generated_Source\PSoC5/Pin_1.c ****     uint8 staticBits = (Pin_1_DR & (uint8)(~Pin_1_MASK));
  41              		.loc 1 41 0
  42 000a 0B4B     		ldr	r3, .L2
  43 000c 1B78     		ldrb	r3, [r3]
  44 000e DBB2     		uxtb	r3, r3
  45 0010 23F03003 		bic	r3, r3, #48
  46 0014 FB73     		strb	r3, [r7, #15]
  42:.\Generated_Source\PSoC5/Pin_1.c ****     Pin_1_DR = staticBits | ((uint8)(value << Pin_1_SHIFT) & Pin_1_MASK);
  47              		.loc 1 42 0
  48 0016 0849     		ldr	r1, .L2
  49 0018 FB79     		ldrb	r3, [r7, #7]
  50 001a 1B01     		lsls	r3, r3, #4
  51 001c DBB2     		uxtb	r3, r3
  52 001e 03F03003 		and	r3, r3, #48
  53 0022 DAB2     		uxtb	r2, r3
  54 0024 FB7B     		ldrb	r3, [r7, #15]
  55 0026 1343     		orrs	r3, r3, r2
  56 0028 DBB2     		uxtb	r3, r3
  57 002a 0B70     		strb	r3, [r1]
  43:.\Generated_Source\PSoC5/Pin_1.c **** }
  58              		.loc 1 43 0
  59 002c 1437     		adds	r7, r7, #20
  60              		.cfi_def_cfa_offset 4
  61 002e BD46     		mov	sp, r7
  62              		.cfi_def_cfa_register 13
  63              		@ sp needed
  64 0030 5DF8047B 		ldr	r7, [sp], #4
  65              		.cfi_restore 7
  66              		.cfi_def_cfa_offset 0
  67 0034 7047     		bx	lr
  68              	.L3:
  69 0036 00BF     		.align	2
  70              	.L2:
  71 0038 C0510040 		.word	1073762752
ARM GAS  C:\Users\Charlie\AppData\Local\Temp\ccHorJpd.s 			page 3


  72              		.cfi_endproc
  73              	.LFE0:
  74              		.size	Pin_1_Write, .-Pin_1_Write
  75              		.section	.text.Pin_1_SetDriveMode,"ax",%progbits
  76              		.align	2
  77              		.global	Pin_1_SetDriveMode
  78              		.thumb
  79              		.thumb_func
  80              		.type	Pin_1_SetDriveMode, %function
  81              	Pin_1_SetDriveMode:
  82              	.LFB1:
  44:.\Generated_Source\PSoC5/Pin_1.c **** 
  45:.\Generated_Source\PSoC5/Pin_1.c **** 
  46:.\Generated_Source\PSoC5/Pin_1.c **** /*******************************************************************************
  47:.\Generated_Source\PSoC5/Pin_1.c **** * Function Name: Pin_1_SetDriveMode
  48:.\Generated_Source\PSoC5/Pin_1.c **** ********************************************************************************
  49:.\Generated_Source\PSoC5/Pin_1.c **** *
  50:.\Generated_Source\PSoC5/Pin_1.c **** * Summary:
  51:.\Generated_Source\PSoC5/Pin_1.c **** *  Change the drive mode on the pins of the port.
  52:.\Generated_Source\PSoC5/Pin_1.c **** * 
  53:.\Generated_Source\PSoC5/Pin_1.c **** * Parameters:  
  54:.\Generated_Source\PSoC5/Pin_1.c **** *  mode:  Change the pins to one of the following drive modes.
  55:.\Generated_Source\PSoC5/Pin_1.c **** *
  56:.\Generated_Source\PSoC5/Pin_1.c **** *  Pin_1_DM_STRONG     Strong Drive 
  57:.\Generated_Source\PSoC5/Pin_1.c **** *  Pin_1_DM_OD_HI      Open Drain, Drives High 
  58:.\Generated_Source\PSoC5/Pin_1.c **** *  Pin_1_DM_OD_LO      Open Drain, Drives Low 
  59:.\Generated_Source\PSoC5/Pin_1.c **** *  Pin_1_DM_RES_UP     Resistive Pull Up 
  60:.\Generated_Source\PSoC5/Pin_1.c **** *  Pin_1_DM_RES_DWN    Resistive Pull Down 
  61:.\Generated_Source\PSoC5/Pin_1.c **** *  Pin_1_DM_RES_UPDWN  Resistive Pull Up/Down 
  62:.\Generated_Source\PSoC5/Pin_1.c **** *  Pin_1_DM_DIG_HIZ    High Impedance Digital 
  63:.\Generated_Source\PSoC5/Pin_1.c **** *  Pin_1_DM_ALG_HIZ    High Impedance Analog 
  64:.\Generated_Source\PSoC5/Pin_1.c **** *
  65:.\Generated_Source\PSoC5/Pin_1.c **** * Return: 
  66:.\Generated_Source\PSoC5/Pin_1.c **** *  None
  67:.\Generated_Source\PSoC5/Pin_1.c **** *
  68:.\Generated_Source\PSoC5/Pin_1.c **** *******************************************************************************/
  69:.\Generated_Source\PSoC5/Pin_1.c **** void Pin_1_SetDriveMode(uint8 mode) 
  70:.\Generated_Source\PSoC5/Pin_1.c **** {
  83              		.loc 1 70 0
  84              		.cfi_startproc
  85              		@ args = 0, pretend = 0, frame = 8
  86              		@ frame_needed = 1, uses_anonymous_args = 0
  87              		@ link register save eliminated.
  88 0000 80B4     		push	{r7}
  89              		.cfi_def_cfa_offset 4
  90              		.cfi_offset 7, -4
  91 0002 83B0     		sub	sp, sp, #12
  92              		.cfi_def_cfa_offset 16
  93 0004 00AF     		add	r7, sp, #0
  94              		.cfi_def_cfa_register 7
  95 0006 0346     		mov	r3, r0
  96 0008 FB71     		strb	r3, [r7, #7]
  71:.\Generated_Source\PSoC5/Pin_1.c **** 	CyPins_SetPinDriveMode(Pin_1_0, mode);
  97              		.loc 1 71 0
  98 000a 124B     		ldr	r3, .L5
  99 000c 114A     		ldr	r2, .L5
 100 000e 1278     		ldrb	r2, [r2]
ARM GAS  C:\Users\Charlie\AppData\Local\Temp\ccHorJpd.s 			page 4


 101 0010 D2B2     		uxtb	r2, r2
 102 0012 D2B2     		uxtb	r2, r2
 103 0014 22F00E02 		bic	r2, r2, #14
 104 0018 D1B2     		uxtb	r1, r2
 105 001a FA79     		ldrb	r2, [r7, #7]	@ zero_extendqisi2
 106 001c 02F00E02 		and	r2, r2, #14
 107 0020 D2B2     		uxtb	r2, r2
 108 0022 0A43     		orrs	r2, r2, r1
 109 0024 D2B2     		uxtb	r2, r2
 110 0026 D2B2     		uxtb	r2, r2
 111 0028 1A70     		strb	r2, [r3]
  72:.\Generated_Source\PSoC5/Pin_1.c **** 	CyPins_SetPinDriveMode(Pin_1_1, mode);
 112              		.loc 1 72 0
 113 002a 0B4B     		ldr	r3, .L5+4
 114 002c 0A4A     		ldr	r2, .L5+4
 115 002e 1278     		ldrb	r2, [r2]
 116 0030 D2B2     		uxtb	r2, r2
 117 0032 D2B2     		uxtb	r2, r2
 118 0034 22F00E02 		bic	r2, r2, #14
 119 0038 D1B2     		uxtb	r1, r2
 120 003a FA79     		ldrb	r2, [r7, #7]	@ zero_extendqisi2
 121 003c 02F00E02 		and	r2, r2, #14
 122 0040 D2B2     		uxtb	r2, r2
 123 0042 0A43     		orrs	r2, r2, r1
 124 0044 D2B2     		uxtb	r2, r2
 125 0046 D2B2     		uxtb	r2, r2
 126 0048 1A70     		strb	r2, [r3]
  73:.\Generated_Source\PSoC5/Pin_1.c **** }
 127              		.loc 1 73 0
 128 004a 0C37     		adds	r7, r7, #12
 129              		.cfi_def_cfa_offset 4
 130 004c BD46     		mov	sp, r7
 131              		.cfi_def_cfa_register 13
 132              		@ sp needed
 133 004e 5DF8047B 		ldr	r7, [sp], #4
 134              		.cfi_restore 7
 135              		.cfi_def_cfa_offset 0
 136 0052 7047     		bx	lr
 137              	.L6:
 138              		.align	2
 139              	.L5:
 140 0054 64500040 		.word	1073762404
 141 0058 65500040 		.word	1073762405
 142              		.cfi_endproc
 143              	.LFE1:
 144              		.size	Pin_1_SetDriveMode, .-Pin_1_SetDriveMode
 145              		.section	.text.Pin_1_Read,"ax",%progbits
 146              		.align	2
 147              		.global	Pin_1_Read
 148              		.thumb
 149              		.thumb_func
 150              		.type	Pin_1_Read, %function
 151              	Pin_1_Read:
 152              	.LFB2:
  74:.\Generated_Source\PSoC5/Pin_1.c **** 
  75:.\Generated_Source\PSoC5/Pin_1.c **** 
  76:.\Generated_Source\PSoC5/Pin_1.c **** /*******************************************************************************
ARM GAS  C:\Users\Charlie\AppData\Local\Temp\ccHorJpd.s 			page 5


  77:.\Generated_Source\PSoC5/Pin_1.c **** * Function Name: Pin_1_Read
  78:.\Generated_Source\PSoC5/Pin_1.c **** ********************************************************************************
  79:.\Generated_Source\PSoC5/Pin_1.c **** *
  80:.\Generated_Source\PSoC5/Pin_1.c **** * Summary:
  81:.\Generated_Source\PSoC5/Pin_1.c **** *  Read the current value on the pins of the Digital Port in right justified 
  82:.\Generated_Source\PSoC5/Pin_1.c **** *  form.
  83:.\Generated_Source\PSoC5/Pin_1.c **** *
  84:.\Generated_Source\PSoC5/Pin_1.c **** * Parameters:  
  85:.\Generated_Source\PSoC5/Pin_1.c **** *  None
  86:.\Generated_Source\PSoC5/Pin_1.c **** *
  87:.\Generated_Source\PSoC5/Pin_1.c **** * Return: 
  88:.\Generated_Source\PSoC5/Pin_1.c **** *  Returns the current value of the Digital Port as a right justified number
  89:.\Generated_Source\PSoC5/Pin_1.c **** *  
  90:.\Generated_Source\PSoC5/Pin_1.c **** * Note:
  91:.\Generated_Source\PSoC5/Pin_1.c **** *  Macro Pin_1_ReadPS calls this function. 
  92:.\Generated_Source\PSoC5/Pin_1.c **** *  
  93:.\Generated_Source\PSoC5/Pin_1.c **** *******************************************************************************/
  94:.\Generated_Source\PSoC5/Pin_1.c **** uint8 Pin_1_Read(void) 
  95:.\Generated_Source\PSoC5/Pin_1.c **** {
 153              		.loc 1 95 0
 154              		.cfi_startproc
 155              		@ args = 0, pretend = 0, frame = 0
 156              		@ frame_needed = 1, uses_anonymous_args = 0
 157              		@ link register save eliminated.
 158 0000 80B4     		push	{r7}
 159              		.cfi_def_cfa_offset 4
 160              		.cfi_offset 7, -4
 161 0002 00AF     		add	r7, sp, #0
 162              		.cfi_def_cfa_register 7
  96:.\Generated_Source\PSoC5/Pin_1.c ****     return (Pin_1_PS & Pin_1_MASK) >> Pin_1_SHIFT;
 163              		.loc 1 96 0
 164 0004 054B     		ldr	r3, .L9
 165 0006 1B78     		ldrb	r3, [r3]
 166 0008 DBB2     		uxtb	r3, r3
 167 000a 03F03003 		and	r3, r3, #48
 168 000e 1B09     		lsrs	r3, r3, #4
 169 0010 DBB2     		uxtb	r3, r3
  97:.\Generated_Source\PSoC5/Pin_1.c **** }
 170              		.loc 1 97 0
 171 0012 1846     		mov	r0, r3
 172 0014 BD46     		mov	sp, r7
 173              		.cfi_def_cfa_register 13
 174              		@ sp needed
 175 0016 5DF8047B 		ldr	r7, [sp], #4
 176              		.cfi_restore 7
 177              		.cfi_def_cfa_offset 0
 178 001a 7047     		bx	lr
 179              	.L10:
 180              		.align	2
 181              	.L9:
 182 001c C1510040 		.word	1073762753
 183              		.cfi_endproc
 184              	.LFE2:
 185              		.size	Pin_1_Read, .-Pin_1_Read
 186              		.section	.text.Pin_1_ReadDataReg,"ax",%progbits
 187              		.align	2
 188              		.global	Pin_1_ReadDataReg
ARM GAS  C:\Users\Charlie\AppData\Local\Temp\ccHorJpd.s 			page 6


 189              		.thumb
 190              		.thumb_func
 191              		.type	Pin_1_ReadDataReg, %function
 192              	Pin_1_ReadDataReg:
 193              	.LFB3:
  98:.\Generated_Source\PSoC5/Pin_1.c **** 
  99:.\Generated_Source\PSoC5/Pin_1.c **** 
 100:.\Generated_Source\PSoC5/Pin_1.c **** /*******************************************************************************
 101:.\Generated_Source\PSoC5/Pin_1.c **** * Function Name: Pin_1_ReadDataReg
 102:.\Generated_Source\PSoC5/Pin_1.c **** ********************************************************************************
 103:.\Generated_Source\PSoC5/Pin_1.c **** *
 104:.\Generated_Source\PSoC5/Pin_1.c **** * Summary:
 105:.\Generated_Source\PSoC5/Pin_1.c **** *  Read the current value assigned to a Digital Port's data output register
 106:.\Generated_Source\PSoC5/Pin_1.c **** *
 107:.\Generated_Source\PSoC5/Pin_1.c **** * Parameters:  
 108:.\Generated_Source\PSoC5/Pin_1.c **** *  None 
 109:.\Generated_Source\PSoC5/Pin_1.c **** *
 110:.\Generated_Source\PSoC5/Pin_1.c **** * Return: 
 111:.\Generated_Source\PSoC5/Pin_1.c **** *  Returns the current value assigned to the Digital Port's data output register
 112:.\Generated_Source\PSoC5/Pin_1.c **** *  
 113:.\Generated_Source\PSoC5/Pin_1.c **** *******************************************************************************/
 114:.\Generated_Source\PSoC5/Pin_1.c **** uint8 Pin_1_ReadDataReg(void) 
 115:.\Generated_Source\PSoC5/Pin_1.c **** {
 194              		.loc 1 115 0
 195              		.cfi_startproc
 196              		@ args = 0, pretend = 0, frame = 0
 197              		@ frame_needed = 1, uses_anonymous_args = 0
 198              		@ link register save eliminated.
 199 0000 80B4     		push	{r7}
 200              		.cfi_def_cfa_offset 4
 201              		.cfi_offset 7, -4
 202 0002 00AF     		add	r7, sp, #0
 203              		.cfi_def_cfa_register 7
 116:.\Generated_Source\PSoC5/Pin_1.c ****     return (Pin_1_DR & Pin_1_MASK) >> Pin_1_SHIFT;
 204              		.loc 1 116 0
 205 0004 054B     		ldr	r3, .L13
 206 0006 1B78     		ldrb	r3, [r3]
 207 0008 DBB2     		uxtb	r3, r3
 208 000a 03F03003 		and	r3, r3, #48
 209 000e 1B09     		lsrs	r3, r3, #4
 210 0010 DBB2     		uxtb	r3, r3
 117:.\Generated_Source\PSoC5/Pin_1.c **** }
 211              		.loc 1 117 0
 212 0012 1846     		mov	r0, r3
 213 0014 BD46     		mov	sp, r7
 214              		.cfi_def_cfa_register 13
 215              		@ sp needed
 216 0016 5DF8047B 		ldr	r7, [sp], #4
 217              		.cfi_restore 7
 218              		.cfi_def_cfa_offset 0
 219 001a 7047     		bx	lr
 220              	.L14:
 221              		.align	2
 222              	.L13:
 223 001c C0510040 		.word	1073762752
 224              		.cfi_endproc
 225              	.LFE3:
ARM GAS  C:\Users\Charlie\AppData\Local\Temp\ccHorJpd.s 			page 7


 226              		.size	Pin_1_ReadDataReg, .-Pin_1_ReadDataReg
 227              		.text
 228              	.Letext0:
 229              		.file 2 ".\\Generated_Source\\PSoC5\\cytypes.h"