ARM GAS  C:\Users\Charlie\AppData\Local\Temp\ccHLrwpJ.s 			page 1


   1              		.syntax unified
   2              		.cpu cortex-m3
   3              		.fpu softvfp
   4              		.eabi_attribute 20, 1
   5              		.eabi_attribute 21, 1
   6              		.eabi_attribute 23, 3
   7              		.eabi_attribute 24, 1
   8              		.eabi_attribute 25, 1
   9              		.eabi_attribute 26, 1
  10              		.eabi_attribute 30, 6
  11              		.eabi_attribute 34, 1
  12              		.eabi_attribute 18, 4
  13              		.thumb
  14              		.file	"ADC_DelSig_1.c"
  15              		.text
  16              	.Ltext0:
  17              		.cfi_sections	.debug_frame
  18              		.global	ADC_DelSig_1_convDone
  19              		.bss
  20              		.type	ADC_DelSig_1_convDone, %object
  21              		.size	ADC_DelSig_1_convDone, 1
  22              	ADC_DelSig_1_convDone:
  23 0000 00       		.space	1
  24              		.global	ADC_DelSig_1_stopConversion
  25              		.type	ADC_DelSig_1_stopConversion, %object
  26              		.size	ADC_DelSig_1_stopConversion, 1
  27              	ADC_DelSig_1_stopConversion:
  28 0001 00       		.space	1
  29              		.global	ADC_DelSig_1_initVar
  30              		.type	ADC_DelSig_1_initVar, %object
  31              		.size	ADC_DelSig_1_initVar, 1
  32              	ADC_DelSig_1_initVar:
  33 0002 00       		.space	1
  34              		.global	ADC_DelSig_1_started
  35              		.type	ADC_DelSig_1_started, %object
  36              		.size	ADC_DelSig_1_started, 1
  37              	ADC_DelSig_1_started:
  38 0003 00       		.space	1
  39              		.global	ADC_DelSig_1_Config
  40              		.data
  41              		.type	ADC_DelSig_1_Config, %object
  42              		.size	ADC_DelSig_1_Config, 1
  43              	ADC_DelSig_1_Config:
  44 0000 01       		.byte	1
  45              		.comm	ADC_DelSig_1_Offset,4,4
  46              		.comm	ADC_DelSig_1_CountsPerVolt,4,4
  47              		.bss
  48              		.align	2
  49              	ADC_DelSig_1_gcor:
  50 0004 00000000 		.space	16
  50      00000000 
  50      00000000 
  50      00000000 
  51              		.section	.text.ADC_DelSig_1_Init,"ax",%progbits
  52              		.align	2
  53              		.global	ADC_DelSig_1_Init
  54              		.thumb
ARM GAS  C:\Users\Charlie\AppData\Local\Temp\ccHLrwpJ.s 			page 2


  55              		.thumb_func
  56              		.type	ADC_DelSig_1_Init, %function
  57              	ADC_DelSig_1_Init:
  58              	.LFB0:
  59              		.file 1 ".\\Generated_Source\\PSoC5\\ADC_DelSig_1.c"
   1:.\Generated_Source\PSoC5/ADC_DelSig_1.c **** /*******************************************************************************
   2:.\Generated_Source\PSoC5/ADC_DelSig_1.c **** * File Name: ADC_DelSig_1.c
   3:.\Generated_Source\PSoC5/ADC_DelSig_1.c **** * Version 3.20
   4:.\Generated_Source\PSoC5/ADC_DelSig_1.c **** *
   5:.\Generated_Source\PSoC5/ADC_DelSig_1.c **** * Description:
   6:.\Generated_Source\PSoC5/ADC_DelSig_1.c **** *  This file provides the source code to the API for the Delta-Sigma ADC
   7:.\Generated_Source\PSoC5/ADC_DelSig_1.c **** *  Component.
   8:.\Generated_Source\PSoC5/ADC_DelSig_1.c **** *
   9:.\Generated_Source\PSoC5/ADC_DelSig_1.c **** * Note:
  10:.\Generated_Source\PSoC5/ADC_DelSig_1.c **** *
  11:.\Generated_Source\PSoC5/ADC_DelSig_1.c **** ********************************************************************************
  12:.\Generated_Source\PSoC5/ADC_DelSig_1.c **** * Copyright 2008-2015, Cypress Semiconductor Corporation.  All rights reserved.
  13:.\Generated_Source\PSoC5/ADC_DelSig_1.c **** * You may use this file only in accordance with the license, terms, conditions,
  14:.\Generated_Source\PSoC5/ADC_DelSig_1.c **** * disclaimers, and limitations in the end user license agreement accompanying
  15:.\Generated_Source\PSoC5/ADC_DelSig_1.c **** * the software package with which this file was provided.
  16:.\Generated_Source\PSoC5/ADC_DelSig_1.c **** *******************************************************************************/
  17:.\Generated_Source\PSoC5/ADC_DelSig_1.c **** 
  18:.\Generated_Source\PSoC5/ADC_DelSig_1.c **** #include "ADC_DelSig_1.h"
  19:.\Generated_Source\PSoC5/ADC_DelSig_1.c **** 
  20:.\Generated_Source\PSoC5/ADC_DelSig_1.c **** #if(ADC_DelSig_1_DEFAULT_INTERNAL_CLK)
  21:.\Generated_Source\PSoC5/ADC_DelSig_1.c ****     #include "ADC_DelSig_1_theACLK.h"
  22:.\Generated_Source\PSoC5/ADC_DelSig_1.c **** #endif /* ADC_DelSig_1_DEFAULT_INTERNAL_CLK */
  23:.\Generated_Source\PSoC5/ADC_DelSig_1.c **** 
  24:.\Generated_Source\PSoC5/ADC_DelSig_1.c **** #include "ADC_DelSig_1_Ext_CP_Clk.h"
  25:.\Generated_Source\PSoC5/ADC_DelSig_1.c **** 
  26:.\Generated_Source\PSoC5/ADC_DelSig_1.c **** #if(ADC_DelSig_1_DEFAULT_INPUT_MODE)
  27:.\Generated_Source\PSoC5/ADC_DelSig_1.c ****     #include "ADC_DelSig_1_AMux.h"
  28:.\Generated_Source\PSoC5/ADC_DelSig_1.c **** #endif /* ADC_DelSig_1_DEFAULT_INPUT_MODE */
  29:.\Generated_Source\PSoC5/ADC_DelSig_1.c **** 
  30:.\Generated_Source\PSoC5/ADC_DelSig_1.c **** 
  31:.\Generated_Source\PSoC5/ADC_DelSig_1.c **** /***************************************
  32:.\Generated_Source\PSoC5/ADC_DelSig_1.c **** * Global data allocation
  33:.\Generated_Source\PSoC5/ADC_DelSig_1.c **** ***************************************/
  34:.\Generated_Source\PSoC5/ADC_DelSig_1.c **** 
  35:.\Generated_Source\PSoC5/ADC_DelSig_1.c **** /* Software flag for checking conversion completed or not */
  36:.\Generated_Source\PSoC5/ADC_DelSig_1.c **** volatile uint8 ADC_DelSig_1_convDone = 0u;
  37:.\Generated_Source\PSoC5/ADC_DelSig_1.c **** 
  38:.\Generated_Source\PSoC5/ADC_DelSig_1.c **** /* Software flag to stop conversion for single sample conversion mode
  39:.\Generated_Source\PSoC5/ADC_DelSig_1.c **** *   with resolution above 16 bits 
  40:.\Generated_Source\PSoC5/ADC_DelSig_1.c **** */
  41:.\Generated_Source\PSoC5/ADC_DelSig_1.c **** volatile uint8 ADC_DelSig_1_stopConversion = 0u;
  42:.\Generated_Source\PSoC5/ADC_DelSig_1.c **** 
  43:.\Generated_Source\PSoC5/ADC_DelSig_1.c **** /* To run the initialization block only at the start up */
  44:.\Generated_Source\PSoC5/ADC_DelSig_1.c **** uint8 ADC_DelSig_1_initVar = 0u;
  45:.\Generated_Source\PSoC5/ADC_DelSig_1.c **** 
  46:.\Generated_Source\PSoC5/ADC_DelSig_1.c **** /* To check whether ADC started or not before switching the configuration */
  47:.\Generated_Source\PSoC5/ADC_DelSig_1.c **** volatile uint8 ADC_DelSig_1_started = 0u;
  48:.\Generated_Source\PSoC5/ADC_DelSig_1.c **** 
  49:.\Generated_Source\PSoC5/ADC_DelSig_1.c **** /* Flag to hold ADC config number. By default active config is 1. */
  50:.\Generated_Source\PSoC5/ADC_DelSig_1.c **** volatile uint8 ADC_DelSig_1_Config = 1u;
  51:.\Generated_Source\PSoC5/ADC_DelSig_1.c **** 
  52:.\Generated_Source\PSoC5/ADC_DelSig_1.c **** volatile int32 ADC_DelSig_1_Offset;
ARM GAS  C:\Users\Charlie\AppData\Local\Temp\ccHLrwpJ.s 			page 3


  53:.\Generated_Source\PSoC5/ADC_DelSig_1.c **** volatile int32 ADC_DelSig_1_CountsPerVolt;
  54:.\Generated_Source\PSoC5/ADC_DelSig_1.c **** 
  55:.\Generated_Source\PSoC5/ADC_DelSig_1.c **** 
  56:.\Generated_Source\PSoC5/ADC_DelSig_1.c **** /***************************************
  57:.\Generated_Source\PSoC5/ADC_DelSig_1.c **** * Local data allocation
  58:.\Generated_Source\PSoC5/ADC_DelSig_1.c **** ***************************************/
  59:.\Generated_Source\PSoC5/ADC_DelSig_1.c **** 
  60:.\Generated_Source\PSoC5/ADC_DelSig_1.c **** /* The array with precalculated gain compensation coefficients */
  61:.\Generated_Source\PSoC5/ADC_DelSig_1.c **** static ADC_DelSig_1_GCOR_STRUCT ADC_DelSig_1_gcor[ADC_DelSig_1_DEFAULT_NUM_CONFIGS];
  62:.\Generated_Source\PSoC5/ADC_DelSig_1.c **** 
  63:.\Generated_Source\PSoC5/ADC_DelSig_1.c **** 
  64:.\Generated_Source\PSoC5/ADC_DelSig_1.c **** 
  65:.\Generated_Source\PSoC5/ADC_DelSig_1.c **** /***************************************
  66:.\Generated_Source\PSoC5/ADC_DelSig_1.c **** * Forward function references
  67:.\Generated_Source\PSoC5/ADC_DelSig_1.c **** ***************************************/
  68:.\Generated_Source\PSoC5/ADC_DelSig_1.c **** static void ADC_DelSig_1_InitConfig(uint8 config) ;
  69:.\Generated_Source\PSoC5/ADC_DelSig_1.c **** static void ADC_DelSig_1_GainCompensation(uint8 inputRange, uint16 idealDecGain, uint16 idealOddDec
  70:.\Generated_Source\PSoC5/ADC_DelSig_1.c ****                             uint8 resolution, uint8 config) ;
  71:.\Generated_Source\PSoC5/ADC_DelSig_1.c **** static void ADC_DelSig_1_SetDSMRef0Reg(uint8 value) ;
  72:.\Generated_Source\PSoC5/ADC_DelSig_1.c **** 
  73:.\Generated_Source\PSoC5/ADC_DelSig_1.c **** 
  74:.\Generated_Source\PSoC5/ADC_DelSig_1.c **** /******************************************************************************
  75:.\Generated_Source\PSoC5/ADC_DelSig_1.c **** * Function Name: ADC_DelSig_1_Init
  76:.\Generated_Source\PSoC5/ADC_DelSig_1.c **** *******************************************************************************
  77:.\Generated_Source\PSoC5/ADC_DelSig_1.c **** *
  78:.\Generated_Source\PSoC5/ADC_DelSig_1.c **** * Summary:
  79:.\Generated_Source\PSoC5/ADC_DelSig_1.c **** *  Initialize component's parameters to the parameters set by user in the
  80:.\Generated_Source\PSoC5/ADC_DelSig_1.c **** *  customizer of the component placed onto schematic. Usually called in
  81:.\Generated_Source\PSoC5/ADC_DelSig_1.c **** * ADC_DelSig_1_Start().
  82:.\Generated_Source\PSoC5/ADC_DelSig_1.c **** *
  83:.\Generated_Source\PSoC5/ADC_DelSig_1.c **** *
  84:.\Generated_Source\PSoC5/ADC_DelSig_1.c **** * Parameters:
  85:.\Generated_Source\PSoC5/ADC_DelSig_1.c **** *  None
  86:.\Generated_Source\PSoC5/ADC_DelSig_1.c **** *
  87:.\Generated_Source\PSoC5/ADC_DelSig_1.c **** * Return:
  88:.\Generated_Source\PSoC5/ADC_DelSig_1.c **** *  None
  89:.\Generated_Source\PSoC5/ADC_DelSig_1.c **** *
  90:.\Generated_Source\PSoC5/ADC_DelSig_1.c **** *******************************************************************************/
  91:.\Generated_Source\PSoC5/ADC_DelSig_1.c **** void ADC_DelSig_1_Init(void) 
  92:.\Generated_Source\PSoC5/ADC_DelSig_1.c **** {
  60              		.loc 1 92 0
  61              		.cfi_startproc
  62              		@ args = 0, pretend = 0, frame = 0
  63              		@ frame_needed = 1, uses_anonymous_args = 0
  64 0000 80B5     		push	{r7, lr}
  65              		.cfi_def_cfa_offset 8
  66              		.cfi_offset 7, -8
  67              		.cfi_offset 14, -4
  68 0002 82B0     		sub	sp, sp, #8
  69              		.cfi_def_cfa_offset 16
  70 0004 02AF     		add	r7, sp, #8
  71              		.cfi_def_cfa 7, 8
  93:.\Generated_Source\PSoC5/ADC_DelSig_1.c **** 
  94:.\Generated_Source\PSoC5/ADC_DelSig_1.c ****     ADC_DelSig_1_Config = 1u;
  72              		.loc 1 94 0
  73 0006 414B     		ldr	r3, .L2
  74 0008 0122     		movs	r2, #1
ARM GAS  C:\Users\Charlie\AppData\Local\Temp\ccHLrwpJ.s 			page 4


  75 000a 1A70     		strb	r2, [r3]
  95:.\Generated_Source\PSoC5/ADC_DelSig_1.c ****     ADC_DelSig_1_convDone = 0u;
  76              		.loc 1 95 0
  77 000c 404B     		ldr	r3, .L2+4
  78 000e 0022     		movs	r2, #0
  79 0010 1A70     		strb	r2, [r3]
  96:.\Generated_Source\PSoC5/ADC_DelSig_1.c **** 
  97:.\Generated_Source\PSoC5/ADC_DelSig_1.c ****     ADC_DelSig_1_Ext_CP_Clk_SetMode(CYCLK_DUTY);
  80              		.loc 1 97 0
  81 0012 1020     		movs	r0, #16
  82 0014 FFF7FEFF 		bl	ADC_DelSig_1_Ext_CP_Clk_SetModeRegister
  98:.\Generated_Source\PSoC5/ADC_DelSig_1.c **** 
  99:.\Generated_Source\PSoC5/ADC_DelSig_1.c ****     /* This is only valid if there is an internal clock */
 100:.\Generated_Source\PSoC5/ADC_DelSig_1.c ****     #if(ADC_DelSig_1_DEFAULT_INTERNAL_CLK)
 101:.\Generated_Source\PSoC5/ADC_DelSig_1.c ****         ADC_DelSig_1_theACLK_SetMode(CYCLK_DUTY);
  83              		.loc 1 101 0
  84 0018 1020     		movs	r0, #16
  85 001a FFF7FEFF 		bl	ADC_DelSig_1_theACLK_SetModeRegister
 102:.\Generated_Source\PSoC5/ADC_DelSig_1.c ****     #endif /* ADC_DelSig_1_DEFAULT_INTERNAL_CLK */
 103:.\Generated_Source\PSoC5/ADC_DelSig_1.c **** 
 104:.\Generated_Source\PSoC5/ADC_DelSig_1.c ****     #if(ADC_DelSig_1_IRQ_REMOVE == 0u)
 105:.\Generated_Source\PSoC5/ADC_DelSig_1.c ****         /* Set interrupt priority */
 106:.\Generated_Source\PSoC5/ADC_DelSig_1.c ****         CyIntSetPriority(ADC_DelSig_1_INTC_NUMBER, ADC_DelSig_1_INTC_PRIOR_NUMBER);
  86              		.loc 1 106 0
  87 001e 1D20     		movs	r0, #29
  88 0020 0721     		movs	r1, #7
  89 0022 FFF7FEFF 		bl	CyIntSetPriority
 107:.\Generated_Source\PSoC5/ADC_DelSig_1.c ****     #endif   /* End ADC_DelSig_1_IRQ_REMOVE */
 108:.\Generated_Source\PSoC5/ADC_DelSig_1.c **** 
 109:.\Generated_Source\PSoC5/ADC_DelSig_1.c ****     /* Init static registers with common configuration */
 110:.\Generated_Source\PSoC5/ADC_DelSig_1.c ****     ADC_DelSig_1_DSM_DEM0_REG    = ADC_DelSig_1_CFG1_DSM_DEM0;
  90              		.loc 1 110 0
  91 0026 3B4B     		ldr	r3, .L2+8
  92 0028 0422     		movs	r2, #4
  93 002a 1A70     		strb	r2, [r3]
 111:.\Generated_Source\PSoC5/ADC_DelSig_1.c ****     ADC_DelSig_1_DSM_DEM1_REG    = ADC_DelSig_1_CFG1_DSM_DEM1;
  94              		.loc 1 111 0
  95 002c 3A4B     		ldr	r3, .L2+12
  96 002e 0022     		movs	r2, #0
  97 0030 1A70     		strb	r2, [r3]
 112:.\Generated_Source\PSoC5/ADC_DelSig_1.c ****     ADC_DelSig_1_DSM_MISC_REG    = ADC_DelSig_1_CFG1_DSM_MISC;
  98              		.loc 1 112 0
  99 0032 3A4B     		ldr	r3, .L2+16
 100 0034 0022     		movs	r2, #0
 101 0036 1A70     		strb	r2, [r3]
 113:.\Generated_Source\PSoC5/ADC_DelSig_1.c ****     ADC_DelSig_1_DSM_CLK_REG    |= ADC_DelSig_1_CFG1_DSM_CLK;
 102              		.loc 1 113 0
 103 0038 394B     		ldr	r3, .L2+20
 104 003a 394A     		ldr	r2, .L2+20
 105 003c 1278     		ldrb	r2, [r2]
 106 003e D2B2     		uxtb	r2, r2
 107 0040 42F01802 		orr	r2, r2, #24
 108 0044 D2B2     		uxtb	r2, r2
 109 0046 1A70     		strb	r2, [r3]
 114:.\Generated_Source\PSoC5/ADC_DelSig_1.c ****     ADC_DelSig_1_DSM_REF1_REG    = ADC_DelSig_1_CFG1_DSM_REF1;
 110              		.loc 1 114 0
 111 0048 364B     		ldr	r3, .L2+24
ARM GAS  C:\Users\Charlie\AppData\Local\Temp\ccHLrwpJ.s 			page 5


 112 004a 0022     		movs	r2, #0
 113 004c 1A70     		strb	r2, [r3]
 115:.\Generated_Source\PSoC5/ADC_DelSig_1.c **** 
 116:.\Generated_Source\PSoC5/ADC_DelSig_1.c ****     ADC_DelSig_1_DSM_OUT0_REG    = ADC_DelSig_1_CFG1_DSM_OUT0;
 114              		.loc 1 116 0
 115 004e 364B     		ldr	r3, .L2+28
 116 0050 0022     		movs	r2, #0
 117 0052 1A70     		strb	r2, [r3]
 117:.\Generated_Source\PSoC5/ADC_DelSig_1.c ****     ADC_DelSig_1_DSM_OUT1_REG    = ADC_DelSig_1_CFG1_DSM_OUT1;
 118              		.loc 1 117 0
 119 0054 354B     		ldr	r3, .L2+32
 120 0056 0022     		movs	r2, #0
 121 0058 1A70     		strb	r2, [r3]
 118:.\Generated_Source\PSoC5/ADC_DelSig_1.c **** 
 119:.\Generated_Source\PSoC5/ADC_DelSig_1.c ****     ADC_DelSig_1_DSM_CR0_REG     = ADC_DelSig_1_CFG1_DSM_CR0;
 122              		.loc 1 119 0
 123 005a 354B     		ldr	r3, .L2+36
 124 005c 0A22     		movs	r2, #10
 125 005e 1A70     		strb	r2, [r3]
 120:.\Generated_Source\PSoC5/ADC_DelSig_1.c ****     ADC_DelSig_1_DSM_CR1_REG     = ADC_DelSig_1_CFG1_DSM_CR1;
 126              		.loc 1 120 0
 127 0060 344B     		ldr	r3, .L2+40
 128 0062 0022     		movs	r2, #0
 129 0064 1A70     		strb	r2, [r3]
 121:.\Generated_Source\PSoC5/ADC_DelSig_1.c **** #if(ADC_DelSig_1_MI_ENABLE != 0u) /* Enable Modulator Input */
 122:.\Generated_Source\PSoC5/ADC_DelSig_1.c ****     ADC_DelSig_1_DSM_CR3_REG     |= ADC_DelSig_1_DSM_MODBIT_EN;
 123:.\Generated_Source\PSoC5/ADC_DelSig_1.c **** #else
 124:.\Generated_Source\PSoC5/ADC_DelSig_1.c ****     ADC_DelSig_1_DSM_CR3_REG     = ADC_DelSig_1_CFG1_DSM_CR3;
 130              		.loc 1 124 0
 131 0066 344B     		ldr	r3, .L2+44
 132 0068 0022     		movs	r2, #0
 133 006a 1A70     		strb	r2, [r3]
 125:.\Generated_Source\PSoC5/ADC_DelSig_1.c **** #endif /* ADC_DelSig_1_MI_ENABLE != 0u*/    
 126:.\Generated_Source\PSoC5/ADC_DelSig_1.c ****     ADC_DelSig_1_DSM_CR8_REG     = ADC_DelSig_1_CFG1_DSM_CR8;
 134              		.loc 1 126 0
 135 006c 334B     		ldr	r3, .L2+48
 136 006e 1222     		movs	r2, #18
 137 0070 1A70     		strb	r2, [r3]
 127:.\Generated_Source\PSoC5/ADC_DelSig_1.c ****     ADC_DelSig_1_DSM_CR9_REG     = ADC_DelSig_1_CFG1_DSM_CR9;
 138              		.loc 1 127 0
 139 0072 334B     		ldr	r3, .L2+52
 140 0074 1322     		movs	r2, #19
 141 0076 1A70     		strb	r2, [r3]
 128:.\Generated_Source\PSoC5/ADC_DelSig_1.c ****     ADC_DelSig_1_DSM_CR13_REG    = ADC_DelSig_1_CFG1_DSM_CR13;
 142              		.loc 1 128 0
 143 0078 324B     		ldr	r3, .L2+56
 144 007a 0022     		movs	r2, #0
 145 007c 1A70     		strb	r2, [r3]
 129:.\Generated_Source\PSoC5/ADC_DelSig_1.c **** 
 130:.\Generated_Source\PSoC5/ADC_DelSig_1.c ****     ADC_DelSig_1_DEC_SR_REG      = ADC_DelSig_1_CFG1_DEC_SR;
 146              		.loc 1 130 0
 147 007e 324B     		ldr	r3, .L2+60
 148 0080 1422     		movs	r2, #20
 149 0082 1A70     		strb	r2, [r3]
 131:.\Generated_Source\PSoC5/ADC_DelSig_1.c **** 
 132:.\Generated_Source\PSoC5/ADC_DelSig_1.c ****     /* Calculate Gain compensation coefficients for all configurations */
 133:.\Generated_Source\PSoC5/ADC_DelSig_1.c ****     ADC_DelSig_1_GainCompensation(ADC_DelSig_1_CFG1_INPUT_RANGE,
ARM GAS  C:\Users\Charlie\AppData\Local\Temp\ccHLrwpJ.s 			page 6


 150              		.loc 1 133 0
 151 0084 0123     		movs	r3, #1
 152 0086 0093     		str	r3, [sp]
 153 0088 0320     		movs	r0, #3
 154 008a 4FF40041 		mov	r1, #32768
 155 008e 4FF40042 		mov	r2, #32768
 156 0092 0823     		movs	r3, #8
 157 0094 FFF7FEFF 		bl	ADC_DelSig_1_GainCompensation
 134:.\Generated_Source\PSoC5/ADC_DelSig_1.c ****                                       ADC_DelSig_1_CFG1_IDEAL_DEC_GAIN,
 135:.\Generated_Source\PSoC5/ADC_DelSig_1.c ****                                       ADC_DelSig_1_CFG1_IDEAL_ODDDEC_GAIN,
 136:.\Generated_Source\PSoC5/ADC_DelSig_1.c ****                                       ADC_DelSig_1_CFG1_RESOLUTION,
 137:.\Generated_Source\PSoC5/ADC_DelSig_1.c ****                                       ADC_DelSig_1_CFG1);
 138:.\Generated_Source\PSoC5/ADC_DelSig_1.c ****     #if(ADC_DelSig_1_DEFAULT_NUM_CONFIGS > 1)
 139:.\Generated_Source\PSoC5/ADC_DelSig_1.c ****         ADC_DelSig_1_GainCompensation(ADC_DelSig_1_CFG2_INPUT_RANGE,
 158              		.loc 1 139 0
 159 0098 0223     		movs	r3, #2
 160 009a 0093     		str	r3, [sp]
 161 009c 0020     		movs	r0, #0
 162 009e 49F2DA01 		movw	r1, #37082
 163 00a2 4FF40042 		mov	r2, #32768
 164 00a6 1023     		movs	r3, #16
 165 00a8 FFF7FEFF 		bl	ADC_DelSig_1_GainCompensation
 140:.\Generated_Source\PSoC5/ADC_DelSig_1.c ****                                           ADC_DelSig_1_CFG2_IDEAL_DEC_GAIN,
 141:.\Generated_Source\PSoC5/ADC_DelSig_1.c ****                                           ADC_DelSig_1_CFG2_IDEAL_ODDDEC_GAIN,
 142:.\Generated_Source\PSoC5/ADC_DelSig_1.c ****                                           ADC_DelSig_1_CFG2_RESOLUTION,
 143:.\Generated_Source\PSoC5/ADC_DelSig_1.c ****                                           ADC_DelSig_1_CFG2);
 144:.\Generated_Source\PSoC5/ADC_DelSig_1.c ****     #endif /* ADC_DelSig_1_DEFAULT_NUM_CONFIGS > 1 */
 145:.\Generated_Source\PSoC5/ADC_DelSig_1.c ****     #if(ADC_DelSig_1_DEFAULT_NUM_CONFIGS > 2)
 146:.\Generated_Source\PSoC5/ADC_DelSig_1.c ****         ADC_DelSig_1_GainCompensation(ADC_DelSig_1_CFG3_INPUT_RANGE,
 166              		.loc 1 146 0
 167 00ac 0323     		movs	r3, #3
 168 00ae 0093     		str	r3, [sp]
 169 00b0 0020     		movs	r0, #0
 170 00b2 49F2DA01 		movw	r1, #37082
 171 00b6 4FF40042 		mov	r2, #32768
 172 00ba 1023     		movs	r3, #16
 173 00bc FFF7FEFF 		bl	ADC_DelSig_1_GainCompensation
 147:.\Generated_Source\PSoC5/ADC_DelSig_1.c ****                                           ADC_DelSig_1_CFG3_IDEAL_DEC_GAIN,
 148:.\Generated_Source\PSoC5/ADC_DelSig_1.c ****                                           ADC_DelSig_1_CFG3_IDEAL_ODDDEC_GAIN,
 149:.\Generated_Source\PSoC5/ADC_DelSig_1.c ****                                           ADC_DelSig_1_CFG3_RESOLUTION,
 150:.\Generated_Source\PSoC5/ADC_DelSig_1.c ****                                           ADC_DelSig_1_CFG3);
 151:.\Generated_Source\PSoC5/ADC_DelSig_1.c ****     #endif /* ADC_DelSig_1_DEFAULT_NUM_CONFIGS > 2 */
 152:.\Generated_Source\PSoC5/ADC_DelSig_1.c ****     #if(ADC_DelSig_1_DEFAULT_NUM_CONFIGS > 3)
 153:.\Generated_Source\PSoC5/ADC_DelSig_1.c ****         ADC_DelSig_1_GainCompensation(ADC_DelSig_1_CFG4_INPUT_RANGE,
 174              		.loc 1 153 0
 175 00c0 0423     		movs	r3, #4
 176 00c2 0093     		str	r3, [sp]
 177 00c4 0020     		movs	r0, #0
 178 00c6 49F2DA01 		movw	r1, #37082
 179 00ca 4FF40042 		mov	r2, #32768
 180 00ce 1023     		movs	r3, #16
 181 00d0 FFF7FEFF 		bl	ADC_DelSig_1_GainCompensation
 154:.\Generated_Source\PSoC5/ADC_DelSig_1.c ****                                           ADC_DelSig_1_CFG4_IDEAL_DEC_GAIN,
 155:.\Generated_Source\PSoC5/ADC_DelSig_1.c ****                                           ADC_DelSig_1_CFG4_IDEAL_ODDDEC_GAIN,
 156:.\Generated_Source\PSoC5/ADC_DelSig_1.c ****                                           ADC_DelSig_1_CFG4_RESOLUTION,
 157:.\Generated_Source\PSoC5/ADC_DelSig_1.c ****                                           ADC_DelSig_1_CFG4);
 158:.\Generated_Source\PSoC5/ADC_DelSig_1.c ****     #endif /* ADC_DelSig_1_DEFAULT_NUM_CONFIGS > 3 */
ARM GAS  C:\Users\Charlie\AppData\Local\Temp\ccHLrwpJ.s 			page 7


 159:.\Generated_Source\PSoC5/ADC_DelSig_1.c **** 
 160:.\Generated_Source\PSoC5/ADC_DelSig_1.c ****     /* Set GCOR register for config1 */
 161:.\Generated_Source\PSoC5/ADC_DelSig_1.c ****     ADC_DelSig_1_DEC_GVAL_REG = ADC_DelSig_1_gcor[ADC_DelSig_1_Config - 1u].gval;
 182              		.loc 1 161 0
 183 00d4 1D4A     		ldr	r2, .L2+64
 184 00d6 0D4B     		ldr	r3, .L2
 185 00d8 1B78     		ldrb	r3, [r3]
 186 00da DBB2     		uxtb	r3, r3
 187 00dc 013B     		subs	r3, r3, #1
 188 00de 1C49     		ldr	r1, .L2+68
 189 00e0 9B00     		lsls	r3, r3, #2
 190 00e2 0B44     		add	r3, r3, r1
 191 00e4 9B78     		ldrb	r3, [r3, #2]	@ zero_extendqisi2
 192 00e6 1370     		strb	r3, [r2]
 162:.\Generated_Source\PSoC5/ADC_DelSig_1.c ****     CY_SET_REG16(ADC_DelSig_1_DEC_GCOR_16B_PTR, ADC_DelSig_1_gcor[ADC_DelSig_1_Config - 1u].gcor);
 193              		.loc 1 162 0
 194 00e8 1A4B     		ldr	r3, .L2+72
 195 00ea 084A     		ldr	r2, .L2
 196 00ec 1278     		ldrb	r2, [r2]
 197 00ee D2B2     		uxtb	r2, r2
 198 00f0 511E     		subs	r1, r2, #1
 199 00f2 174A     		ldr	r2, .L2+68
 200 00f4 32F82120 		ldrh	r2, [r2, r1, lsl #2]
 201 00f8 1A80     		strh	r2, [r3]	@ movhi
 163:.\Generated_Source\PSoC5/ADC_DelSig_1.c **** 
 164:.\Generated_Source\PSoC5/ADC_DelSig_1.c ****     /* Initialize the registers with default customizer settings for config1 */
 165:.\Generated_Source\PSoC5/ADC_DelSig_1.c ****     ADC_DelSig_1_InitConfig(ADC_DelSig_1_Config);
 202              		.loc 1 165 0
 203 00fa 044B     		ldr	r3, .L2
 204 00fc 1B78     		ldrb	r3, [r3]
 205 00fe DBB2     		uxtb	r3, r3
 206 0100 1846     		mov	r0, r3
 207 0102 FFF7FEFF 		bl	ADC_DelSig_1_InitConfig
 166:.\Generated_Source\PSoC5/ADC_DelSig_1.c **** }
 208              		.loc 1 166 0
 209 0106 BD46     		mov	sp, r7
 210              		@ sp needed
 211 0108 80BD     		pop	{r7, pc}
 212              	.L3:
 213 010a 00BF     		.align	2
 214              	.L2:
 215 010c 00000000 		.word	ADC_DelSig_1_Config
 216 0110 00000000 		.word	ADC_DelSig_1_convDone
 217 0114 96580040 		.word	1073764502
 218 0118 97580040 		.word	1073764503
 219 011c 9E580040 		.word	1073764510
 220 0120 075B0040 		.word	1073765127
 221 0124 93580040 		.word	1073764499
 222 0128 885B0040 		.word	1073765256
 223 012c 895B0040 		.word	1073765257
 224 0130 80580040 		.word	1073764480
 225 0134 81580040 		.word	1073764481
 226 0138 83580040 		.word	1073764483
 227 013c 88580040 		.word	1073764488
 228 0140 89580040 		.word	1073764489
 229 0144 8D580040 		.word	1073764493
 230 0148 014E0040 		.word	1073761793
ARM GAS  C:\Users\Charlie\AppData\Local\Temp\ccHLrwpJ.s 			page 8


 231 014c 0E4E0040 		.word	1073761806
 232 0150 04000000 		.word	ADC_DelSig_1_gcor
 233 0154 0C4E0040 		.word	1073761804
 234              		.cfi_endproc
 235              	.LFE0:
 236              		.size	ADC_DelSig_1_Init, .-ADC_DelSig_1_Init
 237              		.section	.text.ADC_DelSig_1_Enable,"ax",%progbits
 238              		.align	2
 239              		.global	ADC_DelSig_1_Enable
 240              		.thumb
 241              		.thumb_func
 242              		.type	ADC_DelSig_1_Enable, %function
 243              	ADC_DelSig_1_Enable:
 244              	.LFB1:
 167:.\Generated_Source\PSoC5/ADC_DelSig_1.c **** 
 168:.\Generated_Source\PSoC5/ADC_DelSig_1.c **** 
 169:.\Generated_Source\PSoC5/ADC_DelSig_1.c **** /******************************************************************************
 170:.\Generated_Source\PSoC5/ADC_DelSig_1.c **** * Function Name: ADC_DelSig_1_Enable
 171:.\Generated_Source\PSoC5/ADC_DelSig_1.c **** *******************************************************************************
 172:.\Generated_Source\PSoC5/ADC_DelSig_1.c **** *
 173:.\Generated_Source\PSoC5/ADC_DelSig_1.c **** * Summary:
 174:.\Generated_Source\PSoC5/ADC_DelSig_1.c **** *  Enables the ADC DelSig block operation.
 175:.\Generated_Source\PSoC5/ADC_DelSig_1.c **** *
 176:.\Generated_Source\PSoC5/ADC_DelSig_1.c **** *
 177:.\Generated_Source\PSoC5/ADC_DelSig_1.c **** * Parameters:
 178:.\Generated_Source\PSoC5/ADC_DelSig_1.c **** *  None
 179:.\Generated_Source\PSoC5/ADC_DelSig_1.c **** *
 180:.\Generated_Source\PSoC5/ADC_DelSig_1.c **** * Return:
 181:.\Generated_Source\PSoC5/ADC_DelSig_1.c **** *  None
 182:.\Generated_Source\PSoC5/ADC_DelSig_1.c **** *
 183:.\Generated_Source\PSoC5/ADC_DelSig_1.c **** *******************************************************************************/
 184:.\Generated_Source\PSoC5/ADC_DelSig_1.c **** void ADC_DelSig_1_Enable(void) 
 185:.\Generated_Source\PSoC5/ADC_DelSig_1.c **** {
 245              		.loc 1 185 0
 246              		.cfi_startproc
 247              		@ args = 0, pretend = 0, frame = 8
 248              		@ frame_needed = 1, uses_anonymous_args = 0
 249 0000 80B5     		push	{r7, lr}
 250              		.cfi_def_cfa_offset 8
 251              		.cfi_offset 7, -8
 252              		.cfi_offset 14, -4
 253 0002 82B0     		sub	sp, sp, #8
 254              		.cfi_def_cfa_offset 16
 255 0004 00AF     		add	r7, sp, #0
 256              		.cfi_def_cfa_register 7
 186:.\Generated_Source\PSoC5/ADC_DelSig_1.c **** 	uint8 config;
 187:.\Generated_Source\PSoC5/ADC_DelSig_1.c ****     uint8 enableInterrupts;
 188:.\Generated_Source\PSoC5/ADC_DelSig_1.c ****     enableInterrupts = CyEnterCriticalSection();
 257              		.loc 1 188 0
 258 0006 FFF7FEFF 		bl	CyEnterCriticalSection
 259 000a 0346     		mov	r3, r0
 260 000c FB71     		strb	r3, [r7, #7]
 189:.\Generated_Source\PSoC5/ADC_DelSig_1.c **** 
 190:.\Generated_Source\PSoC5/ADC_DelSig_1.c ****     /* Read volatile variable to the local variable */
 191:.\Generated_Source\PSoC5/ADC_DelSig_1.c ****     config = ADC_DelSig_1_Config;
 261              		.loc 1 191 0
 262 000e 444B     		ldr	r3, .L5
ARM GAS  C:\Users\Charlie\AppData\Local\Temp\ccHLrwpJ.s 			page 9


 263 0010 1B78     		ldrb	r3, [r3]
 264 0012 BB71     		strb	r3, [r7, #6]
 192:.\Generated_Source\PSoC5/ADC_DelSig_1.c ****     
 193:.\Generated_Source\PSoC5/ADC_DelSig_1.c ****     /* Enable active mode power for ADC */
 194:.\Generated_Source\PSoC5/ADC_DelSig_1.c ****     ADC_DelSig_1_PWRMGR_DEC_REG |= ADC_DelSig_1_ACT_PWR_DEC_EN;
 265              		.loc 1 194 0
 266 0014 434B     		ldr	r3, .L5+4
 267 0016 434A     		ldr	r2, .L5+4
 268 0018 1278     		ldrb	r2, [r2]
 269 001a D2B2     		uxtb	r2, r2
 270 001c 42F00102 		orr	r2, r2, #1
 271 0020 D2B2     		uxtb	r2, r2
 272 0022 1A70     		strb	r2, [r3]
 195:.\Generated_Source\PSoC5/ADC_DelSig_1.c ****     ADC_DelSig_1_PWRMGR_DSM_REG |= ADC_DelSig_1_ACT_PWR_DSM_EN;
 273              		.loc 1 195 0
 274 0024 3F4B     		ldr	r3, .L5+4
 275 0026 3F4A     		ldr	r2, .L5+4
 276 0028 1278     		ldrb	r2, [r2]
 277 002a D2B2     		uxtb	r2, r2
 278 002c 42F01002 		orr	r2, r2, #16
 279 0030 D2B2     		uxtb	r2, r2
 280 0032 1A70     		strb	r2, [r3]
 196:.\Generated_Source\PSoC5/ADC_DelSig_1.c **** 
 197:.\Generated_Source\PSoC5/ADC_DelSig_1.c ****      /* Enable alternative active mode power for ADC */
 198:.\Generated_Source\PSoC5/ADC_DelSig_1.c ****     ADC_DelSig_1_STBY_PWRMGR_DEC_REG |= ADC_DelSig_1_STBY_PWR_DEC_EN;
 281              		.loc 1 198 0
 282 0034 3C4B     		ldr	r3, .L5+8
 283 0036 3C4A     		ldr	r2, .L5+8
 284 0038 1278     		ldrb	r2, [r2]
 285 003a D2B2     		uxtb	r2, r2
 286 003c 42F00102 		orr	r2, r2, #1
 287 0040 D2B2     		uxtb	r2, r2
 288 0042 1A70     		strb	r2, [r3]
 199:.\Generated_Source\PSoC5/ADC_DelSig_1.c ****     ADC_DelSig_1_STBY_PWRMGR_DSM_REG |= ADC_DelSig_1_STBY_PWR_DSM_EN;
 289              		.loc 1 199 0
 290 0044 384B     		ldr	r3, .L5+8
 291 0046 384A     		ldr	r2, .L5+8
 292 0048 1278     		ldrb	r2, [r2]
 293 004a D2B2     		uxtb	r2, r2
 294 004c 42F01002 		orr	r2, r2, #16
 295 0050 D2B2     		uxtb	r2, r2
 296 0052 1A70     		strb	r2, [r3]
 200:.\Generated_Source\PSoC5/ADC_DelSig_1.c **** 
 201:.\Generated_Source\PSoC5/ADC_DelSig_1.c ****     /* Disable PRES, Enable power to VCMBUF0, REFBUF0 and REFBUF1, enable PRES */
 202:.\Generated_Source\PSoC5/ADC_DelSig_1.c ****     ADC_DelSig_1_RESET_CR4_REG |= ADC_DelSig_1_IGNORE_PRESA1;
 297              		.loc 1 202 0
 298 0054 354B     		ldr	r3, .L5+12
 299 0056 354A     		ldr	r2, .L5+12
 300 0058 1278     		ldrb	r2, [r2]
 301 005a D2B2     		uxtb	r2, r2
 302 005c 42F00202 		orr	r2, r2, #2
 303 0060 D2B2     		uxtb	r2, r2
 304 0062 1A70     		strb	r2, [r3]
 203:.\Generated_Source\PSoC5/ADC_DelSig_1.c ****     ADC_DelSig_1_RESET_CR5_REG |= ADC_DelSig_1_IGNORE_PRESA2;
 305              		.loc 1 203 0
 306 0064 324B     		ldr	r3, .L5+16
 307 0066 324A     		ldr	r2, .L5+16
ARM GAS  C:\Users\Charlie\AppData\Local\Temp\ccHLrwpJ.s 			page 10


 308 0068 1278     		ldrb	r2, [r2]
 309 006a D2B2     		uxtb	r2, r2
 310 006c 42F00202 		orr	r2, r2, #2
 311 0070 D2B2     		uxtb	r2, r2
 312 0072 1A70     		strb	r2, [r3]
 204:.\Generated_Source\PSoC5/ADC_DelSig_1.c **** 
 205:.\Generated_Source\PSoC5/ADC_DelSig_1.c ****     ADC_DelSig_1_DSM_CR17_REG |= (ADC_DelSig_1_DSM_EN_BUF_VREF | ADC_DelSig_1_DSM_EN_BUF_VCM);
 313              		.loc 1 205 0
 314 0074 2F4B     		ldr	r3, .L5+20
 315 0076 2F4A     		ldr	r2, .L5+20
 316 0078 1278     		ldrb	r2, [r2]
 317 007a D2B2     		uxtb	r2, r2
 318 007c 42F00302 		orr	r2, r2, #3
 319 0080 D2B2     		uxtb	r2, r2
 320 0082 1A70     		strb	r2, [r3]
 206:.\Generated_Source\PSoC5/ADC_DelSig_1.c **** 
 207:.\Generated_Source\PSoC5/ADC_DelSig_1.c ****     /* Code to disable the REFBUF0 if reference chosen is External ref */
 208:.\Generated_Source\PSoC5/ADC_DelSig_1.c ****     #if (((ADC_DelSig_1_CFG1_REFERENCE == ADC_DelSig_1_EXT_REF_ON_P03) || \
 209:.\Generated_Source\PSoC5/ADC_DelSig_1.c ****           (ADC_DelSig_1_CFG1_REFERENCE == ADC_DelSig_1_EXT_REF_ON_P32)) || \
 210:.\Generated_Source\PSoC5/ADC_DelSig_1.c ****          ((ADC_DelSig_1_DEFAULT_NUM_CONFIGS > 1) && \
 211:.\Generated_Source\PSoC5/ADC_DelSig_1.c ****           ((ADC_DelSig_1_CFG2_REFERENCE == ADC_DelSig_1_EXT_REF_ON_P03) ||  \
 212:.\Generated_Source\PSoC5/ADC_DelSig_1.c ****            (ADC_DelSig_1_CFG2_REFERENCE == ADC_DelSig_1_EXT_REF_ON_P32))) || \
 213:.\Generated_Source\PSoC5/ADC_DelSig_1.c ****          ((ADC_DelSig_1_DEFAULT_NUM_CONFIGS > 2) && \
 214:.\Generated_Source\PSoC5/ADC_DelSig_1.c ****           ((ADC_DelSig_1_CFG3_REFERENCE == ADC_DelSig_1_EXT_REF_ON_P03) ||  \
 215:.\Generated_Source\PSoC5/ADC_DelSig_1.c ****            (ADC_DelSig_1_CFG3_REFERENCE == ADC_DelSig_1_EXT_REF_ON_P32))) || \
 216:.\Generated_Source\PSoC5/ADC_DelSig_1.c ****          ((ADC_DelSig_1_DEFAULT_NUM_CONFIGS > 3) && \
 217:.\Generated_Source\PSoC5/ADC_DelSig_1.c ****           ((ADC_DelSig_1_CFG4_REFERENCE == ADC_DelSig_1_EXT_REF_ON_P03) || \
 218:.\Generated_Source\PSoC5/ADC_DelSig_1.c ****            (ADC_DelSig_1_CFG4_REFERENCE == ADC_DelSig_1_EXT_REF_ON_P32))))
 219:.\Generated_Source\PSoC5/ADC_DelSig_1.c ****         if (((config == 1u) &&
 220:.\Generated_Source\PSoC5/ADC_DelSig_1.c ****             ((ADC_DelSig_1_CFG1_REFERENCE == ADC_DelSig_1_EXT_REF_ON_P03) ||
 221:.\Generated_Source\PSoC5/ADC_DelSig_1.c ****              (ADC_DelSig_1_CFG1_REFERENCE == ADC_DelSig_1_EXT_REF_ON_P32))) ||
 222:.\Generated_Source\PSoC5/ADC_DelSig_1.c ****             ((config == 2u) &&
 223:.\Generated_Source\PSoC5/ADC_DelSig_1.c ****             ((ADC_DelSig_1_CFG2_REFERENCE == ADC_DelSig_1_EXT_REF_ON_P03) ||
 224:.\Generated_Source\PSoC5/ADC_DelSig_1.c ****              (ADC_DelSig_1_CFG2_REFERENCE == ADC_DelSig_1_EXT_REF_ON_P32))) ||
 225:.\Generated_Source\PSoC5/ADC_DelSig_1.c ****             ((config == 3u) &&
 226:.\Generated_Source\PSoC5/ADC_DelSig_1.c ****             ((ADC_DelSig_1_CFG3_REFERENCE == ADC_DelSig_1_EXT_REF_ON_P03) ||
 227:.\Generated_Source\PSoC5/ADC_DelSig_1.c ****              (ADC_DelSig_1_CFG3_REFERENCE == ADC_DelSig_1_EXT_REF_ON_P32))) ||
 228:.\Generated_Source\PSoC5/ADC_DelSig_1.c ****             ((config == 4u) &&
 229:.\Generated_Source\PSoC5/ADC_DelSig_1.c ****             ((ADC_DelSig_1_CFG4_REFERENCE == ADC_DelSig_1_EXT_REF_ON_P03) ||
 230:.\Generated_Source\PSoC5/ADC_DelSig_1.c ****              (ADC_DelSig_1_CFG4_REFERENCE == ADC_DelSig_1_EXT_REF_ON_P32))))
 231:.\Generated_Source\PSoC5/ADC_DelSig_1.c ****         {
 232:.\Generated_Source\PSoC5/ADC_DelSig_1.c ****             /* Disable the REFBUF0 */
 233:.\Generated_Source\PSoC5/ADC_DelSig_1.c ****             ADC_DelSig_1_DSM_CR17_REG &= (uint8)~ADC_DelSig_1_DSM_EN_BUF_VREF;
 234:.\Generated_Source\PSoC5/ADC_DelSig_1.c ****         }
 235:.\Generated_Source\PSoC5/ADC_DelSig_1.c ****     #endif /* External ref */
 236:.\Generated_Source\PSoC5/ADC_DelSig_1.c **** 
 237:.\Generated_Source\PSoC5/ADC_DelSig_1.c ****     #if (((ADC_DelSig_1_CFG1_INPUT_RANGE == ADC_DelSig_1_IR_VSSA_TO_2VREF) || \
 238:.\Generated_Source\PSoC5/ADC_DelSig_1.c ****          ((ADC_DelSig_1_DEFAULT_NUM_CONFIGS > 1) && \
 239:.\Generated_Source\PSoC5/ADC_DelSig_1.c ****           (ADC_DelSig_1_CFG2_INPUT_RANGE == ADC_DelSig_1_IR_VSSA_TO_2VREF)) || \
 240:.\Generated_Source\PSoC5/ADC_DelSig_1.c ****          ((ADC_DelSig_1_DEFAULT_NUM_CONFIGS > 2) && \
 241:.\Generated_Source\PSoC5/ADC_DelSig_1.c ****           (ADC_DelSig_1_CFG3_INPUT_RANGE == ADC_DelSig_1_IR_VSSA_TO_2VREF)) || \
 242:.\Generated_Source\PSoC5/ADC_DelSig_1.c ****          ((ADC_DelSig_1_DEFAULT_NUM_CONFIGS > 3) && \
 243:.\Generated_Source\PSoC5/ADC_DelSig_1.c ****           (ADC_DelSig_1_CFG4_INPUT_RANGE == ADC_DelSig_1_IR_VSSA_TO_2VREF))))
 244:.\Generated_Source\PSoC5/ADC_DelSig_1.c ****         if(((config == 1u) &&
 245:.\Generated_Source\PSoC5/ADC_DelSig_1.c ****             (ADC_DelSig_1_CFG1_INPUT_RANGE == ADC_DelSig_1_IR_VSSA_TO_2VREF) &&
 246:.\Generated_Source\PSoC5/ADC_DelSig_1.c ****             ((ADC_DelSig_1_CFG1_REFERENCE != ADC_DelSig_1_EXT_REF_ON_P03) &&
 247:.\Generated_Source\PSoC5/ADC_DelSig_1.c ****              (ADC_DelSig_1_CFG1_REFERENCE != ADC_DelSig_1_EXT_REF_ON_P32))) ||
ARM GAS  C:\Users\Charlie\AppData\Local\Temp\ccHLrwpJ.s 			page 11


 248:.\Generated_Source\PSoC5/ADC_DelSig_1.c ****              ((config == 2u) &&
 249:.\Generated_Source\PSoC5/ADC_DelSig_1.c ****               (ADC_DelSig_1_CFG2_INPUT_RANGE == ADC_DelSig_1_IR_VSSA_TO_2VREF) &&
 250:.\Generated_Source\PSoC5/ADC_DelSig_1.c ****              ((ADC_DelSig_1_CFG2_REFERENCE != ADC_DelSig_1_EXT_REF_ON_P03) &&
 251:.\Generated_Source\PSoC5/ADC_DelSig_1.c ****              (ADC_DelSig_1_CFG2_REFERENCE != ADC_DelSig_1_EXT_REF_ON_P32))) ||
 252:.\Generated_Source\PSoC5/ADC_DelSig_1.c ****              ((config == 3u) &&
 253:.\Generated_Source\PSoC5/ADC_DelSig_1.c ****               (ADC_DelSig_1_CFG3_INPUT_RANGE == ADC_DelSig_1_IR_VSSA_TO_2VREF) &&
 254:.\Generated_Source\PSoC5/ADC_DelSig_1.c ****              ((ADC_DelSig_1_CFG3_REFERENCE != ADC_DelSig_1_EXT_REF_ON_P03) &&
 255:.\Generated_Source\PSoC5/ADC_DelSig_1.c ****              (ADC_DelSig_1_CFG3_REFERENCE != ADC_DelSig_1_EXT_REF_ON_P32))) ||
 256:.\Generated_Source\PSoC5/ADC_DelSig_1.c ****              ((config == 4u) &&
 257:.\Generated_Source\PSoC5/ADC_DelSig_1.c ****               (ADC_DelSig_1_CFG4_INPUT_RANGE == ADC_DelSig_1_IR_VSSA_TO_2VREF) &&
 258:.\Generated_Source\PSoC5/ADC_DelSig_1.c ****              ((ADC_DelSig_1_CFG4_REFERENCE != ADC_DelSig_1_EXT_REF_ON_P03) &&
 259:.\Generated_Source\PSoC5/ADC_DelSig_1.c ****              (ADC_DelSig_1_CFG4_REFERENCE != ADC_DelSig_1_EXT_REF_ON_P32))))
 260:.\Generated_Source\PSoC5/ADC_DelSig_1.c ****         {
 261:.\Generated_Source\PSoC5/ADC_DelSig_1.c ****             /* Enable the REFBUF1 */
 262:.\Generated_Source\PSoC5/ADC_DelSig_1.c ****             ADC_DelSig_1_DSM_REF0_REG |= ADC_DelSig_1_DSM_EN_BUF_VREF_INN;
 263:.\Generated_Source\PSoC5/ADC_DelSig_1.c ****         }
 264:.\Generated_Source\PSoC5/ADC_DelSig_1.c ****     #endif /* VSSA_TO_2VREF */
 265:.\Generated_Source\PSoC5/ADC_DelSig_1.c ****     if(config != 0u)
 266:.\Generated_Source\PSoC5/ADC_DelSig_1.c ****     {
 267:.\Generated_Source\PSoC5/ADC_DelSig_1.c ****         /* Suppress compiler warning */
 268:.\Generated_Source\PSoC5/ADC_DelSig_1.c ****     }
 269:.\Generated_Source\PSoC5/ADC_DelSig_1.c **** 
 270:.\Generated_Source\PSoC5/ADC_DelSig_1.c ****     /* Wait for 3 microseconds */
 271:.\Generated_Source\PSoC5/ADC_DelSig_1.c ****     CyDelayUs(ADC_DelSig_1_PRES_DELAY_TIME);
 321              		.loc 1 271 0
 322 0084 0320     		movs	r0, #3
 323 0086 FFF7FEFF 		bl	CyDelayUs
 272:.\Generated_Source\PSoC5/ADC_DelSig_1.c **** 
 273:.\Generated_Source\PSoC5/ADC_DelSig_1.c ****     /* Enable the press circuit */
 274:.\Generated_Source\PSoC5/ADC_DelSig_1.c ****     ADC_DelSig_1_RESET_CR4_REG &= (uint8)~ADC_DelSig_1_IGNORE_PRESA1;
 324              		.loc 1 274 0
 325 008a 284B     		ldr	r3, .L5+12
 326 008c 274A     		ldr	r2, .L5+12
 327 008e 1278     		ldrb	r2, [r2]
 328 0090 D2B2     		uxtb	r2, r2
 329 0092 22F00202 		bic	r2, r2, #2
 330 0096 D2B2     		uxtb	r2, r2
 331 0098 1A70     		strb	r2, [r3]
 275:.\Generated_Source\PSoC5/ADC_DelSig_1.c ****     ADC_DelSig_1_RESET_CR5_REG &= (uint8)~ADC_DelSig_1_IGNORE_PRESA2;
 332              		.loc 1 275 0
 333 009a 254B     		ldr	r3, .L5+16
 334 009c 244A     		ldr	r2, .L5+16
 335 009e 1278     		ldrb	r2, [r2]
 336 00a0 D2B2     		uxtb	r2, r2
 337 00a2 22F00202 		bic	r2, r2, #2
 338 00a6 D2B2     		uxtb	r2, r2
 339 00a8 1A70     		strb	r2, [r3]
 276:.\Generated_Source\PSoC5/ADC_DelSig_1.c **** 
 277:.\Generated_Source\PSoC5/ADC_DelSig_1.c ****     /* Enable negative pumps for DSM  */
 278:.\Generated_Source\PSoC5/ADC_DelSig_1.c ****     ADC_DelSig_1_PUMP_CR1_REG  |= ( ADC_DelSig_1_PUMP_CR1_CLKSEL | ADC_DelSig_1_PUMP_CR1_FORCE );
 340              		.loc 1 278 0
 341 00aa 234B     		ldr	r3, .L5+24
 342 00ac 224A     		ldr	r2, .L5+24
 343 00ae 1278     		ldrb	r2, [r2]
 344 00b0 D2B2     		uxtb	r2, r2
 345 00b2 42F00602 		orr	r2, r2, #6
 346 00b6 D2B2     		uxtb	r2, r2
ARM GAS  C:\Users\Charlie\AppData\Local\Temp\ccHLrwpJ.s 			page 12


 347 00b8 1A70     		strb	r2, [r3]
 279:.\Generated_Source\PSoC5/ADC_DelSig_1.c **** 
 280:.\Generated_Source\PSoC5/ADC_DelSig_1.c ****     /* Enable Modulator Chopping if required */
 281:.\Generated_Source\PSoC5/ADC_DelSig_1.c ****     ADC_DelSig_1_DSM_CR2_REG = ADC_DelSig_1_CFG1_DSM_CR2;
 348              		.loc 1 281 0
 349 00ba 204B     		ldr	r3, .L5+28
 350 00bc 7A22     		movs	r2, #122
 351 00be 1A70     		strb	r2, [r3]
 282:.\Generated_Source\PSoC5/ADC_DelSig_1.c **** 
 283:.\Generated_Source\PSoC5/ADC_DelSig_1.c ****     /* This is only valid if there is an internal clock */
 284:.\Generated_Source\PSoC5/ADC_DelSig_1.c ****     #if(ADC_DelSig_1_DEFAULT_INTERNAL_CLK)
 285:.\Generated_Source\PSoC5/ADC_DelSig_1.c ****         ADC_DelSig_1_PWRMGR_CLK_REG |= ADC_DelSig_1_ACT_PWR_CLK_EN;
 352              		.loc 1 285 0
 353 00c0 1F4B     		ldr	r3, .L5+32
 354 00c2 1F4A     		ldr	r2, .L5+32
 355 00c4 1278     		ldrb	r2, [r2]
 356 00c6 D2B2     		uxtb	r2, r2
 357 00c8 42F00102 		orr	r2, r2, #1
 358 00cc D2B2     		uxtb	r2, r2
 359 00ce 1A70     		strb	r2, [r3]
 286:.\Generated_Source\PSoC5/ADC_DelSig_1.c ****         ADC_DelSig_1_STBY_PWRMGR_CLK_REG |= ADC_DelSig_1_STBY_PWR_CLK_EN;
 360              		.loc 1 286 0
 361 00d0 1C4B     		ldr	r3, .L5+36
 362 00d2 1C4A     		ldr	r2, .L5+36
 363 00d4 1278     		ldrb	r2, [r2]
 364 00d6 D2B2     		uxtb	r2, r2
 365 00d8 42F00102 		orr	r2, r2, #1
 366 00dc D2B2     		uxtb	r2, r2
 367 00de 1A70     		strb	r2, [r3]
 287:.\Generated_Source\PSoC5/ADC_DelSig_1.c ****     #endif /* ADC_DelSig_1_DEFAULT_INTERNAL_CLK */
 288:.\Generated_Source\PSoC5/ADC_DelSig_1.c **** 
 289:.\Generated_Source\PSoC5/ADC_DelSig_1.c ****     /* Enable the active and alternate active power for charge pump clock */
 290:.\Generated_Source\PSoC5/ADC_DelSig_1.c ****     ADC_DelSig_1_PWRMGR_CHARGE_PUMP_CLK_REG |= ADC_DelSig_1_ACT_PWR_CHARGE_PUMP_CLK_EN;
 368              		.loc 1 290 0
 369 00e0 194B     		ldr	r3, .L5+40
 370 00e2 194A     		ldr	r2, .L5+40
 371 00e4 1278     		ldrb	r2, [r2]
 372 00e6 D2B2     		uxtb	r2, r2
 373 00e8 42F00102 		orr	r2, r2, #1
 374 00ec D2B2     		uxtb	r2, r2
 375 00ee 1A70     		strb	r2, [r3]
 291:.\Generated_Source\PSoC5/ADC_DelSig_1.c ****     ADC_DelSig_1_STBY_PWRMGR_CHARGE_PUMP_CLK_REG |= ADC_DelSig_1_STBY_PWR_CHARGE_PUMP_CLK_EN;
 376              		.loc 1 291 0
 377 00f0 164B     		ldr	r3, .L5+44
 378 00f2 164A     		ldr	r2, .L5+44
 379 00f4 1278     		ldrb	r2, [r2]
 380 00f6 D2B2     		uxtb	r2, r2
 381 00f8 42F00102 		orr	r2, r2, #1
 382 00fc D2B2     		uxtb	r2, r2
 383 00fe 1A70     		strb	r2, [r3]
 292:.\Generated_Source\PSoC5/ADC_DelSig_1.c **** 
 293:.\Generated_Source\PSoC5/ADC_DelSig_1.c ****     #if(ADC_DelSig_1_IRQ_REMOVE == 0u)
 294:.\Generated_Source\PSoC5/ADC_DelSig_1.c ****         /* Clear a pending interrupt */
 295:.\Generated_Source\PSoC5/ADC_DelSig_1.c ****         CyIntClearPending(ADC_DelSig_1_INTC_NUMBER);
 384              		.loc 1 295 0
 385 0100 134B     		ldr	r3, .L5+48
 386 0102 4FF00052 		mov	r2, #536870912
ARM GAS  C:\Users\Charlie\AppData\Local\Temp\ccHLrwpJ.s 			page 13


 387 0106 1A60     		str	r2, [r3]
 296:.\Generated_Source\PSoC5/ADC_DelSig_1.c ****         /* Enable interrupt */
 297:.\Generated_Source\PSoC5/ADC_DelSig_1.c ****         CyIntEnable(ADC_DelSig_1_INTC_NUMBER);
 388              		.loc 1 297 0
 389 0108 124B     		ldr	r3, .L5+52
 390 010a 4FF00052 		mov	r2, #536870912
 391 010e 1A60     		str	r2, [r3]
 298:.\Generated_Source\PSoC5/ADC_DelSig_1.c ****     #endif   /* End ADC_DelSig_1_IRQ_REMOVE */
 299:.\Generated_Source\PSoC5/ADC_DelSig_1.c **** 
 300:.\Generated_Source\PSoC5/ADC_DelSig_1.c ****     CyExitCriticalSection(enableInterrupts);
 392              		.loc 1 300 0
 393 0110 FB79     		ldrb	r3, [r7, #7]	@ zero_extendqisi2
 394 0112 1846     		mov	r0, r3
 395 0114 FFF7FEFF 		bl	CyExitCriticalSection
 301:.\Generated_Source\PSoC5/ADC_DelSig_1.c **** 
 302:.\Generated_Source\PSoC5/ADC_DelSig_1.c **** }
 396              		.loc 1 302 0
 397 0118 0837     		adds	r7, r7, #8
 398 011a BD46     		mov	sp, r7
 399              		@ sp needed
 400 011c 80BD     		pop	{r7, pc}
 401              	.L6:
 402 011e 00BF     		.align	2
 403              	.L5:
 404 0120 00000000 		.word	ADC_DelSig_1_Config
 405 0124 AA430040 		.word	1073759146
 406 0128 BA430040 		.word	1073759162
 407 012c F8460040 		.word	1073759992
 408 0130 F9460040 		.word	1073759993
 409 0134 91580040 		.word	1073764497
 410 0138 77580040 		.word	1073764471
 411 013c 82580040 		.word	1073764482
 412 0140 A1430040 		.word	1073759137
 413 0144 B1430040 		.word	1073759153
 414 0148 A2430040 		.word	1073759138
 415 014c B2430040 		.word	1073759154
 416 0150 80E200E0 		.word	-536812928
 417 0154 00E100E0 		.word	-536813312
 418              		.cfi_endproc
 419              	.LFE1:
 420              		.size	ADC_DelSig_1_Enable, .-ADC_DelSig_1_Enable
 421              		.section	.text.ADC_DelSig_1_Start,"ax",%progbits
 422              		.align	2
 423              		.global	ADC_DelSig_1_Start
 424              		.thumb
 425              		.thumb_func
 426              		.type	ADC_DelSig_1_Start, %function
 427              	ADC_DelSig_1_Start:
 428              	.LFB2:
 303:.\Generated_Source\PSoC5/ADC_DelSig_1.c **** 
 304:.\Generated_Source\PSoC5/ADC_DelSig_1.c **** 
 305:.\Generated_Source\PSoC5/ADC_DelSig_1.c **** /*******************************************************************************
 306:.\Generated_Source\PSoC5/ADC_DelSig_1.c **** * Function Name: ADC_DelSig_1_Start
 307:.\Generated_Source\PSoC5/ADC_DelSig_1.c **** ********************************************************************************
 308:.\Generated_Source\PSoC5/ADC_DelSig_1.c **** *
 309:.\Generated_Source\PSoC5/ADC_DelSig_1.c **** * Summary:
 310:.\Generated_Source\PSoC5/ADC_DelSig_1.c **** *  Performs all required initialization for this component and enables
ARM GAS  C:\Users\Charlie\AppData\Local\Temp\ccHLrwpJ.s 			page 14


 311:.\Generated_Source\PSoC5/ADC_DelSig_1.c **** *  the power. It configure all the register the first time it is called.
 312:.\Generated_Source\PSoC5/ADC_DelSig_1.c **** *  Subsequent calls of the Start function only enable the ADC and turn
 313:.\Generated_Source\PSoC5/ADC_DelSig_1.c **** *  on the power. If multiple configurations are selected, it will
 314:.\Generated_Source\PSoC5/ADC_DelSig_1.c **** *  configure the ADC for configuration 1 by default, unless the
 315:.\Generated_Source\PSoC5/ADC_DelSig_1.c **** *  ADC_DelSig_1_SelectConfiguration( ) function has been called to change
 316:.\Generated_Source\PSoC5/ADC_DelSig_1.c **** *  the default setting.
 317:.\Generated_Source\PSoC5/ADC_DelSig_1.c **** *
 318:.\Generated_Source\PSoC5/ADC_DelSig_1.c **** * Parameters:
 319:.\Generated_Source\PSoC5/ADC_DelSig_1.c **** *  None
 320:.\Generated_Source\PSoC5/ADC_DelSig_1.c **** *
 321:.\Generated_Source\PSoC5/ADC_DelSig_1.c **** * Return:
 322:.\Generated_Source\PSoC5/ADC_DelSig_1.c **** *  None
 323:.\Generated_Source\PSoC5/ADC_DelSig_1.c **** *
 324:.\Generated_Source\PSoC5/ADC_DelSig_1.c **** * Global variables:
 325:.\Generated_Source\PSoC5/ADC_DelSig_1.c **** *  ADC_DelSig_1_initVar:  Used to check the initial configuration,
 326:.\Generated_Source\PSoC5/ADC_DelSig_1.c **** *  modified when this function is called for the first time.
 327:.\Generated_Source\PSoC5/ADC_DelSig_1.c **** *
 328:.\Generated_Source\PSoC5/ADC_DelSig_1.c **** *******************************************************************************/
 329:.\Generated_Source\PSoC5/ADC_DelSig_1.c **** void ADC_DelSig_1_Start(void) 
 330:.\Generated_Source\PSoC5/ADC_DelSig_1.c **** {
 429              		.loc 1 330 0
 430              		.cfi_startproc
 431              		@ args = 0, pretend = 0, frame = 0
 432              		@ frame_needed = 1, uses_anonymous_args = 0
 433 0000 80B5     		push	{r7, lr}
 434              		.cfi_def_cfa_offset 8
 435              		.cfi_offset 7, -8
 436              		.cfi_offset 14, -4
 437 0002 00AF     		add	r7, sp, #0
 438              		.cfi_def_cfa_register 7
 331:.\Generated_Source\PSoC5/ADC_DelSig_1.c ****     if(ADC_DelSig_1_initVar == 0u)
 439              		.loc 1 331 0
 440 0004 084B     		ldr	r3, .L10
 441 0006 1B78     		ldrb	r3, [r3]	@ zero_extendqisi2
 442 0008 002B     		cmp	r3, #0
 443 000a 09D1     		bne	.L8
 332:.\Generated_Source\PSoC5/ADC_DelSig_1.c ****     {
 333:.\Generated_Source\PSoC5/ADC_DelSig_1.c ****         if(ADC_DelSig_1_started == 0u)
 444              		.loc 1 333 0
 445 000c 074B     		ldr	r3, .L10+4
 446 000e 1B78     		ldrb	r3, [r3]
 447 0010 DBB2     		uxtb	r3, r3
 448 0012 002B     		cmp	r3, #0
 449 0014 01D1     		bne	.L9
 334:.\Generated_Source\PSoC5/ADC_DelSig_1.c ****         {
 335:.\Generated_Source\PSoC5/ADC_DelSig_1.c ****             ADC_DelSig_1_Init();
 450              		.loc 1 335 0
 451 0016 FFF7FEFF 		bl	ADC_DelSig_1_Init
 452              	.L9:
 336:.\Generated_Source\PSoC5/ADC_DelSig_1.c ****         }
 337:.\Generated_Source\PSoC5/ADC_DelSig_1.c ****         ADC_DelSig_1_initVar = 1u;
 453              		.loc 1 337 0
 454 001a 034B     		ldr	r3, .L10
 455 001c 0122     		movs	r2, #1
 456 001e 1A70     		strb	r2, [r3]
 457              	.L8:
 338:.\Generated_Source\PSoC5/ADC_DelSig_1.c ****     }
ARM GAS  C:\Users\Charlie\AppData\Local\Temp\ccHLrwpJ.s 			page 15


 339:.\Generated_Source\PSoC5/ADC_DelSig_1.c **** 
 340:.\Generated_Source\PSoC5/ADC_DelSig_1.c ****     /* Enable the ADC */
 341:.\Generated_Source\PSoC5/ADC_DelSig_1.c ****     ADC_DelSig_1_Enable();
 458              		.loc 1 341 0
 459 0020 FFF7FEFF 		bl	ADC_DelSig_1_Enable
 342:.\Generated_Source\PSoC5/ADC_DelSig_1.c **** }
 460              		.loc 1 342 0
 461 0024 80BD     		pop	{r7, pc}
 462              	.L11:
 463 0026 00BF     		.align	2
 464              	.L10:
 465 0028 00000000 		.word	ADC_DelSig_1_initVar
 466 002c 00000000 		.word	ADC_DelSig_1_started
 467              		.cfi_endproc
 468              	.LFE2:
 469              		.size	ADC_DelSig_1_Start, .-ADC_DelSig_1_Start
 470              		.section	.text.ADC_DelSig_1_Stop,"ax",%progbits
 471              		.align	2
 472              		.global	ADC_DelSig_1_Stop
 473              		.thumb
 474              		.thumb_func
 475              		.type	ADC_DelSig_1_Stop, %function
 476              	ADC_DelSig_1_Stop:
 477              	.LFB3:
 343:.\Generated_Source\PSoC5/ADC_DelSig_1.c **** 
 344:.\Generated_Source\PSoC5/ADC_DelSig_1.c **** 
 345:.\Generated_Source\PSoC5/ADC_DelSig_1.c **** /*******************************************************************************
 346:.\Generated_Source\PSoC5/ADC_DelSig_1.c **** * Function Name: ADC_DelSig_1_Stop
 347:.\Generated_Source\PSoC5/ADC_DelSig_1.c **** ********************************************************************************
 348:.\Generated_Source\PSoC5/ADC_DelSig_1.c **** *
 349:.\Generated_Source\PSoC5/ADC_DelSig_1.c **** * Summary:
 350:.\Generated_Source\PSoC5/ADC_DelSig_1.c **** *  This function stops and powers down the ADC component and the internal
 351:.\Generated_Source\PSoC5/ADC_DelSig_1.c **** *  clock if the external clock is not selected. If an external clock is
 352:.\Generated_Source\PSoC5/ADC_DelSig_1.c **** *  used, it is up to the designer to power down the external clock it
 353:.\Generated_Source\PSoC5/ADC_DelSig_1.c **** *  required.
 354:.\Generated_Source\PSoC5/ADC_DelSig_1.c **** *
 355:.\Generated_Source\PSoC5/ADC_DelSig_1.c **** * Parameters:
 356:.\Generated_Source\PSoC5/ADC_DelSig_1.c **** *  None
 357:.\Generated_Source\PSoC5/ADC_DelSig_1.c **** *
 358:.\Generated_Source\PSoC5/ADC_DelSig_1.c **** * Return:
 359:.\Generated_Source\PSoC5/ADC_DelSig_1.c **** *  None
 360:.\Generated_Source\PSoC5/ADC_DelSig_1.c **** *
 361:.\Generated_Source\PSoC5/ADC_DelSig_1.c **** *******************************************************************************/
 362:.\Generated_Source\PSoC5/ADC_DelSig_1.c **** void ADC_DelSig_1_Stop(void) 
 363:.\Generated_Source\PSoC5/ADC_DelSig_1.c **** {
 478              		.loc 1 363 0
 479              		.cfi_startproc
 480              		@ args = 0, pretend = 0, frame = 8
 481              		@ frame_needed = 1, uses_anonymous_args = 0
 482 0000 80B5     		push	{r7, lr}
 483              		.cfi_def_cfa_offset 8
 484              		.cfi_offset 7, -8
 485              		.cfi_offset 14, -4
 486 0002 82B0     		sub	sp, sp, #8
 487              		.cfi_def_cfa_offset 16
 488 0004 00AF     		add	r7, sp, #0
 489              		.cfi_def_cfa_register 7
ARM GAS  C:\Users\Charlie\AppData\Local\Temp\ccHLrwpJ.s 			page 16


 364:.\Generated_Source\PSoC5/ADC_DelSig_1.c ****     uint8 enableInterrupts;
 365:.\Generated_Source\PSoC5/ADC_DelSig_1.c ****     enableInterrupts = CyEnterCriticalSection();
 490              		.loc 1 365 0
 491 0006 FFF7FEFF 		bl	CyEnterCriticalSection
 492 000a 0346     		mov	r3, r0
 493 000c FB71     		strb	r3, [r7, #7]
 366:.\Generated_Source\PSoC5/ADC_DelSig_1.c **** 
 367:.\Generated_Source\PSoC5/ADC_DelSig_1.c ****     /* Stop conversions */
 368:.\Generated_Source\PSoC5/ADC_DelSig_1.c ****     ADC_DelSig_1_DEC_CR_REG &= (uint8)~ADC_DelSig_1_DEC_START_CONV;
 494              		.loc 1 368 0
 495 000e 4D4B     		ldr	r3, .L13
 496 0010 4C4A     		ldr	r2, .L13
 497 0012 1278     		ldrb	r2, [r2]
 498 0014 D2B2     		uxtb	r2, r2
 499 0016 22F00102 		bic	r2, r2, #1
 500 001a D2B2     		uxtb	r2, r2
 501 001c 1A70     		strb	r2, [r3]
 369:.\Generated_Source\PSoC5/ADC_DelSig_1.c ****     ADC_DelSig_1_DEC_SR_REG |=  ADC_DelSig_1_DEC_INTR_CLEAR;
 502              		.loc 1 369 0
 503 001e 4A4B     		ldr	r3, .L13+4
 504 0020 494A     		ldr	r2, .L13+4
 505 0022 1278     		ldrb	r2, [r2]
 506 0024 D2B2     		uxtb	r2, r2
 507 0026 42F00402 		orr	r2, r2, #4
 508 002a D2B2     		uxtb	r2, r2
 509 002c 1A70     		strb	r2, [r3]
 370:.\Generated_Source\PSoC5/ADC_DelSig_1.c **** 
 371:.\Generated_Source\PSoC5/ADC_DelSig_1.c ****     /* Disable PRES, Disable power to VCMBUF0, REFBUF0 and REFBUF1,
 372:.\Generated_Source\PSoC5/ADC_DelSig_1.c ****        enable PRES */
 373:.\Generated_Source\PSoC5/ADC_DelSig_1.c ****     ADC_DelSig_1_RESET_CR4_REG |= ADC_DelSig_1_IGNORE_PRESA1;
 510              		.loc 1 373 0
 511 002e 474B     		ldr	r3, .L13+8
 512 0030 464A     		ldr	r2, .L13+8
 513 0032 1278     		ldrb	r2, [r2]
 514 0034 D2B2     		uxtb	r2, r2
 515 0036 42F00202 		orr	r2, r2, #2
 516 003a D2B2     		uxtb	r2, r2
 517 003c 1A70     		strb	r2, [r3]
 374:.\Generated_Source\PSoC5/ADC_DelSig_1.c ****     ADC_DelSig_1_RESET_CR5_REG |= ADC_DelSig_1_IGNORE_PRESA2;
 518              		.loc 1 374 0
 519 003e 444B     		ldr	r3, .L13+12
 520 0040 434A     		ldr	r2, .L13+12
 521 0042 1278     		ldrb	r2, [r2]
 522 0044 D2B2     		uxtb	r2, r2
 523 0046 42F00202 		orr	r2, r2, #2
 524 004a D2B2     		uxtb	r2, r2
 525 004c 1A70     		strb	r2, [r3]
 375:.\Generated_Source\PSoC5/ADC_DelSig_1.c **** 
 376:.\Generated_Source\PSoC5/ADC_DelSig_1.c ****     ADC_DelSig_1_DSM_CR17_REG &= (uint8)~(ADC_DelSig_1_DSM_EN_BUF_VREF | ADC_DelSig_1_DSM_EN_BUF_VC
 526              		.loc 1 376 0
 527 004e 414B     		ldr	r3, .L13+16
 528 0050 404A     		ldr	r2, .L13+16
 529 0052 1278     		ldrb	r2, [r2]
 530 0054 D2B2     		uxtb	r2, r2
 531 0056 22F00302 		bic	r2, r2, #3
 532 005a D2B2     		uxtb	r2, r2
 533 005c 1A70     		strb	r2, [r3]
ARM GAS  C:\Users\Charlie\AppData\Local\Temp\ccHLrwpJ.s 			page 17


 377:.\Generated_Source\PSoC5/ADC_DelSig_1.c ****     ADC_DelSig_1_DSM_REF0_REG &= (uint8)~ADC_DelSig_1_DSM_EN_BUF_VREF_INN;
 534              		.loc 1 377 0
 535 005e 3E4B     		ldr	r3, .L13+20
 536 0060 3D4A     		ldr	r2, .L13+20
 537 0062 1278     		ldrb	r2, [r2]
 538 0064 D2B2     		uxtb	r2, r2
 539 0066 22F00802 		bic	r2, r2, #8
 540 006a D2B2     		uxtb	r2, r2
 541 006c 1A70     		strb	r2, [r3]
 378:.\Generated_Source\PSoC5/ADC_DelSig_1.c **** 
 379:.\Generated_Source\PSoC5/ADC_DelSig_1.c ****     /* Wait for 3 microseconds. */
 380:.\Generated_Source\PSoC5/ADC_DelSig_1.c ****     CyDelayUs(ADC_DelSig_1_PRES_DELAY_TIME);
 542              		.loc 1 380 0
 543 006e 0320     		movs	r0, #3
 544 0070 FFF7FEFF 		bl	CyDelayUs
 381:.\Generated_Source\PSoC5/ADC_DelSig_1.c **** 
 382:.\Generated_Source\PSoC5/ADC_DelSig_1.c ****     /* Enable the press circuit */
 383:.\Generated_Source\PSoC5/ADC_DelSig_1.c ****     ADC_DelSig_1_RESET_CR4_REG &= (uint8)~ADC_DelSig_1_IGNORE_PRESA1;
 545              		.loc 1 383 0
 546 0074 354B     		ldr	r3, .L13+8
 547 0076 354A     		ldr	r2, .L13+8
 548 0078 1278     		ldrb	r2, [r2]
 549 007a D2B2     		uxtb	r2, r2
 550 007c 22F00202 		bic	r2, r2, #2
 551 0080 D2B2     		uxtb	r2, r2
 552 0082 1A70     		strb	r2, [r3]
 384:.\Generated_Source\PSoC5/ADC_DelSig_1.c ****     ADC_DelSig_1_RESET_CR5_REG &= (uint8)~ADC_DelSig_1_IGNORE_PRESA2;
 553              		.loc 1 384 0
 554 0084 324B     		ldr	r3, .L13+12
 555 0086 324A     		ldr	r2, .L13+12
 556 0088 1278     		ldrb	r2, [r2]
 557 008a D2B2     		uxtb	r2, r2
 558 008c 22F00202 		bic	r2, r2, #2
 559 0090 D2B2     		uxtb	r2, r2
 560 0092 1A70     		strb	r2, [r3]
 385:.\Generated_Source\PSoC5/ADC_DelSig_1.c **** 
 386:.\Generated_Source\PSoC5/ADC_DelSig_1.c ****     /* Disable power to the ADC */
 387:.\Generated_Source\PSoC5/ADC_DelSig_1.c ****     ADC_DelSig_1_PWRMGR_DSM_REG &= (uint8)~ADC_DelSig_1_ACT_PWR_DSM_EN;
 561              		.loc 1 387 0
 562 0094 314B     		ldr	r3, .L13+24
 563 0096 314A     		ldr	r2, .L13+24
 564 0098 1278     		ldrb	r2, [r2]
 565 009a D2B2     		uxtb	r2, r2
 566 009c 22F01002 		bic	r2, r2, #16
 567 00a0 D2B2     		uxtb	r2, r2
 568 00a2 1A70     		strb	r2, [r3]
 388:.\Generated_Source\PSoC5/ADC_DelSig_1.c **** 
 389:.\Generated_Source\PSoC5/ADC_DelSig_1.c ****     /* Disable power to Decimator block */
 390:.\Generated_Source\PSoC5/ADC_DelSig_1.c ****     ADC_DelSig_1_PWRMGR_DEC_REG &= (uint8)~ADC_DelSig_1_ACT_PWR_DEC_EN;
 569              		.loc 1 390 0
 570 00a4 2D4B     		ldr	r3, .L13+24
 571 00a6 2D4A     		ldr	r2, .L13+24
 572 00a8 1278     		ldrb	r2, [r2]
 573 00aa D2B2     		uxtb	r2, r2
 574 00ac 22F00102 		bic	r2, r2, #1
 575 00b0 D2B2     		uxtb	r2, r2
 576 00b2 1A70     		strb	r2, [r3]
ARM GAS  C:\Users\Charlie\AppData\Local\Temp\ccHLrwpJ.s 			page 18


 391:.\Generated_Source\PSoC5/ADC_DelSig_1.c **** 
 392:.\Generated_Source\PSoC5/ADC_DelSig_1.c ****     /* Disable alternative active power to the ADC */
 393:.\Generated_Source\PSoC5/ADC_DelSig_1.c ****     ADC_DelSig_1_STBY_PWRMGR_DEC_REG &= (uint8)~ADC_DelSig_1_STBY_PWR_DEC_EN;
 577              		.loc 1 393 0
 578 00b4 2A4B     		ldr	r3, .L13+28
 579 00b6 2A4A     		ldr	r2, .L13+28
 580 00b8 1278     		ldrb	r2, [r2]
 581 00ba D2B2     		uxtb	r2, r2
 582 00bc 22F00102 		bic	r2, r2, #1
 583 00c0 D2B2     		uxtb	r2, r2
 584 00c2 1A70     		strb	r2, [r3]
 394:.\Generated_Source\PSoC5/ADC_DelSig_1.c ****     ADC_DelSig_1_STBY_PWRMGR_DSM_REG &= (uint8)~ADC_DelSig_1_STBY_PWR_DSM_EN;
 585              		.loc 1 394 0
 586 00c4 264B     		ldr	r3, .L13+28
 587 00c6 264A     		ldr	r2, .L13+28
 588 00c8 1278     		ldrb	r2, [r2]
 589 00ca D2B2     		uxtb	r2, r2
 590 00cc 22F01002 		bic	r2, r2, #16
 591 00d0 D2B2     		uxtb	r2, r2
 592 00d2 1A70     		strb	r2, [r3]
 395:.\Generated_Source\PSoC5/ADC_DelSig_1.c **** 
 396:.\Generated_Source\PSoC5/ADC_DelSig_1.c ****    /* Disable negative pumps for DSM  */
 397:.\Generated_Source\PSoC5/ADC_DelSig_1.c ****     ADC_DelSig_1_PUMP_CR1_REG &= (uint8)~(ADC_DelSig_1_PUMP_CR1_CLKSEL | ADC_DelSig_1_PUMP_CR1_FORC
 593              		.loc 1 397 0
 594 00d4 234B     		ldr	r3, .L13+32
 595 00d6 234A     		ldr	r2, .L13+32
 596 00d8 1278     		ldrb	r2, [r2]
 597 00da D2B2     		uxtb	r2, r2
 598 00dc 22F00602 		bic	r2, r2, #6
 599 00e0 D2B2     		uxtb	r2, r2
 600 00e2 1A70     		strb	r2, [r3]
 398:.\Generated_Source\PSoC5/ADC_DelSig_1.c **** 
 399:.\Generated_Source\PSoC5/ADC_DelSig_1.c ****     /* This is only valid if there is an internal clock */
 400:.\Generated_Source\PSoC5/ADC_DelSig_1.c ****     #if(ADC_DelSig_1_DEFAULT_INTERNAL_CLK)
 401:.\Generated_Source\PSoC5/ADC_DelSig_1.c ****         ADC_DelSig_1_PWRMGR_CLK_REG &= (uint8)~ADC_DelSig_1_ACT_PWR_CLK_EN;
 601              		.loc 1 401 0
 602 00e4 204B     		ldr	r3, .L13+36
 603 00e6 204A     		ldr	r2, .L13+36
 604 00e8 1278     		ldrb	r2, [r2]
 605 00ea D2B2     		uxtb	r2, r2
 606 00ec 22F00102 		bic	r2, r2, #1
 607 00f0 D2B2     		uxtb	r2, r2
 608 00f2 1A70     		strb	r2, [r3]
 402:.\Generated_Source\PSoC5/ADC_DelSig_1.c ****         ADC_DelSig_1_STBY_PWRMGR_CLK_REG &= (uint8)~ADC_DelSig_1_STBY_PWR_CLK_EN;
 609              		.loc 1 402 0
 610 00f4 1D4B     		ldr	r3, .L13+40
 611 00f6 1D4A     		ldr	r2, .L13+40
 612 00f8 1278     		ldrb	r2, [r2]
 613 00fa D2B2     		uxtb	r2, r2
 614 00fc 22F00102 		bic	r2, r2, #1
 615 0100 D2B2     		uxtb	r2, r2
 616 0102 1A70     		strb	r2, [r3]
 403:.\Generated_Source\PSoC5/ADC_DelSig_1.c ****     #endif /* ADC_DelSig_1_DEFAULT_INTERNAL_CLK */
 404:.\Generated_Source\PSoC5/ADC_DelSig_1.c **** 
 405:.\Generated_Source\PSoC5/ADC_DelSig_1.c ****     /* Disable Modulator Chopping */
 406:.\Generated_Source\PSoC5/ADC_DelSig_1.c ****     ADC_DelSig_1_DSM_CR2_REG &= (uint8)~ADC_DelSig_1_DSM_MOD_CHOP_EN;
 617              		.loc 1 406 0
ARM GAS  C:\Users\Charlie\AppData\Local\Temp\ccHLrwpJ.s 			page 19


 618 0104 1A4B     		ldr	r3, .L13+44
 619 0106 1A4A     		ldr	r2, .L13+44
 620 0108 1278     		ldrb	r2, [r2]
 621 010a D2B2     		uxtb	r2, r2
 622 010c 22F00802 		bic	r2, r2, #8
 623 0110 D2B2     		uxtb	r2, r2
 624 0112 1A70     		strb	r2, [r3]
 407:.\Generated_Source\PSoC5/ADC_DelSig_1.c ****     /* Disable power to charge pump clock */
 408:.\Generated_Source\PSoC5/ADC_DelSig_1.c ****     ADC_DelSig_1_PWRMGR_CHARGE_PUMP_CLK_REG &= (uint8)~ADC_DelSig_1_ACT_PWR_CHARGE_PUMP_CLK_EN;
 625              		.loc 1 408 0
 626 0114 174B     		ldr	r3, .L13+48
 627 0116 174A     		ldr	r2, .L13+48
 628 0118 1278     		ldrb	r2, [r2]
 629 011a D2B2     		uxtb	r2, r2
 630 011c 22F00102 		bic	r2, r2, #1
 631 0120 D2B2     		uxtb	r2, r2
 632 0122 1A70     		strb	r2, [r3]
 409:.\Generated_Source\PSoC5/ADC_DelSig_1.c ****     ADC_DelSig_1_STBY_PWRMGR_CHARGE_PUMP_CLK_REG &= (uint8)~ADC_DelSig_1_STBY_PWR_CHARGE_PUMP_CLK_E
 633              		.loc 1 409 0
 634 0124 144B     		ldr	r3, .L13+52
 635 0126 144A     		ldr	r2, .L13+52
 636 0128 1278     		ldrb	r2, [r2]
 637 012a D2B2     		uxtb	r2, r2
 638 012c 22F00102 		bic	r2, r2, #1
 639 0130 D2B2     		uxtb	r2, r2
 640 0132 1A70     		strb	r2, [r3]
 410:.\Generated_Source\PSoC5/ADC_DelSig_1.c ****     
 411:.\Generated_Source\PSoC5/ADC_DelSig_1.c ****     CyExitCriticalSection(enableInterrupts);
 641              		.loc 1 411 0
 642 0134 FB79     		ldrb	r3, [r7, #7]	@ zero_extendqisi2
 643 0136 1846     		mov	r0, r3
 644 0138 FFF7FEFF 		bl	CyExitCriticalSection
 412:.\Generated_Source\PSoC5/ADC_DelSig_1.c **** }
 645              		.loc 1 412 0
 646 013c 0837     		adds	r7, r7, #8
 647 013e BD46     		mov	sp, r7
 648              		@ sp needed
 649 0140 80BD     		pop	{r7, pc}
 650              	.L14:
 651 0142 00BF     		.align	2
 652              	.L13:
 653 0144 004E0040 		.word	1073761792
 654 0148 014E0040 		.word	1073761793
 655 014c F8460040 		.word	1073759992
 656 0150 F9460040 		.word	1073759993
 657 0154 91580040 		.word	1073764497
 658 0158 92580040 		.word	1073764498
 659 015c AA430040 		.word	1073759146
 660 0160 BA430040 		.word	1073759162
 661 0164 77580040 		.word	1073764471
 662 0168 A1430040 		.word	1073759137
 663 016c B1430040 		.word	1073759153
 664 0170 82580040 		.word	1073764482
 665 0174 A2430040 		.word	1073759138
 666 0178 B2430040 		.word	1073759154
 667              		.cfi_endproc
 668              	.LFE3:
ARM GAS  C:\Users\Charlie\AppData\Local\Temp\ccHLrwpJ.s 			page 20


 669              		.size	ADC_DelSig_1_Stop, .-ADC_DelSig_1_Stop
 670              		.section	.text.ADC_DelSig_1_SetBufferGain,"ax",%progbits
 671              		.align	2
 672              		.global	ADC_DelSig_1_SetBufferGain
 673              		.thumb
 674              		.thumb_func
 675              		.type	ADC_DelSig_1_SetBufferGain, %function
 676              	ADC_DelSig_1_SetBufferGain:
 677              	.LFB4:
 413:.\Generated_Source\PSoC5/ADC_DelSig_1.c **** 
 414:.\Generated_Source\PSoC5/ADC_DelSig_1.c **** 
 415:.\Generated_Source\PSoC5/ADC_DelSig_1.c **** /*******************************************************************************
 416:.\Generated_Source\PSoC5/ADC_DelSig_1.c **** * Function Name: ADC_DelSig_1_SetBufferGain
 417:.\Generated_Source\PSoC5/ADC_DelSig_1.c **** ********************************************************************************
 418:.\Generated_Source\PSoC5/ADC_DelSig_1.c **** *
 419:.\Generated_Source\PSoC5/ADC_DelSig_1.c **** * Summary:
 420:.\Generated_Source\PSoC5/ADC_DelSig_1.c **** *  Sets input buffer gain.
 421:.\Generated_Source\PSoC5/ADC_DelSig_1.c **** *
 422:.\Generated_Source\PSoC5/ADC_DelSig_1.c **** * Parameters:
 423:.\Generated_Source\PSoC5/ADC_DelSig_1.c **** *  gain:  Two bit value to select a gain of 1, 2, 4, or 8.
 424:.\Generated_Source\PSoC5/ADC_DelSig_1.c **** *
 425:.\Generated_Source\PSoC5/ADC_DelSig_1.c **** * Return:
 426:.\Generated_Source\PSoC5/ADC_DelSig_1.c **** *  None
 427:.\Generated_Source\PSoC5/ADC_DelSig_1.c **** *
 428:.\Generated_Source\PSoC5/ADC_DelSig_1.c **** *******************************************************************************/
 429:.\Generated_Source\PSoC5/ADC_DelSig_1.c **** void ADC_DelSig_1_SetBufferGain(uint8 gain) 
 430:.\Generated_Source\PSoC5/ADC_DelSig_1.c **** {
 678              		.loc 1 430 0
 679              		.cfi_startproc
 680              		@ args = 0, pretend = 0, frame = 16
 681              		@ frame_needed = 1, uses_anonymous_args = 0
 682              		@ link register save eliminated.
 683 0000 80B4     		push	{r7}
 684              		.cfi_def_cfa_offset 4
 685              		.cfi_offset 7, -4
 686 0002 85B0     		sub	sp, sp, #20
 687              		.cfi_def_cfa_offset 24
 688 0004 00AF     		add	r7, sp, #0
 689              		.cfi_def_cfa_register 7
 690 0006 0346     		mov	r3, r0
 691 0008 FB71     		strb	r3, [r7, #7]
 431:.\Generated_Source\PSoC5/ADC_DelSig_1.c ****     uint8 tmpReg;
 432:.\Generated_Source\PSoC5/ADC_DelSig_1.c ****     tmpReg = ADC_DelSig_1_DSM_BUF1_REG & (uint8)~ADC_DelSig_1_DSM_GAIN_MASK;
 692              		.loc 1 432 0
 693 000a 0B4B     		ldr	r3, .L16
 694 000c 1B78     		ldrb	r3, [r3]
 695 000e DBB2     		uxtb	r3, r3
 696 0010 23F00C03 		bic	r3, r3, #12
 697 0014 FB73     		strb	r3, [r7, #15]
 433:.\Generated_Source\PSoC5/ADC_DelSig_1.c ****     tmpReg |= (uint8)(gain << ADC_DelSig_1_DSM_GAIN_SHIFT) & ADC_DelSig_1_DSM_GAIN_MASK;
 698              		.loc 1 433 0
 699 0016 FB79     		ldrb	r3, [r7, #7]
 700 0018 9B00     		lsls	r3, r3, #2
 701 001a DBB2     		uxtb	r3, r3
 702 001c 03F00C03 		and	r3, r3, #12
 703 0020 DAB2     		uxtb	r2, r3
 704 0022 FB7B     		ldrb	r3, [r7, #15]
ARM GAS  C:\Users\Charlie\AppData\Local\Temp\ccHLrwpJ.s 			page 21


 705 0024 1343     		orrs	r3, r3, r2
 706 0026 FB73     		strb	r3, [r7, #15]
 434:.\Generated_Source\PSoC5/ADC_DelSig_1.c ****     ADC_DelSig_1_DSM_BUF1_REG = tmpReg;
 707              		.loc 1 434 0
 708 0028 034B     		ldr	r3, .L16
 709 002a FA7B     		ldrb	r2, [r7, #15]
 710 002c 1A70     		strb	r2, [r3]
 435:.\Generated_Source\PSoC5/ADC_DelSig_1.c **** }
 711              		.loc 1 435 0
 712 002e 1437     		adds	r7, r7, #20
 713 0030 BD46     		mov	sp, r7
 714              		@ sp needed
 715 0032 5DF8047B 		ldr	r7, [sp], #4
 716 0036 7047     		bx	lr
 717              	.L17:
 718              		.align	2
 719              	.L16:
 720 0038 9B580040 		.word	1073764507
 721              		.cfi_endproc
 722              	.LFE4:
 723              		.size	ADC_DelSig_1_SetBufferGain, .-ADC_DelSig_1_SetBufferGain
 724              		.section	.text.ADC_DelSig_1_SetCoherency,"ax",%progbits
 725              		.align	2
 726              		.global	ADC_DelSig_1_SetCoherency
 727              		.thumb
 728              		.thumb_func
 729              		.type	ADC_DelSig_1_SetCoherency, %function
 730              	ADC_DelSig_1_SetCoherency:
 731              	.LFB5:
 436:.\Generated_Source\PSoC5/ADC_DelSig_1.c **** 
 437:.\Generated_Source\PSoC5/ADC_DelSig_1.c **** 
 438:.\Generated_Source\PSoC5/ADC_DelSig_1.c **** /*******************************************************************************
 439:.\Generated_Source\PSoC5/ADC_DelSig_1.c **** * Function Name: ADC_DelSig_1_SetCoherency
 440:.\Generated_Source\PSoC5/ADC_DelSig_1.c **** ********************************************************************************
 441:.\Generated_Source\PSoC5/ADC_DelSig_1.c **** *
 442:.\Generated_Source\PSoC5/ADC_DelSig_1.c **** * Summary:
 443:.\Generated_Source\PSoC5/ADC_DelSig_1.c **** *  This function allows the user to change which of the ADC's 3 word
 444:.\Generated_Source\PSoC5/ADC_DelSig_1.c **** *  result will trigger a coherency unlock. The ADC's result will not be
 445:.\Generated_Source\PSoC5/ADC_DelSig_1.c **** *  updated until the set byte is read either by the ADC or DMA. 
 446:.\Generated_Source\PSoC5/ADC_DelSig_1.c **** *  By default the LSB is the coherency byte for right alignment data format. 
 447:.\Generated_Source\PSoC5/ADC_DelSig_1.c **** *  The middle or high byte is set automatically depend on left alignment 
 448:.\Generated_Source\PSoC5/ADC_DelSig_1.c **** *  configuration for DMA data transfer.
 449:.\Generated_Source\PSoC5/ADC_DelSig_1.c **** *  If DMA or if a custom API requires different byte to be read the last,
 450:.\Generated_Source\PSoC5/ADC_DelSig_1.c **** *  this API should be used to set the last byte of the ADC result that is read. 
 451:.\Generated_Source\PSoC5/ADC_DelSig_1.c **** *  If a multibyte read is performed either by DMA or the ARM processor, the
 452:.\Generated_Source\PSoC5/ADC_DelSig_1.c **** *  coherency can be set to any byte in the last word read.
 453:.\Generated_Source\PSoC5/ADC_DelSig_1.c **** *
 454:.\Generated_Source\PSoC5/ADC_DelSig_1.c **** * Parameters:
 455:.\Generated_Source\PSoC5/ADC_DelSig_1.c **** *  coherency:  Two bit value to set the coherency bit.
 456:.\Generated_Source\PSoC5/ADC_DelSig_1.c **** *           00-Coherency checking off
 457:.\Generated_Source\PSoC5/ADC_DelSig_1.c **** *           01-low byte is key byte
 458:.\Generated_Source\PSoC5/ADC_DelSig_1.c **** *           02-middle byte is the key byte
 459:.\Generated_Source\PSoC5/ADC_DelSig_1.c **** *           03-high byte is the key byte
 460:.\Generated_Source\PSoC5/ADC_DelSig_1.c **** *
 461:.\Generated_Source\PSoC5/ADC_DelSig_1.c **** * Return:
 462:.\Generated_Source\PSoC5/ADC_DelSig_1.c **** *  None
 463:.\Generated_Source\PSoC5/ADC_DelSig_1.c **** *
ARM GAS  C:\Users\Charlie\AppData\Local\Temp\ccHLrwpJ.s 			page 22


 464:.\Generated_Source\PSoC5/ADC_DelSig_1.c **** *******************************************************************************/
 465:.\Generated_Source\PSoC5/ADC_DelSig_1.c **** void ADC_DelSig_1_SetCoherency(uint8 coherency) 
 466:.\Generated_Source\PSoC5/ADC_DelSig_1.c **** {
 732              		.loc 1 466 0
 733              		.cfi_startproc
 734              		@ args = 0, pretend = 0, frame = 16
 735              		@ frame_needed = 1, uses_anonymous_args = 0
 736              		@ link register save eliminated.
 737 0000 80B4     		push	{r7}
 738              		.cfi_def_cfa_offset 4
 739              		.cfi_offset 7, -4
 740 0002 85B0     		sub	sp, sp, #20
 741              		.cfi_def_cfa_offset 24
 742 0004 00AF     		add	r7, sp, #0
 743              		.cfi_def_cfa_register 7
 744 0006 0346     		mov	r3, r0
 745 0008 FB71     		strb	r3, [r7, #7]
 467:.\Generated_Source\PSoC5/ADC_DelSig_1.c ****     uint8 tmpReg;
 468:.\Generated_Source\PSoC5/ADC_DelSig_1.c **** 
 469:.\Generated_Source\PSoC5/ADC_DelSig_1.c ****     tmpReg = ADC_DelSig_1_DEC_COHER_REG & (uint8)~ADC_DelSig_1_DEC_SAMP_KEY_MASK;
 746              		.loc 1 469 0
 747 000a 0A4B     		ldr	r3, .L19
 748 000c 1B78     		ldrb	r3, [r3]
 749 000e DBB2     		uxtb	r3, r3
 750 0010 23F00303 		bic	r3, r3, #3
 751 0014 FB73     		strb	r3, [r7, #15]
 470:.\Generated_Source\PSoC5/ADC_DelSig_1.c ****     tmpReg |= coherency & ADC_DelSig_1_DEC_SAMP_KEY_MASK;
 752              		.loc 1 470 0
 753 0016 FB79     		ldrb	r3, [r7, #7]
 754 0018 03F00303 		and	r3, r3, #3
 755 001c DAB2     		uxtb	r2, r3
 756 001e FB7B     		ldrb	r3, [r7, #15]
 757 0020 1343     		orrs	r3, r3, r2
 758 0022 FB73     		strb	r3, [r7, #15]
 471:.\Generated_Source\PSoC5/ADC_DelSig_1.c ****     ADC_DelSig_1_DEC_COHER_REG = tmpReg;
 759              		.loc 1 471 0
 760 0024 034B     		ldr	r3, .L19
 761 0026 FA7B     		ldrb	r2, [r7, #15]
 762 0028 1A70     		strb	r2, [r3]
 472:.\Generated_Source\PSoC5/ADC_DelSig_1.c **** }
 763              		.loc 1 472 0
 764 002a 1437     		adds	r7, r7, #20
 765 002c BD46     		mov	sp, r7
 766              		@ sp needed
 767 002e 5DF8047B 		ldr	r7, [sp], #4
 768 0032 7047     		bx	lr
 769              	.L20:
 770              		.align	2
 771              	.L19:
 772 0034 144E0040 		.word	1073761812
 773              		.cfi_endproc
 774              	.LFE5:
 775              		.size	ADC_DelSig_1_SetCoherency, .-ADC_DelSig_1_SetCoherency
 776              		.global	__aeabi_ui2f
 777              		.global	__aeabi_fdiv
 778              		.global	__aeabi_fmul
 779              		.global	__aeabi_f2d
ARM GAS  C:\Users\Charlie\AppData\Local\Temp\ccHLrwpJ.s 			page 23


 780              		.global	__aeabi_dcmpgt
 781              		.global	__aeabi_f2uiz
 782              		.section	.text.ADC_DelSig_1_SetGCOR,"ax",%progbits
 783              		.align	2
 784              		.global	ADC_DelSig_1_SetGCOR
 785              		.thumb
 786              		.thumb_func
 787              		.type	ADC_DelSig_1_SetGCOR, %function
 788              	ADC_DelSig_1_SetGCOR:
 789              	.LFB6:
 473:.\Generated_Source\PSoC5/ADC_DelSig_1.c **** 
 474:.\Generated_Source\PSoC5/ADC_DelSig_1.c **** 
 475:.\Generated_Source\PSoC5/ADC_DelSig_1.c **** /*******************************************************************************
 476:.\Generated_Source\PSoC5/ADC_DelSig_1.c **** * Function Name: ADC_DelSig_1_SetGCOR
 477:.\Generated_Source\PSoC5/ADC_DelSig_1.c **** ********************************************************************************
 478:.\Generated_Source\PSoC5/ADC_DelSig_1.c **** *
 479:.\Generated_Source\PSoC5/ADC_DelSig_1.c **** * Summary:
 480:.\Generated_Source\PSoC5/ADC_DelSig_1.c **** *  Calculates a new GCOR value and writes it into the GCOR register. 
 481:.\Generated_Source\PSoC5/ADC_DelSig_1.c **** *  The GCOR value is a 16-bit value that represents a gain of 0 to 2. 
 482:.\Generated_Source\PSoC5/ADC_DelSig_1.c **** *  The ADC result is multiplied by this value before it is placed in the ADC 
 483:.\Generated_Source\PSoC5/ADC_DelSig_1.c **** *  output registers. The numerical format for the GCOR value is:
 484:.\Generated_Source\PSoC5/ADC_DelSig_1.c **** *  0x0000 -> 0.000
 485:.\Generated_Source\PSoC5/ADC_DelSig_1.c **** *  0x8000 -> 1.000
 486:.\Generated_Source\PSoC5/ADC_DelSig_1.c **** *  0xFFFF -> 1.99997
 487:.\Generated_Source\PSoC5/ADC_DelSig_1.c **** *  When executing the function, the old GCOR value is multiplied by
 488:.\Generated_Source\PSoC5/ADC_DelSig_1.c **** *  gainAdjust and reloaded into the GCOR register.
 489:.\Generated_Source\PSoC5/ADC_DelSig_1.c **** *
 490:.\Generated_Source\PSoC5/ADC_DelSig_1.c **** * Parameters:
 491:.\Generated_Source\PSoC5/ADC_DelSig_1.c **** *  gainAdjust:  floating point value to set GCOR registers.
 492:.\Generated_Source\PSoC5/ADC_DelSig_1.c **** *
 493:.\Generated_Source\PSoC5/ADC_DelSig_1.c **** * Return:
 494:.\Generated_Source\PSoC5/ADC_DelSig_1.c **** *  uint8: 0 - if GCOR value is within the expected range.
 495:.\Generated_Source\PSoC5/ADC_DelSig_1.c **** *         1 - the correction value is outside GCOR value range of
 496:.\Generated_Source\PSoC5/ADC_DelSig_1.c **** *             0.00 to 1.9999.
 497:.\Generated_Source\PSoC5/ADC_DelSig_1.c **** *
 498:.\Generated_Source\PSoC5/ADC_DelSig_1.c **** * Side Effects:  The GVAL register is set to the amount of valid bits in the
 499:.\Generated_Source\PSoC5/ADC_DelSig_1.c **** *                GCOR  register minus one. If GVAL is 15 (0x0F), all 16 bits
 500:.\Generated_Source\PSoC5/ADC_DelSig_1.c **** *                of the GCOR registers will be valid. If for example GVAL is
 501:.\Generated_Source\PSoC5/ADC_DelSig_1.c **** *                11 (0x0B) only 12 bits will be valid. The least 4 bits will
 502:.\Generated_Source\PSoC5/ADC_DelSig_1.c **** *                be lost when the GCOR value is shifted 4 places to the right.
 503:.\Generated_Source\PSoC5/ADC_DelSig_1.c **** *
 504:.\Generated_Source\PSoC5/ADC_DelSig_1.c **** ******************************************************************************/
 505:.\Generated_Source\PSoC5/ADC_DelSig_1.c **** uint8 ADC_DelSig_1_SetGCOR(float32 gainAdjust) 
 506:.\Generated_Source\PSoC5/ADC_DelSig_1.c **** {
 790              		.loc 1 506 0
 791              		.cfi_startproc
 792              		@ args = 0, pretend = 0, frame = 16
 793              		@ frame_needed = 1, uses_anonymous_args = 0
 794 0000 80B5     		push	{r7, lr}
 795              		.cfi_def_cfa_offset 8
 796              		.cfi_offset 7, -8
 797              		.cfi_offset 14, -4
 798 0002 84B0     		sub	sp, sp, #16
 799              		.cfi_def_cfa_offset 24
 800 0004 00AF     		add	r7, sp, #0
 801              		.cfi_def_cfa_register 7
 802 0006 7860     		str	r0, [r7, #4]	@ float
ARM GAS  C:\Users\Charlie\AppData\Local\Temp\ccHLrwpJ.s 			page 24


 507:.\Generated_Source\PSoC5/ADC_DelSig_1.c ****     uint16 tmpReg;
 508:.\Generated_Source\PSoC5/ADC_DelSig_1.c ****     uint8 status;
 509:.\Generated_Source\PSoC5/ADC_DelSig_1.c ****     float32 tmpValue;
 510:.\Generated_Source\PSoC5/ADC_DelSig_1.c **** 
 511:.\Generated_Source\PSoC5/ADC_DelSig_1.c ****     tmpReg = ADC_DelSig_1_gcor[ADC_DelSig_1_Config - 1u].gcor;
 803              		.loc 1 511 0
 804 0008 274B     		ldr	r3, .L28+8
 805 000a 1B78     		ldrb	r3, [r3]
 806 000c DBB2     		uxtb	r3, r3
 807 000e 5A1E     		subs	r2, r3, #1
 808 0010 264B     		ldr	r3, .L28+12
 809 0012 33F82230 		ldrh	r3, [r3, r2, lsl #2]	@ movhi
 810 0016 BB81     		strh	r3, [r7, #12]	@ movhi
 512:.\Generated_Source\PSoC5/ADC_DelSig_1.c ****     tmpValue = ((float32)tmpReg / (float32)ADC_DelSig_1_IDEAL_GAIN_CONST);
 811              		.loc 1 512 0
 812 0018 BB89     		ldrh	r3, [r7, #12]
 813 001a 1846     		mov	r0, r3
 814 001c FFF7FEFF 		bl	__aeabi_ui2f
 815 0020 0346     		mov	r3, r0
 816 0022 1846     		mov	r0, r3
 817 0024 4FF08E41 		mov	r1, #1191182336
 818 0028 FFF7FEFF 		bl	__aeabi_fdiv
 819 002c 0346     		mov	r3, r0
 820 002e BB60     		str	r3, [r7, #8]	@ float
 513:.\Generated_Source\PSoC5/ADC_DelSig_1.c ****     tmpValue = tmpValue * gainAdjust;
 821              		.loc 1 513 0
 822 0030 B868     		ldr	r0, [r7, #8]	@ float
 823 0032 7968     		ldr	r1, [r7, #4]	@ float
 824 0034 FFF7FEFF 		bl	__aeabi_fmul
 825 0038 0346     		mov	r3, r0
 826 003a BB60     		str	r3, [r7, #8]	@ float
 514:.\Generated_Source\PSoC5/ADC_DelSig_1.c **** 
 515:.\Generated_Source\PSoC5/ADC_DelSig_1.c ****     if (tmpValue > 1.9999)
 827              		.loc 1 515 0
 828 003c B868     		ldr	r0, [r7, #8]	@ float
 829 003e FFF7FEFF 		bl	__aeabi_f2d
 830 0042 0246     		mov	r2, r0
 831 0044 0B46     		mov	r3, r1
 832 0046 1046     		mov	r0, r2
 833 0048 1946     		mov	r1, r3
 834 004a 15A3     		adr	r3, .L28
 835 004c D3E90023 		ldrd	r2, [r3]
 836 0050 FFF7FEFF 		bl	__aeabi_dcmpgt
 837 0054 0346     		mov	r3, r0
 838 0056 002B     		cmp	r3, #0
 839 0058 02D0     		beq	.L27
 516:.\Generated_Source\PSoC5/ADC_DelSig_1.c ****     {
 517:.\Generated_Source\PSoC5/ADC_DelSig_1.c ****         status = 1u;
 840              		.loc 1 517 0
 841 005a 0123     		movs	r3, #1
 842 005c FB73     		strb	r3, [r7, #15]
 843 005e 18E0     		b	.L24
 844              	.L27:
 518:.\Generated_Source\PSoC5/ADC_DelSig_1.c ****     }
 519:.\Generated_Source\PSoC5/ADC_DelSig_1.c ****     else
 520:.\Generated_Source\PSoC5/ADC_DelSig_1.c ****     {
 521:.\Generated_Source\PSoC5/ADC_DelSig_1.c ****         tmpValue *= (float32)ADC_DelSig_1_IDEAL_GAIN_CONST;
ARM GAS  C:\Users\Charlie\AppData\Local\Temp\ccHLrwpJ.s 			page 25


 845              		.loc 1 521 0
 846 0060 B868     		ldr	r0, [r7, #8]	@ float
 847 0062 4FF08E41 		mov	r1, #1191182336
 848 0066 FFF7FEFF 		bl	__aeabi_fmul
 849 006a 0346     		mov	r3, r0
 850 006c BB60     		str	r3, [r7, #8]	@ float
 522:.\Generated_Source\PSoC5/ADC_DelSig_1.c **** 		tmpReg = (uint16)tmpValue;
 851              		.loc 1 522 0
 852 006e B868     		ldr	r0, [r7, #8]	@ float
 853 0070 FFF7FEFF 		bl	__aeabi_f2uiz
 854 0074 0346     		mov	r3, r0
 855 0076 BB81     		strh	r3, [r7, #12]	@ movhi
 523:.\Generated_Source\PSoC5/ADC_DelSig_1.c ****         CY_SET_REG16(ADC_DelSig_1_DEC_GCOR_16B_PTR, tmpReg);
 856              		.loc 1 523 0
 857 0078 0D4B     		ldr	r3, .L28+16
 858 007a BA89     		ldrh	r2, [r7, #12]	@ movhi
 859 007c 1A80     		strh	r2, [r3]	@ movhi
 524:.\Generated_Source\PSoC5/ADC_DelSig_1.c ****         /* Update gain array to be used by SelectConfiguration() API */
 525:.\Generated_Source\PSoC5/ADC_DelSig_1.c ****        ADC_DelSig_1_gcor[ADC_DelSig_1_Config - 1u].gcor = tmpReg;
 860              		.loc 1 525 0
 861 007e 0A4B     		ldr	r3, .L28+8
 862 0080 1B78     		ldrb	r3, [r3]
 863 0082 DBB2     		uxtb	r3, r3
 864 0084 5A1E     		subs	r2, r3, #1
 865 0086 094B     		ldr	r3, .L28+12
 866 0088 B989     		ldrh	r1, [r7, #12]	@ movhi
 867 008a 23F82210 		strh	r1, [r3, r2, lsl #2]	@ movhi
 526:.\Generated_Source\PSoC5/ADC_DelSig_1.c **** 
 527:.\Generated_Source\PSoC5/ADC_DelSig_1.c ****         status = 0u;
 868              		.loc 1 527 0
 869 008e 0023     		movs	r3, #0
 870 0090 FB73     		strb	r3, [r7, #15]
 871              	.L24:
 528:.\Generated_Source\PSoC5/ADC_DelSig_1.c **** 
 529:.\Generated_Source\PSoC5/ADC_DelSig_1.c ****     }
 530:.\Generated_Source\PSoC5/ADC_DelSig_1.c ****     return(status);
 872              		.loc 1 530 0
 873 0092 FB7B     		ldrb	r3, [r7, #15]	@ zero_extendqisi2
 531:.\Generated_Source\PSoC5/ADC_DelSig_1.c **** }
 874              		.loc 1 531 0
 875 0094 1846     		mov	r0, r3
 876 0096 1037     		adds	r7, r7, #16
 877 0098 BD46     		mov	sp, r7
 878              		@ sp needed
 879 009a 80BD     		pop	{r7, pc}
 880              	.L29:
 881 009c AFF30080 		.align	3
 882              	.L28:
 883 00a0 8F537424 		.word	611603343
 884 00a4 97FFFF3F 		.word	1073741719
 885 00a8 00000000 		.word	ADC_DelSig_1_Config
 886 00ac 04000000 		.word	ADC_DelSig_1_gcor
 887 00b0 0C4E0040 		.word	1073761804
 888              		.cfi_endproc
 889              	.LFE6:
 890              		.size	ADC_DelSig_1_SetGCOR, .-ADC_DelSig_1_SetGCOR
 891 00b4 AFF30080 		.section	.text.ADC_DelSig_1_ReadGCOR,"ax",%progbits
ARM GAS  C:\Users\Charlie\AppData\Local\Temp\ccHLrwpJ.s 			page 26


 892              		.align	2
 893              		.global	ADC_DelSig_1_ReadGCOR
 894              		.thumb
 895              		.thumb_func
 896              		.type	ADC_DelSig_1_ReadGCOR, %function
 897              	ADC_DelSig_1_ReadGCOR:
 898              	.LFB7:
 532:.\Generated_Source\PSoC5/ADC_DelSig_1.c **** 
 533:.\Generated_Source\PSoC5/ADC_DelSig_1.c **** 
 534:.\Generated_Source\PSoC5/ADC_DelSig_1.c **** /******************************************************************************
 535:.\Generated_Source\PSoC5/ADC_DelSig_1.c **** * Function Name: ADC_DelSig_1_ReadGCOR
 536:.\Generated_Source\PSoC5/ADC_DelSig_1.c **** *******************************************************************************
 537:.\Generated_Source\PSoC5/ADC_DelSig_1.c **** *
 538:.\Generated_Source\PSoC5/ADC_DelSig_1.c **** * Summary:
 539:.\Generated_Source\PSoC5/ADC_DelSig_1.c **** *  This API returns the current GCOR register value, normalized based on the
 540:.\Generated_Source\PSoC5/ADC_DelSig_1.c **** *  GVAL register settings.
 541:.\Generated_Source\PSoC5/ADC_DelSig_1.c **** *  For example, if the GCOR value is 0x0812 and the GVAL register is set to 
 542:.\Generated_Source\PSoC5/ADC_DelSig_1.c **** *  11 (0x0B) then the returned value will be shifted by for bits to the left.
 543:.\Generated_Source\PSoC5/ADC_DelSig_1.c **** *  (Actual GCOR value = 0x0812, returned value = 0x8120)
 544:.\Generated_Source\PSoC5/ADC_DelSig_1.c **** *
 545:.\Generated_Source\PSoC5/ADC_DelSig_1.c **** * Parameters:
 546:.\Generated_Source\PSoC5/ADC_DelSig_1.c **** *  None
 547:.\Generated_Source\PSoC5/ADC_DelSig_1.c **** *
 548:.\Generated_Source\PSoC5/ADC_DelSig_1.c **** * Return:
 549:.\Generated_Source\PSoC5/ADC_DelSig_1.c **** *  uint16:  Normalized GCOR value.
 550:.\Generated_Source\PSoC5/ADC_DelSig_1.c **** *
 551:.\Generated_Source\PSoC5/ADC_DelSig_1.c **** *******************************************************************************/
 552:.\Generated_Source\PSoC5/ADC_DelSig_1.c **** uint16 ADC_DelSig_1_ReadGCOR(void) 
 553:.\Generated_Source\PSoC5/ADC_DelSig_1.c **** {
 899              		.loc 1 553 0
 900              		.cfi_startproc
 901              		@ args = 0, pretend = 0, frame = 8
 902              		@ frame_needed = 1, uses_anonymous_args = 0
 903              		@ link register save eliminated.
 904 0000 80B4     		push	{r7}
 905              		.cfi_def_cfa_offset 4
 906              		.cfi_offset 7, -4
 907 0002 83B0     		sub	sp, sp, #12
 908              		.cfi_def_cfa_offset 16
 909 0004 00AF     		add	r7, sp, #0
 910              		.cfi_def_cfa_register 7
 554:.\Generated_Source\PSoC5/ADC_DelSig_1.c ****     uint8 gValue;
 555:.\Generated_Source\PSoC5/ADC_DelSig_1.c ****     uint16 gcorValue;
 556:.\Generated_Source\PSoC5/ADC_DelSig_1.c **** 
 557:.\Generated_Source\PSoC5/ADC_DelSig_1.c ****     gValue = ADC_DelSig_1_DEC_GVAL_REG;
 911              		.loc 1 557 0
 912 0006 0B4B     		ldr	r3, .L33
 913 0008 1B78     		ldrb	r3, [r3]
 914 000a 7B71     		strb	r3, [r7, #5]
 558:.\Generated_Source\PSoC5/ADC_DelSig_1.c ****     gcorValue = CY_GET_REG16(ADC_DelSig_1_DEC_GCOR_16B_PTR);
 915              		.loc 1 558 0
 916 000c 0A4B     		ldr	r3, .L33+4
 917 000e 1B88     		ldrh	r3, [r3]	@ movhi
 918 0010 FB80     		strh	r3, [r7, #6]	@ movhi
 559:.\Generated_Source\PSoC5/ADC_DelSig_1.c **** 
 560:.\Generated_Source\PSoC5/ADC_DelSig_1.c ****     if (gValue < ADC_DelSig_1_MAX_GVAL)
 919              		.loc 1 560 0
ARM GAS  C:\Users\Charlie\AppData\Local\Temp\ccHLrwpJ.s 			page 27


 920 0012 7B79     		ldrb	r3, [r7, #5]	@ zero_extendqisi2
 921 0014 0E2B     		cmp	r3, #14
 922 0016 06D8     		bhi	.L31
 561:.\Generated_Source\PSoC5/ADC_DelSig_1.c ****     {
 562:.\Generated_Source\PSoC5/ADC_DelSig_1.c ****         gcorValue <<= ADC_DelSig_1_MAX_GVAL - gValue;
 923              		.loc 1 562 0
 924 0018 FA88     		ldrh	r2, [r7, #6]
 925 001a 7B79     		ldrb	r3, [r7, #5]	@ zero_extendqisi2
 926 001c C3F10F03 		rsb	r3, r3, #15
 927 0020 02FA03F3 		lsl	r3, r2, r3
 928 0024 FB80     		strh	r3, [r7, #6]	@ movhi
 929              	.L31:
 563:.\Generated_Source\PSoC5/ADC_DelSig_1.c ****     }
 564:.\Generated_Source\PSoC5/ADC_DelSig_1.c **** 
 565:.\Generated_Source\PSoC5/ADC_DelSig_1.c ****     return gcorValue;
 930              		.loc 1 565 0
 931 0026 FB88     		ldrh	r3, [r7, #6]
 566:.\Generated_Source\PSoC5/ADC_DelSig_1.c **** }
 932              		.loc 1 566 0
 933 0028 1846     		mov	r0, r3
 934 002a 0C37     		adds	r7, r7, #12
 935 002c BD46     		mov	sp, r7
 936              		@ sp needed
 937 002e 5DF8047B 		ldr	r7, [sp], #4
 938 0032 7047     		bx	lr
 939              	.L34:
 940              		.align	2
 941              	.L33:
 942 0034 0E4E0040 		.word	1073761806
 943 0038 0C4E0040 		.word	1073761804
 944              		.cfi_endproc
 945              	.LFE7:
 946              		.size	ADC_DelSig_1_ReadGCOR, .-ADC_DelSig_1_ReadGCOR
 947              		.section	.text.ADC_DelSig_1_StartConvert,"ax",%progbits
 948              		.align	2
 949              		.global	ADC_DelSig_1_StartConvert
 950              		.thumb
 951              		.thumb_func
 952              		.type	ADC_DelSig_1_StartConvert, %function
 953              	ADC_DelSig_1_StartConvert:
 954              	.LFB8:
 567:.\Generated_Source\PSoC5/ADC_DelSig_1.c **** 
 568:.\Generated_Source\PSoC5/ADC_DelSig_1.c **** 
 569:.\Generated_Source\PSoC5/ADC_DelSig_1.c **** /*******************************************************************************
 570:.\Generated_Source\PSoC5/ADC_DelSig_1.c **** * Function Name: ADC_DelSig_1_StartConvert
 571:.\Generated_Source\PSoC5/ADC_DelSig_1.c **** ********************************************************************************
 572:.\Generated_Source\PSoC5/ADC_DelSig_1.c **** *
 573:.\Generated_Source\PSoC5/ADC_DelSig_1.c **** * Summary:
 574:.\Generated_Source\PSoC5/ADC_DelSig_1.c **** *  Forces the ADC to initiate a conversion. If in the "Single Sample"
 575:.\Generated_Source\PSoC5/ADC_DelSig_1.c **** *  mode, one conversion will be performed then the ADC will halt. If in
 576:.\Generated_Source\PSoC5/ADC_DelSig_1.c **** *  one of the other three conversion modes, the ADC will run
 577:.\Generated_Source\PSoC5/ADC_DelSig_1.c **** *  continuously until the ADC_Stop() or ADC_StopConvert() is called.
 578:.\Generated_Source\PSoC5/ADC_DelSig_1.c **** *
 579:.\Generated_Source\PSoC5/ADC_DelSig_1.c **** * Parameters:
 580:.\Generated_Source\PSoC5/ADC_DelSig_1.c **** *  None
 581:.\Generated_Source\PSoC5/ADC_DelSig_1.c **** *
 582:.\Generated_Source\PSoC5/ADC_DelSig_1.c **** * Return:
ARM GAS  C:\Users\Charlie\AppData\Local\Temp\ccHLrwpJ.s 			page 28


 583:.\Generated_Source\PSoC5/ADC_DelSig_1.c **** *  None
 584:.\Generated_Source\PSoC5/ADC_DelSig_1.c **** *
 585:.\Generated_Source\PSoC5/ADC_DelSig_1.c **** *******************************************************************************/
 586:.\Generated_Source\PSoC5/ADC_DelSig_1.c **** void ADC_DelSig_1_StartConvert(void) 
 587:.\Generated_Source\PSoC5/ADC_DelSig_1.c **** {
 955              		.loc 1 587 0
 956              		.cfi_startproc
 957              		@ args = 0, pretend = 0, frame = 0
 958              		@ frame_needed = 1, uses_anonymous_args = 0
 959              		@ link register save eliminated.
 960 0000 80B4     		push	{r7}
 961              		.cfi_def_cfa_offset 4
 962              		.cfi_offset 7, -4
 963 0002 00AF     		add	r7, sp, #0
 964              		.cfi_def_cfa_register 7
 588:.\Generated_Source\PSoC5/ADC_DelSig_1.c ****     /* Start the conversion */
 589:.\Generated_Source\PSoC5/ADC_DelSig_1.c ****     ADC_DelSig_1_DEC_CR_REG |= ADC_DelSig_1_DEC_START_CONV;
 965              		.loc 1 589 0
 966 0004 054B     		ldr	r3, .L36
 967 0006 054A     		ldr	r2, .L36
 968 0008 1278     		ldrb	r2, [r2]
 969 000a D2B2     		uxtb	r2, r2
 970 000c 42F00102 		orr	r2, r2, #1
 971 0010 D2B2     		uxtb	r2, r2
 972 0012 1A70     		strb	r2, [r3]
 590:.\Generated_Source\PSoC5/ADC_DelSig_1.c **** }
 973              		.loc 1 590 0
 974 0014 BD46     		mov	sp, r7
 975              		@ sp needed
 976 0016 5DF8047B 		ldr	r7, [sp], #4
 977 001a 7047     		bx	lr
 978              	.L37:
 979              		.align	2
 980              	.L36:
 981 001c 004E0040 		.word	1073761792
 982              		.cfi_endproc
 983              	.LFE8:
 984              		.size	ADC_DelSig_1_StartConvert, .-ADC_DelSig_1_StartConvert
 985              		.section	.text.ADC_DelSig_1_StopConvert,"ax",%progbits
 986              		.align	2
 987              		.global	ADC_DelSig_1_StopConvert
 988              		.thumb
 989              		.thumb_func
 990              		.type	ADC_DelSig_1_StopConvert, %function
 991              	ADC_DelSig_1_StopConvert:
 992              	.LFB9:
 591:.\Generated_Source\PSoC5/ADC_DelSig_1.c **** 
 592:.\Generated_Source\PSoC5/ADC_DelSig_1.c **** 
 593:.\Generated_Source\PSoC5/ADC_DelSig_1.c **** /*******************************************************************************
 594:.\Generated_Source\PSoC5/ADC_DelSig_1.c **** * Function Name: ADC_DelSig_1_StopConvert
 595:.\Generated_Source\PSoC5/ADC_DelSig_1.c **** ********************************************************************************
 596:.\Generated_Source\PSoC5/ADC_DelSig_1.c **** *
 597:.\Generated_Source\PSoC5/ADC_DelSig_1.c **** * Summary:
 598:.\Generated_Source\PSoC5/ADC_DelSig_1.c **** *  Forces the ADC to stop all conversions. If the ADC is in the middle of a
 599:.\Generated_Source\PSoC5/ADC_DelSig_1.c **** *  conversion, the ADC will be reset and not provide a result for that partial
 600:.\Generated_Source\PSoC5/ADC_DelSig_1.c **** *  conversion.
 601:.\Generated_Source\PSoC5/ADC_DelSig_1.c **** *
ARM GAS  C:\Users\Charlie\AppData\Local\Temp\ccHLrwpJ.s 			page 29


 602:.\Generated_Source\PSoC5/ADC_DelSig_1.c **** * Parameters:
 603:.\Generated_Source\PSoC5/ADC_DelSig_1.c **** *  None
 604:.\Generated_Source\PSoC5/ADC_DelSig_1.c **** *
 605:.\Generated_Source\PSoC5/ADC_DelSig_1.c **** * Return:
 606:.\Generated_Source\PSoC5/ADC_DelSig_1.c **** *  None
 607:.\Generated_Source\PSoC5/ADC_DelSig_1.c **** *
 608:.\Generated_Source\PSoC5/ADC_DelSig_1.c **** *******************************************************************************/
 609:.\Generated_Source\PSoC5/ADC_DelSig_1.c **** void ADC_DelSig_1_StopConvert(void) 
 610:.\Generated_Source\PSoC5/ADC_DelSig_1.c **** {
 993              		.loc 1 610 0
 994              		.cfi_startproc
 995              		@ args = 0, pretend = 0, frame = 0
 996              		@ frame_needed = 1, uses_anonymous_args = 0
 997              		@ link register save eliminated.
 998 0000 80B4     		push	{r7}
 999              		.cfi_def_cfa_offset 4
 1000              		.cfi_offset 7, -4
 1001 0002 00AF     		add	r7, sp, #0
 1002              		.cfi_def_cfa_register 7
 611:.\Generated_Source\PSoC5/ADC_DelSig_1.c ****     /* Stop all conversions */
 612:.\Generated_Source\PSoC5/ADC_DelSig_1.c ****     ADC_DelSig_1_DEC_CR_REG &= (uint8)~ADC_DelSig_1_DEC_START_CONV;
 1003              		.loc 1 612 0
 1004 0004 054B     		ldr	r3, .L39
 1005 0006 054A     		ldr	r2, .L39
 1006 0008 1278     		ldrb	r2, [r2]
 1007 000a D2B2     		uxtb	r2, r2
 1008 000c 22F00102 		bic	r2, r2, #1
 1009 0010 D2B2     		uxtb	r2, r2
 1010 0012 1A70     		strb	r2, [r3]
 613:.\Generated_Source\PSoC5/ADC_DelSig_1.c **** }
 1011              		.loc 1 613 0
 1012 0014 BD46     		mov	sp, r7
 1013              		@ sp needed
 1014 0016 5DF8047B 		ldr	r7, [sp], #4
 1015 001a 7047     		bx	lr
 1016              	.L40:
 1017              		.align	2
 1018              	.L39:
 1019 001c 004E0040 		.word	1073761792
 1020              		.cfi_endproc
 1021              	.LFE9:
 1022              		.size	ADC_DelSig_1_StopConvert, .-ADC_DelSig_1_StopConvert
 1023              		.section	.text.ADC_DelSig_1_IsEndConversion,"ax",%progbits
 1024              		.align	2
 1025              		.global	ADC_DelSig_1_IsEndConversion
 1026              		.thumb
 1027              		.thumb_func
 1028              		.type	ADC_DelSig_1_IsEndConversion, %function
 1029              	ADC_DelSig_1_IsEndConversion:
 1030              	.LFB10:
 614:.\Generated_Source\PSoC5/ADC_DelSig_1.c **** 
 615:.\Generated_Source\PSoC5/ADC_DelSig_1.c **** 
 616:.\Generated_Source\PSoC5/ADC_DelSig_1.c **** /*******************************************************************************
 617:.\Generated_Source\PSoC5/ADC_DelSig_1.c **** * Function Name: ADC_DelSig_1_IsEndConversion
 618:.\Generated_Source\PSoC5/ADC_DelSig_1.c **** ********************************************************************************
 619:.\Generated_Source\PSoC5/ADC_DelSig_1.c **** *
 620:.\Generated_Source\PSoC5/ADC_DelSig_1.c **** * Summary:
ARM GAS  C:\Users\Charlie\AppData\Local\Temp\ccHLrwpJ.s 			page 30


 621:.\Generated_Source\PSoC5/ADC_DelSig_1.c **** *  Checks the status that the most recently started conversion has completed.
 622:.\Generated_Source\PSoC5/ADC_DelSig_1.c **** *  The status is cleared by any of ADC_GetResult8(), ADC_GetResult16() or 
 623:.\Generated_Source\PSoC5/ADC_DelSig_1.c **** *  ADC_GetResult32() API.
 624:.\Generated_Source\PSoC5/ADC_DelSig_1.c **** *  This function provides the programmer with two options. In one mode this 
 625:.\Generated_Source\PSoC5/ADC_DelSig_1.c **** *  function immediately returns with the conversion status. In the other mode,
 626:.\Generated_Source\PSoC5/ADC_DelSig_1.c **** *  the function does not return (blocking) until the conversion has completed.
 627:.\Generated_Source\PSoC5/ADC_DelSig_1.c **** *
 628:.\Generated_Source\PSoC5/ADC_DelSig_1.c **** * Parameters:
 629:.\Generated_Source\PSoC5/ADC_DelSig_1.c **** *  retMode: Check conversion return mode. See the following table for options.
 630:.\Generated_Source\PSoC5/ADC_DelSig_1.c **** *   ADC_DelSig_1_RETURN_STATUS -   Immediately returns conversion result
 631:.\Generated_Source\PSoC5/ADC_DelSig_1.c **** *                                      status.
 632:.\Generated_Source\PSoC5/ADC_DelSig_1.c **** *   ADC_DelSig_1_WAIT_FOR_RESULT - Does not return until ADC conversion
 633:.\Generated_Source\PSoC5/ADC_DelSig_1.c **** *                                      is complete.
 634:.\Generated_Source\PSoC5/ADC_DelSig_1.c **** *
 635:.\Generated_Source\PSoC5/ADC_DelSig_1.c **** * Return:
 636:.\Generated_Source\PSoC5/ADC_DelSig_1.c **** *  If a nonzero value is returned, the last conversion has completed.
 637:.\Generated_Source\PSoC5/ADC_DelSig_1.c **** *  If the returned value is zero, the ADC is still calculating the last result.
 638:.\Generated_Source\PSoC5/ADC_DelSig_1.c **** *
 639:.\Generated_Source\PSoC5/ADC_DelSig_1.c **** * Global variables:
 640:.\Generated_Source\PSoC5/ADC_DelSig_1.c **** *  ADC_DelSig_1_convDone:  Used to check whether conversion is complete
 641:.\Generated_Source\PSoC5/ADC_DelSig_1.c **** *  or not for single sample mode with resolution is above 16
 642:.\Generated_Source\PSoC5/ADC_DelSig_1.c **** *
 643:.\Generated_Source\PSoC5/ADC_DelSig_1.c **** *******************************************************************************/
 644:.\Generated_Source\PSoC5/ADC_DelSig_1.c **** uint8 ADC_DelSig_1_IsEndConversion(uint8 retMode) 
 645:.\Generated_Source\PSoC5/ADC_DelSig_1.c **** {
 1031              		.loc 1 645 0
 1032              		.cfi_startproc
 1033              		@ args = 0, pretend = 0, frame = 16
 1034              		@ frame_needed = 1, uses_anonymous_args = 0
 1035              		@ link register save eliminated.
 1036 0000 80B4     		push	{r7}
 1037              		.cfi_def_cfa_offset 4
 1038              		.cfi_offset 7, -4
 1039 0002 85B0     		sub	sp, sp, #20
 1040              		.cfi_def_cfa_offset 24
 1041 0004 00AF     		add	r7, sp, #0
 1042              		.cfi_def_cfa_register 7
 1043 0006 0346     		mov	r3, r0
 1044 0008 FB71     		strb	r3, [r7, #7]
 1045              	.L45:
 646:.\Generated_Source\PSoC5/ADC_DelSig_1.c ****     uint8 status;
 647:.\Generated_Source\PSoC5/ADC_DelSig_1.c **** 
 648:.\Generated_Source\PSoC5/ADC_DelSig_1.c ****     do
 649:.\Generated_Source\PSoC5/ADC_DelSig_1.c ****     {
 650:.\Generated_Source\PSoC5/ADC_DelSig_1.c ****         /* Check for stop convert if conversion mode is Single Sample with
 651:.\Generated_Source\PSoC5/ADC_DelSig_1.c ****         *   resolution above 16 bit
 652:.\Generated_Source\PSoC5/ADC_DelSig_1.c ****         */
 653:.\Generated_Source\PSoC5/ADC_DelSig_1.c ****         if(ADC_DelSig_1_stopConversion != 0u)
 1046              		.loc 1 653 0
 1047 000a 0E4B     		ldr	r3, .L47
 1048 000c 1B78     		ldrb	r3, [r3]
 1049 000e DBB2     		uxtb	r3, r3
 1050 0010 002B     		cmp	r3, #0
 1051 0012 03D0     		beq	.L42
 654:.\Generated_Source\PSoC5/ADC_DelSig_1.c ****         {
 655:.\Generated_Source\PSoC5/ADC_DelSig_1.c ****             status = ADC_DelSig_1_convDone;
 1052              		.loc 1 655 0
ARM GAS  C:\Users\Charlie\AppData\Local\Temp\ccHLrwpJ.s 			page 31


 1053 0014 0C4B     		ldr	r3, .L47+4
 1054 0016 1B78     		ldrb	r3, [r3]
 1055 0018 FB73     		strb	r3, [r7, #15]
 1056 001a 05E0     		b	.L43
 1057              	.L42:
 656:.\Generated_Source\PSoC5/ADC_DelSig_1.c ****         }
 657:.\Generated_Source\PSoC5/ADC_DelSig_1.c ****         else
 658:.\Generated_Source\PSoC5/ADC_DelSig_1.c ****         {
 659:.\Generated_Source\PSoC5/ADC_DelSig_1.c ****             status = ADC_DelSig_1_DEC_SR_REG & ADC_DelSig_1_DEC_CONV_DONE;
 1058              		.loc 1 659 0
 1059 001c 0B4B     		ldr	r3, .L47+8
 1060 001e 1B78     		ldrb	r3, [r3]
 1061 0020 DBB2     		uxtb	r3, r3
 1062 0022 03F00103 		and	r3, r3, #1
 1063 0026 FB73     		strb	r3, [r7, #15]
 1064              	.L43:
 660:.\Generated_Source\PSoC5/ADC_DelSig_1.c ****         }
 661:.\Generated_Source\PSoC5/ADC_DelSig_1.c ****     }while((status != ADC_DelSig_1_DEC_CONV_DONE) && (retMode == ADC_DelSig_1_WAIT_FOR_RESULT));
 1065              		.loc 1 661 0
 1066 0028 FB7B     		ldrb	r3, [r7, #15]	@ zero_extendqisi2
 1067 002a 012B     		cmp	r3, #1
 1068 002c 02D0     		beq	.L44
 1069              		.loc 1 661 0 is_stmt 0 discriminator 1
 1070 002e FB79     		ldrb	r3, [r7, #7]	@ zero_extendqisi2
 1071 0030 002B     		cmp	r3, #0
 1072 0032 EAD0     		beq	.L45
 1073              	.L44:
 662:.\Generated_Source\PSoC5/ADC_DelSig_1.c **** 
 663:.\Generated_Source\PSoC5/ADC_DelSig_1.c ****     return(status);
 1074              		.loc 1 663 0 is_stmt 1
 1075 0034 FB7B     		ldrb	r3, [r7, #15]	@ zero_extendqisi2
 664:.\Generated_Source\PSoC5/ADC_DelSig_1.c **** }
 1076              		.loc 1 664 0
 1077 0036 1846     		mov	r0, r3
 1078 0038 1437     		adds	r7, r7, #20
 1079 003a BD46     		mov	sp, r7
 1080              		@ sp needed
 1081 003c 5DF8047B 		ldr	r7, [sp], #4
 1082 0040 7047     		bx	lr
 1083              	.L48:
 1084 0042 00BF     		.align	2
 1085              	.L47:
 1086 0044 00000000 		.word	ADC_DelSig_1_stopConversion
 1087 0048 00000000 		.word	ADC_DelSig_1_convDone
 1088 004c 014E0040 		.word	1073761793
 1089              		.cfi_endproc
 1090              	.LFE10:
 1091              		.size	ADC_DelSig_1_IsEndConversion, .-ADC_DelSig_1_IsEndConversion
 1092              		.section	.text.ADC_DelSig_1_GetResult8,"ax",%progbits
 1093              		.align	2
 1094              		.global	ADC_DelSig_1_GetResult8
 1095              		.thumb
 1096              		.thumb_func
 1097              		.type	ADC_DelSig_1_GetResult8, %function
 1098              	ADC_DelSig_1_GetResult8:
 1099              	.LFB11:
 665:.\Generated_Source\PSoC5/ADC_DelSig_1.c **** 
ARM GAS  C:\Users\Charlie\AppData\Local\Temp\ccHLrwpJ.s 			page 32


 666:.\Generated_Source\PSoC5/ADC_DelSig_1.c **** 
 667:.\Generated_Source\PSoC5/ADC_DelSig_1.c **** /*******************************************************************************
 668:.\Generated_Source\PSoC5/ADC_DelSig_1.c **** * Function Name: ADC_DelSig_1_GetResult8
 669:.\Generated_Source\PSoC5/ADC_DelSig_1.c **** ********************************************************************************
 670:.\Generated_Source\PSoC5/ADC_DelSig_1.c **** *
 671:.\Generated_Source\PSoC5/ADC_DelSig_1.c **** * Summary:
 672:.\Generated_Source\PSoC5/ADC_DelSig_1.c **** *  This function returns the result of an 8-bit conversion. If the
 673:.\Generated_Source\PSoC5/ADC_DelSig_1.c **** *  resolution is set greater than 8-bits, the LSB of the result will be
 674:.\Generated_Source\PSoC5/ADC_DelSig_1.c **** *  returned. When the ADC is configured for 8-bit single ended mode,
 675:.\Generated_Source\PSoC5/ADC_DelSig_1.c **** *  the ADC_GetResult16() function should be used instead. This
 676:.\Generated_Source\PSoC5/ADC_DelSig_1.c **** *  function returns only signed 8-bit values. The maximum positive
 677:.\Generated_Source\PSoC5/ADC_DelSig_1.c **** *  signed 8-bit value is 127, but in singled ended 8-bit mode, the
 678:.\Generated_Source\PSoC5/ADC_DelSig_1.c **** *  maximum positive value is 255.
 679:.\Generated_Source\PSoC5/ADC_DelSig_1.c **** *
 680:.\Generated_Source\PSoC5/ADC_DelSig_1.c **** * Parameters:
 681:.\Generated_Source\PSoC5/ADC_DelSig_1.c **** *  None
 682:.\Generated_Source\PSoC5/ADC_DelSig_1.c **** *
 683:.\Generated_Source\PSoC5/ADC_DelSig_1.c **** * Return:
 684:.\Generated_Source\PSoC5/ADC_DelSig_1.c **** *  int8: The LSB of the last ADC conversion.
 685:.\Generated_Source\PSoC5/ADC_DelSig_1.c **** *
 686:.\Generated_Source\PSoC5/ADC_DelSig_1.c **** * Global variables:
 687:.\Generated_Source\PSoC5/ADC_DelSig_1.c **** *  ADC_DelSig_1_convDone:  Cleared in single sample mode with resolution
 688:.\Generated_Source\PSoC5/ADC_DelSig_1.c **** *                              above 16 bits
 689:.\Generated_Source\PSoC5/ADC_DelSig_1.c **** *
 690:.\Generated_Source\PSoC5/ADC_DelSig_1.c **** *******************************************************************************/
 691:.\Generated_Source\PSoC5/ADC_DelSig_1.c **** int8 ADC_DelSig_1_GetResult8( void ) 
 692:.\Generated_Source\PSoC5/ADC_DelSig_1.c **** {
 1100              		.loc 1 692 0
 1101              		.cfi_startproc
 1102              		@ args = 0, pretend = 0, frame = 8
 1103              		@ frame_needed = 1, uses_anonymous_args = 0
 1104              		@ link register save eliminated.
 1105 0000 80B4     		push	{r7}
 1106              		.cfi_def_cfa_offset 4
 1107              		.cfi_offset 7, -4
 1108 0002 83B0     		sub	sp, sp, #12
 1109              		.cfi_def_cfa_offset 16
 1110 0004 00AF     		add	r7, sp, #0
 1111              		.cfi_def_cfa_register 7
 693:.\Generated_Source\PSoC5/ADC_DelSig_1.c ****     int8 result;
 694:.\Generated_Source\PSoC5/ADC_DelSig_1.c ****     uint8 coherency;
 695:.\Generated_Source\PSoC5/ADC_DelSig_1.c **** 
 696:.\Generated_Source\PSoC5/ADC_DelSig_1.c ****     /* Read active coherency configuration */
 697:.\Generated_Source\PSoC5/ADC_DelSig_1.c ****     coherency = ADC_DelSig_1_DEC_COHER_REG & ADC_DelSig_1_DEC_SAMP_KEY_MASK;
 1112              		.loc 1 697 0
 1113 0006 124B     		ldr	r3, .L54
 1114 0008 1B78     		ldrb	r3, [r3]
 1115 000a DBB2     		uxtb	r3, r3
 1116 000c 03F00303 		and	r3, r3, #3
 1117 0010 FB71     		strb	r3, [r7, #7]
 698:.\Generated_Source\PSoC5/ADC_DelSig_1.c **** 
 699:.\Generated_Source\PSoC5/ADC_DelSig_1.c ****     result = (int8)ADC_DelSig_1_DEC_SAMP_REG;
 1118              		.loc 1 699 0
 1119 0012 104B     		ldr	r3, .L54+4
 1120 0014 1B78     		ldrb	r3, [r3]
 1121 0016 DBB2     		uxtb	r3, r3
 1122 0018 BB71     		strb	r3, [r7, #6]
ARM GAS  C:\Users\Charlie\AppData\Local\Temp\ccHLrwpJ.s 			page 33


 700:.\Generated_Source\PSoC5/ADC_DelSig_1.c **** 
 701:.\Generated_Source\PSoC5/ADC_DelSig_1.c ****     if(coherency == ADC_DelSig_1_DEC_SAMP_KEY_MID)
 1123              		.loc 1 701 0
 1124 001a FB79     		ldrb	r3, [r7, #7]	@ zero_extendqisi2
 1125 001c 022B     		cmp	r3, #2
 1126 001e 02D1     		bne	.L50
 702:.\Generated_Source\PSoC5/ADC_DelSig_1.c ****     {   /* Dummy read of the middle byte to unlock the coherency */
 703:.\Generated_Source\PSoC5/ADC_DelSig_1.c ****         (void)ADC_DelSig_1_DEC_SAMPM_REG;
 1127              		.loc 1 703 0
 1128 0020 0D4B     		ldr	r3, .L54+8
 1129 0022 1B78     		ldrb	r3, [r3]
 1130 0024 04E0     		b	.L51
 1131              	.L50:
 704:.\Generated_Source\PSoC5/ADC_DelSig_1.c ****     }
 705:.\Generated_Source\PSoC5/ADC_DelSig_1.c ****     else  if(coherency == ADC_DelSig_1_DEC_SAMP_KEY_HIGH)
 1132              		.loc 1 705 0
 1133 0026 FB79     		ldrb	r3, [r7, #7]	@ zero_extendqisi2
 1134 0028 032B     		cmp	r3, #3
 1135 002a 01D1     		bne	.L51
 706:.\Generated_Source\PSoC5/ADC_DelSig_1.c ****     {   /* Dummy read of the MSB byte to unlock the coherency */
 707:.\Generated_Source\PSoC5/ADC_DelSig_1.c ****         (void)ADC_DelSig_1_DEC_SAMPH_REG;
 1136              		.loc 1 707 0
 1137 002c 0B4B     		ldr	r3, .L54+12
 1138 002e 1B78     		ldrb	r3, [r3]
 1139              	.L51:
 708:.\Generated_Source\PSoC5/ADC_DelSig_1.c ****     }
 709:.\Generated_Source\PSoC5/ADC_DelSig_1.c ****     else /*No action required for other coherency */
 710:.\Generated_Source\PSoC5/ADC_DelSig_1.c ****     {
 711:.\Generated_Source\PSoC5/ADC_DelSig_1.c ****     }
 712:.\Generated_Source\PSoC5/ADC_DelSig_1.c ****     /* Clear conversion complete status in Single Sample mode with resolution above 16 bit */
 713:.\Generated_Source\PSoC5/ADC_DelSig_1.c ****     if(ADC_DelSig_1_stopConversion != 0u)
 1140              		.loc 1 713 0
 1141 0030 0B4B     		ldr	r3, .L54+16
 1142 0032 1B78     		ldrb	r3, [r3]
 1143 0034 DBB2     		uxtb	r3, r3
 1144 0036 002B     		cmp	r3, #0
 1145 0038 02D0     		beq	.L52
 714:.\Generated_Source\PSoC5/ADC_DelSig_1.c ****     {
 715:.\Generated_Source\PSoC5/ADC_DelSig_1.c ****         ADC_DelSig_1_convDone = 0u;
 1146              		.loc 1 715 0
 1147 003a 0A4B     		ldr	r3, .L54+20
 1148 003c 0022     		movs	r2, #0
 1149 003e 1A70     		strb	r2, [r3]
 1150              	.L52:
 716:.\Generated_Source\PSoC5/ADC_DelSig_1.c ****     }
 717:.\Generated_Source\PSoC5/ADC_DelSig_1.c ****     return (result);
 1151              		.loc 1 717 0
 1152 0040 BB79     		ldrb	r3, [r7, #6]	@ zero_extendqisi2
 1153 0042 5BB2     		sxtb	r3, r3
 718:.\Generated_Source\PSoC5/ADC_DelSig_1.c **** }
 1154              		.loc 1 718 0
 1155 0044 1846     		mov	r0, r3
 1156 0046 0C37     		adds	r7, r7, #12
 1157 0048 BD46     		mov	sp, r7
 1158              		@ sp needed
 1159 004a 5DF8047B 		ldr	r7, [sp], #4
 1160 004e 7047     		bx	lr
ARM GAS  C:\Users\Charlie\AppData\Local\Temp\ccHLrwpJ.s 			page 34


 1161              	.L55:
 1162              		.align	2
 1163              	.L54:
 1164 0050 144E0040 		.word	1073761812
 1165 0054 104E0040 		.word	1073761808
 1166 0058 114E0040 		.word	1073761809
 1167 005c 124E0040 		.word	1073761810
 1168 0060 00000000 		.word	ADC_DelSig_1_stopConversion
 1169 0064 00000000 		.word	ADC_DelSig_1_convDone
 1170              		.cfi_endproc
 1171              	.LFE11:
 1172              		.size	ADC_DelSig_1_GetResult8, .-ADC_DelSig_1_GetResult8
 1173              		.section	.text.ADC_DelSig_1_GetResult16,"ax",%progbits
 1174              		.align	2
 1175              		.global	ADC_DelSig_1_GetResult16
 1176              		.thumb
 1177              		.thumb_func
 1178              		.type	ADC_DelSig_1_GetResult16, %function
 1179              	ADC_DelSig_1_GetResult16:
 1180              	.LFB12:
 719:.\Generated_Source\PSoC5/ADC_DelSig_1.c **** 
 720:.\Generated_Source\PSoC5/ADC_DelSig_1.c **** 
 721:.\Generated_Source\PSoC5/ADC_DelSig_1.c **** /*******************************************************************************
 722:.\Generated_Source\PSoC5/ADC_DelSig_1.c **** * Function Name: ADC_DelSig_1_GetResult16
 723:.\Generated_Source\PSoC5/ADC_DelSig_1.c **** ********************************************************************************
 724:.\Generated_Source\PSoC5/ADC_DelSig_1.c **** *
 725:.\Generated_Source\PSoC5/ADC_DelSig_1.c **** * Summary:
 726:.\Generated_Source\PSoC5/ADC_DelSig_1.c **** *  Returns a 16-bit result for a conversion with a result that has a
 727:.\Generated_Source\PSoC5/ADC_DelSig_1.c **** *  resolution of 8 to 16 bits. If the resolution is set greater than 16-bits,
 728:.\Generated_Source\PSoC5/ADC_DelSig_1.c **** *  it will return the 16 least significant bits of the result. When the ADC
 729:.\Generated_Source\PSoC5/ADC_DelSig_1.c **** *  is configured for 16-bit single ended mode, the ADC_GetResult32()
 730:.\Generated_Source\PSoC5/ADC_DelSig_1.c **** *  function should be used instead. This function returns only signed
 731:.\Generated_Source\PSoC5/ADC_DelSig_1.c **** *  16-bit result, which allows a maximum positive value of 32767, not 65535.
 732:.\Generated_Source\PSoC5/ADC_DelSig_1.c **** *  This function supports different coherency settings.
 733:.\Generated_Source\PSoC5/ADC_DelSig_1.c **** *
 734:.\Generated_Source\PSoC5/ADC_DelSig_1.c **** * Parameters:
 735:.\Generated_Source\PSoC5/ADC_DelSig_1.c **** *   void
 736:.\Generated_Source\PSoC5/ADC_DelSig_1.c **** *
 737:.\Generated_Source\PSoC5/ADC_DelSig_1.c **** * Return:
 738:.\Generated_Source\PSoC5/ADC_DelSig_1.c **** *  int16:  ADC result.
 739:.\Generated_Source\PSoC5/ADC_DelSig_1.c **** *
 740:.\Generated_Source\PSoC5/ADC_DelSig_1.c **** * Global variables:
 741:.\Generated_Source\PSoC5/ADC_DelSig_1.c **** *  ADC_DelSig_1_convDone:  Cleared in single sample mode with resolution
 742:.\Generated_Source\PSoC5/ADC_DelSig_1.c **** *                              above 16 bits
 743:.\Generated_Source\PSoC5/ADC_DelSig_1.c **** *
 744:.\Generated_Source\PSoC5/ADC_DelSig_1.c **** *******************************************************************************/
 745:.\Generated_Source\PSoC5/ADC_DelSig_1.c **** int16 ADC_DelSig_1_GetResult16(void) 
 746:.\Generated_Source\PSoC5/ADC_DelSig_1.c **** {
 1181              		.loc 1 746 0
 1182              		.cfi_startproc
 1183              		@ args = 0, pretend = 0, frame = 8
 1184              		@ frame_needed = 1, uses_anonymous_args = 0
 1185              		@ link register save eliminated.
 1186 0000 80B4     		push	{r7}
 1187              		.cfi_def_cfa_offset 4
 1188              		.cfi_offset 7, -4
 1189 0002 83B0     		sub	sp, sp, #12
ARM GAS  C:\Users\Charlie\AppData\Local\Temp\ccHLrwpJ.s 			page 35


 1190              		.cfi_def_cfa_offset 16
 1191 0004 00AF     		add	r7, sp, #0
 1192              		.cfi_def_cfa_register 7
 747:.\Generated_Source\PSoC5/ADC_DelSig_1.c ****     uint16 result;
 748:.\Generated_Source\PSoC5/ADC_DelSig_1.c ****     uint8 coherency;
 749:.\Generated_Source\PSoC5/ADC_DelSig_1.c **** 
 750:.\Generated_Source\PSoC5/ADC_DelSig_1.c ****     /* Read active coherency configuration */
 751:.\Generated_Source\PSoC5/ADC_DelSig_1.c ****     coherency = ADC_DelSig_1_DEC_COHER_REG & ADC_DelSig_1_DEC_SAMP_KEY_MASK;
 1193              		.loc 1 751 0
 1194 0006 174B     		ldr	r3, .L61
 1195 0008 1B78     		ldrb	r3, [r3]
 1196 000a DBB2     		uxtb	r3, r3
 1197 000c 03F00303 		and	r3, r3, #3
 1198 0010 7B71     		strb	r3, [r7, #5]
 752:.\Generated_Source\PSoC5/ADC_DelSig_1.c **** 
 753:.\Generated_Source\PSoC5/ADC_DelSig_1.c ****     if(coherency <= ADC_DelSig_1_DEC_SAMP_KEY_LOW)
 1199              		.loc 1 753 0
 1200 0012 7B79     		ldrb	r3, [r7, #5]	@ zero_extendqisi2
 1201 0014 012B     		cmp	r3, #1
 1202 0016 03D8     		bhi	.L57
 754:.\Generated_Source\PSoC5/ADC_DelSig_1.c ****     {   /*  Use default method to read result registers i.e. LSB byte read at the end*/
 755:.\Generated_Source\PSoC5/ADC_DelSig_1.c ****         #if (CY_PSOC3)
 756:.\Generated_Source\PSoC5/ADC_DelSig_1.c ****             result = ADC_DelSig_1_DEC_SAMPM_REG;
 757:.\Generated_Source\PSoC5/ADC_DelSig_1.c ****             result = (result << 8u) | ADC_DelSig_1_DEC_SAMP_REG;
 758:.\Generated_Source\PSoC5/ADC_DelSig_1.c ****         #else
 759:.\Generated_Source\PSoC5/ADC_DelSig_1.c ****             result = (CY_GET_REG16(ADC_DelSig_1_DEC_SAMP_16B_PTR));
 1203              		.loc 1 759 0
 1204 0018 134B     		ldr	r3, .L61+4
 1205 001a 1B88     		ldrh	r3, [r3]	@ movhi
 1206 001c FB80     		strh	r3, [r7, #6]	@ movhi
 1207 001e 10E0     		b	.L58
 1208              	.L57:
 760:.\Generated_Source\PSoC5/ADC_DelSig_1.c ****         #endif /* CY_PSOC3 */
 761:.\Generated_Source\PSoC5/ADC_DelSig_1.c ****     }
 762:.\Generated_Source\PSoC5/ADC_DelSig_1.c ****     else /* MID or HIGH */
 763:.\Generated_Source\PSoC5/ADC_DelSig_1.c ****     {   /* Read middle byte at the end */
 764:.\Generated_Source\PSoC5/ADC_DelSig_1.c ****         #if (CY_PSOC3)
 765:.\Generated_Source\PSoC5/ADC_DelSig_1.c ****             result = (CY_GET_REG16(ADC_DelSig_1_DEC_SAMP_16B_PTR));
 766:.\Generated_Source\PSoC5/ADC_DelSig_1.c ****         #else
 767:.\Generated_Source\PSoC5/ADC_DelSig_1.c ****             result = ADC_DelSig_1_DEC_SAMP_REG;
 1209              		.loc 1 767 0
 1210 0020 114B     		ldr	r3, .L61+4
 1211 0022 1B78     		ldrb	r3, [r3]
 1212 0024 DBB2     		uxtb	r3, r3
 1213 0026 FB80     		strh	r3, [r7, #6]	@ movhi
 768:.\Generated_Source\PSoC5/ADC_DelSig_1.c ****             result |=  (uint16)((uint16)ADC_DelSig_1_DEC_SAMPM_REG << 8u);
 1214              		.loc 1 768 0
 1215 0028 104B     		ldr	r3, .L61+8
 1216 002a 1B78     		ldrb	r3, [r3]
 1217 002c DBB2     		uxtb	r3, r3
 1218 002e 1B02     		lsls	r3, r3, #8
 1219 0030 9AB2     		uxth	r2, r3
 1220 0032 FB88     		ldrh	r3, [r7, #6]	@ movhi
 1221 0034 1343     		orrs	r3, r3, r2
 1222 0036 FB80     		strh	r3, [r7, #6]	@ movhi
 769:.\Generated_Source\PSoC5/ADC_DelSig_1.c ****         #endif /* CY_PSOC3 */
 770:.\Generated_Source\PSoC5/ADC_DelSig_1.c ****         if(coherency == ADC_DelSig_1_DEC_SAMP_KEY_HIGH)
ARM GAS  C:\Users\Charlie\AppData\Local\Temp\ccHLrwpJ.s 			page 36


 1223              		.loc 1 770 0
 1224 0038 7B79     		ldrb	r3, [r7, #5]	@ zero_extendqisi2
 1225 003a 032B     		cmp	r3, #3
 1226 003c 01D1     		bne	.L58
 771:.\Generated_Source\PSoC5/ADC_DelSig_1.c ****         {   /* Dummy read of the MSB byte to unlock the coherency */
 772:.\Generated_Source\PSoC5/ADC_DelSig_1.c ****             (void)ADC_DelSig_1_DEC_SAMPH_REG;
 1227              		.loc 1 772 0
 1228 003e 0C4B     		ldr	r3, .L61+12
 1229 0040 1B78     		ldrb	r3, [r3]
 1230              	.L58:
 773:.\Generated_Source\PSoC5/ADC_DelSig_1.c ****         }
 774:.\Generated_Source\PSoC5/ADC_DelSig_1.c ****     }
 775:.\Generated_Source\PSoC5/ADC_DelSig_1.c ****     /* Clear conversion complete status in Single Sample mode with resolution above 16 bit */
 776:.\Generated_Source\PSoC5/ADC_DelSig_1.c ****     if(ADC_DelSig_1_stopConversion != 0u)
 1231              		.loc 1 776 0
 1232 0042 0C4B     		ldr	r3, .L61+16
 1233 0044 1B78     		ldrb	r3, [r3]
 1234 0046 DBB2     		uxtb	r3, r3
 1235 0048 002B     		cmp	r3, #0
 1236 004a 02D0     		beq	.L59
 777:.\Generated_Source\PSoC5/ADC_DelSig_1.c ****     {
 778:.\Generated_Source\PSoC5/ADC_DelSig_1.c ****         ADC_DelSig_1_convDone = 0u;
 1237              		.loc 1 778 0
 1238 004c 0A4B     		ldr	r3, .L61+20
 1239 004e 0022     		movs	r2, #0
 1240 0050 1A70     		strb	r2, [r3]
 1241              	.L59:
 779:.\Generated_Source\PSoC5/ADC_DelSig_1.c ****     }
 780:.\Generated_Source\PSoC5/ADC_DelSig_1.c **** 
 781:.\Generated_Source\PSoC5/ADC_DelSig_1.c ****     return ((int16)result);
 1242              		.loc 1 781 0
 1243 0052 FB88     		ldrh	r3, [r7, #6]
 1244 0054 1BB2     		sxth	r3, r3
 782:.\Generated_Source\PSoC5/ADC_DelSig_1.c **** }
 1245              		.loc 1 782 0
 1246 0056 1846     		mov	r0, r3
 1247 0058 0C37     		adds	r7, r7, #12
 1248 005a BD46     		mov	sp, r7
 1249              		@ sp needed
 1250 005c 5DF8047B 		ldr	r7, [sp], #4
 1251 0060 7047     		bx	lr
 1252              	.L62:
 1253 0062 00BF     		.align	2
 1254              	.L61:
 1255 0064 144E0040 		.word	1073761812
 1256 0068 104E0040 		.word	1073761808
 1257 006c 114E0040 		.word	1073761809
 1258 0070 124E0040 		.word	1073761810
 1259 0074 00000000 		.word	ADC_DelSig_1_stopConversion
 1260 0078 00000000 		.word	ADC_DelSig_1_convDone
 1261              		.cfi_endproc
 1262              	.LFE12:
 1263              		.size	ADC_DelSig_1_GetResult16, .-ADC_DelSig_1_GetResult16
 1264              		.section	.text.ADC_DelSig_1_GetResult32,"ax",%progbits
 1265              		.align	2
 1266              		.global	ADC_DelSig_1_GetResult32
 1267              		.thumb
ARM GAS  C:\Users\Charlie\AppData\Local\Temp\ccHLrwpJ.s 			page 37


 1268              		.thumb_func
 1269              		.type	ADC_DelSig_1_GetResult32, %function
 1270              	ADC_DelSig_1_GetResult32:
 1271              	.LFB13:
 783:.\Generated_Source\PSoC5/ADC_DelSig_1.c **** 
 784:.\Generated_Source\PSoC5/ADC_DelSig_1.c **** 
 785:.\Generated_Source\PSoC5/ADC_DelSig_1.c **** /*******************************************************************************
 786:.\Generated_Source\PSoC5/ADC_DelSig_1.c **** * Function Name: ADC_DelSig_1_GetResult32
 787:.\Generated_Source\PSoC5/ADC_DelSig_1.c **** ********************************************************************************
 788:.\Generated_Source\PSoC5/ADC_DelSig_1.c **** *
 789:.\Generated_Source\PSoC5/ADC_DelSig_1.c **** * Summary:
 790:.\Generated_Source\PSoC5/ADC_DelSig_1.c **** *  Returns a 32-bit result for a conversion with a result that has a
 791:.\Generated_Source\PSoC5/ADC_DelSig_1.c **** *  resolution of 8 to 20 bits.
 792:.\Generated_Source\PSoC5/ADC_DelSig_1.c **** *  This function supports different coherency settings.
 793:.\Generated_Source\PSoC5/ADC_DelSig_1.c **** *
 794:.\Generated_Source\PSoC5/ADC_DelSig_1.c **** * Parameters:
 795:.\Generated_Source\PSoC5/ADC_DelSig_1.c **** *  None
 796:.\Generated_Source\PSoC5/ADC_DelSig_1.c **** *
 797:.\Generated_Source\PSoC5/ADC_DelSig_1.c **** * Return:
 798:.\Generated_Source\PSoC5/ADC_DelSig_1.c **** *  int32: Result of the last ADC conversion.
 799:.\Generated_Source\PSoC5/ADC_DelSig_1.c **** *
 800:.\Generated_Source\PSoC5/ADC_DelSig_1.c **** * Global variables:
 801:.\Generated_Source\PSoC5/ADC_DelSig_1.c **** *  ADC_DelSig_1_convDone:  Cleared in single sample mode with resolution
 802:.\Generated_Source\PSoC5/ADC_DelSig_1.c **** *                              above 16 bits
 803:.\Generated_Source\PSoC5/ADC_DelSig_1.c **** *
 804:.\Generated_Source\PSoC5/ADC_DelSig_1.c **** *******************************************************************************/
 805:.\Generated_Source\PSoC5/ADC_DelSig_1.c **** int32 ADC_DelSig_1_GetResult32(void) 
 806:.\Generated_Source\PSoC5/ADC_DelSig_1.c **** {
 1272              		.loc 1 806 0
 1273              		.cfi_startproc
 1274              		@ args = 0, pretend = 0, frame = 8
 1275              		@ frame_needed = 1, uses_anonymous_args = 0
 1276              		@ link register save eliminated.
 1277 0000 80B4     		push	{r7}
 1278              		.cfi_def_cfa_offset 4
 1279              		.cfi_offset 7, -4
 1280 0002 83B0     		sub	sp, sp, #12
 1281              		.cfi_def_cfa_offset 16
 1282 0004 00AF     		add	r7, sp, #0
 1283              		.cfi_def_cfa_register 7
 807:.\Generated_Source\PSoC5/ADC_DelSig_1.c ****     uint32 result;
 808:.\Generated_Source\PSoC5/ADC_DelSig_1.c ****     uint8 coherency;
 809:.\Generated_Source\PSoC5/ADC_DelSig_1.c ****     #if (CY_PSOC3)
 810:.\Generated_Source\PSoC5/ADC_DelSig_1.c **** 	    uint16 tmp;
 811:.\Generated_Source\PSoC5/ADC_DelSig_1.c ****     #endif /* CY_PSOC3 */
 812:.\Generated_Source\PSoC5/ADC_DelSig_1.c **** 
 813:.\Generated_Source\PSoC5/ADC_DelSig_1.c ****     /* Read active coherency configuration */
 814:.\Generated_Source\PSoC5/ADC_DelSig_1.c ****     coherency = ADC_DelSig_1_DEC_COHER_REG & ADC_DelSig_1_DEC_SAMP_KEY_MASK;
 1284              		.loc 1 814 0
 1285 0006 224B     		ldr	r3, .L69
 1286 0008 1B78     		ldrb	r3, [r3]
 1287 000a DBB2     		uxtb	r3, r3
 1288 000c 03F00303 		and	r3, r3, #3
 1289 0010 FB70     		strb	r3, [r7, #3]
 815:.\Generated_Source\PSoC5/ADC_DelSig_1.c **** 
 816:.\Generated_Source\PSoC5/ADC_DelSig_1.c ****     if(coherency <= ADC_DelSig_1_DEC_SAMP_KEY_LOW)
 1290              		.loc 1 816 0
ARM GAS  C:\Users\Charlie\AppData\Local\Temp\ccHLrwpJ.s 			page 38


 1291 0012 FB78     		ldrb	r3, [r7, #3]	@ zero_extendqisi2
 1292 0014 012B     		cmp	r3, #1
 1293 0016 0BD8     		bhi	.L64
 817:.\Generated_Source\PSoC5/ADC_DelSig_1.c ****     {   /*  Use default method to read result registers i.e. LSB byte read at the end*/
 818:.\Generated_Source\PSoC5/ADC_DelSig_1.c ****         #if (CY_PSOC3)
 819:.\Generated_Source\PSoC5/ADC_DelSig_1.c ****             result = ADC_DelSig_1_DEC_SAMPH_REG;
 820:.\Generated_Source\PSoC5/ADC_DelSig_1.c ****             if((result & 0x80u) != 0u)
 821:.\Generated_Source\PSoC5/ADC_DelSig_1.c ****             {   /* Sign extend */
 822:.\Generated_Source\PSoC5/ADC_DelSig_1.c ****                 result |= 0xFF00u;
 823:.\Generated_Source\PSoC5/ADC_DelSig_1.c ****             }
 824:.\Generated_Source\PSoC5/ADC_DelSig_1.c ****             result = (result << 8u) | ADC_DelSig_1_DEC_SAMPM_REG;
 825:.\Generated_Source\PSoC5/ADC_DelSig_1.c ****             result = (result << 8u) | ADC_DelSig_1_DEC_SAMP_REG;
 826:.\Generated_Source\PSoC5/ADC_DelSig_1.c ****         #else
 827:.\Generated_Source\PSoC5/ADC_DelSig_1.c ****             result = CY_GET_REG16(ADC_DelSig_1_DEC_SAMPH_16B_PTR);
 1294              		.loc 1 827 0
 1295 0018 1E4B     		ldr	r3, .L69+4
 1296 001a 1B88     		ldrh	r3, [r3]	@ movhi
 1297 001c 9BB2     		uxth	r3, r3
 1298 001e 7B60     		str	r3, [r7, #4]
 828:.\Generated_Source\PSoC5/ADC_DelSig_1.c ****             result = (result << 16u) | (CY_GET_REG16(ADC_DelSig_1_DEC_SAMP_16B_PTR));
 1299              		.loc 1 828 0
 1300 0020 7B68     		ldr	r3, [r7, #4]
 1301 0022 1A04     		lsls	r2, r3, #16
 1302 0024 1C4B     		ldr	r3, .L69+8
 1303 0026 1B88     		ldrh	r3, [r3]	@ movhi
 1304 0028 9BB2     		uxth	r3, r3
 1305 002a 1343     		orrs	r3, r3, r2
 1306 002c 7B60     		str	r3, [r7, #4]
 1307 002e 20E0     		b	.L65
 1308              	.L64:
 829:.\Generated_Source\PSoC5/ADC_DelSig_1.c ****         #endif /* CY_PSOC3 */
 830:.\Generated_Source\PSoC5/ADC_DelSig_1.c ****     }
 831:.\Generated_Source\PSoC5/ADC_DelSig_1.c ****     else if(coherency == ADC_DelSig_1_DEC_SAMP_KEY_MID)
 1309              		.loc 1 831 0
 1310 0030 FB78     		ldrb	r3, [r7, #3]	@ zero_extendqisi2
 1311 0032 022B     		cmp	r3, #2
 1312 0034 12D1     		bne	.L66
 832:.\Generated_Source\PSoC5/ADC_DelSig_1.c ****     {   /* Read middle byte at the end */
 833:.\Generated_Source\PSoC5/ADC_DelSig_1.c ****         #if (CY_PSOC3)
 834:.\Generated_Source\PSoC5/ADC_DelSig_1.c ****             result = ADC_DelSig_1_DEC_SAMPH_REG;
 835:.\Generated_Source\PSoC5/ADC_DelSig_1.c ****             if((result & 0x80u) != 0u)
 836:.\Generated_Source\PSoC5/ADC_DelSig_1.c ****             {   /* Sign extend */
 837:.\Generated_Source\PSoC5/ADC_DelSig_1.c ****                 result |= 0xFF00u;
 838:.\Generated_Source\PSoC5/ADC_DelSig_1.c ****             }
 839:.\Generated_Source\PSoC5/ADC_DelSig_1.c ****             result = (result << 16u) | (CY_GET_REG16(ADC_DelSig_1_DEC_SAMP_16B_PTR));
 840:.\Generated_Source\PSoC5/ADC_DelSig_1.c ****         #else
 841:.\Generated_Source\PSoC5/ADC_DelSig_1.c ****             result = CY_GET_REG16(ADC_DelSig_1_DEC_SAMPH_16B_PTR);
 1313              		.loc 1 841 0
 1314 0036 174B     		ldr	r3, .L69+4
 1315 0038 1B88     		ldrh	r3, [r3]	@ movhi
 1316 003a 9BB2     		uxth	r3, r3
 1317 003c 7B60     		str	r3, [r7, #4]
 842:.\Generated_Source\PSoC5/ADC_DelSig_1.c ****             result = (result << 16u) | ADC_DelSig_1_DEC_SAMP_REG;
 1318              		.loc 1 842 0
 1319 003e 7B68     		ldr	r3, [r7, #4]
 1320 0040 1A04     		lsls	r2, r3, #16
 1321 0042 154B     		ldr	r3, .L69+8
ARM GAS  C:\Users\Charlie\AppData\Local\Temp\ccHLrwpJ.s 			page 39


 1322 0044 1B78     		ldrb	r3, [r3]
 1323 0046 DBB2     		uxtb	r3, r3
 1324 0048 1343     		orrs	r3, r3, r2
 1325 004a 7B60     		str	r3, [r7, #4]
 843:.\Generated_Source\PSoC5/ADC_DelSig_1.c ****             result |=  (uint32)((uint32)ADC_DelSig_1_DEC_SAMPM_REG << 8u);
 1326              		.loc 1 843 0
 1327 004c 134B     		ldr	r3, .L69+12
 1328 004e 1B78     		ldrb	r3, [r3]
 1329 0050 DBB2     		uxtb	r3, r3
 1330 0052 1B02     		lsls	r3, r3, #8
 1331 0054 7A68     		ldr	r2, [r7, #4]
 1332 0056 1343     		orrs	r3, r3, r2
 1333 0058 7B60     		str	r3, [r7, #4]
 1334 005a 0AE0     		b	.L65
 1335              	.L66:
 844:.\Generated_Source\PSoC5/ADC_DelSig_1.c ****         #endif /* CY_PSOC3 */
 845:.\Generated_Source\PSoC5/ADC_DelSig_1.c ****     }
 846:.\Generated_Source\PSoC5/ADC_DelSig_1.c ****     else /*ADC_DelSig_1_DEC_SAMP_KEY_HIGH */
 847:.\Generated_Source\PSoC5/ADC_DelSig_1.c ****     {
 848:.\Generated_Source\PSoC5/ADC_DelSig_1.c ****         /* Read MSB byte at the end */
 849:.\Generated_Source\PSoC5/ADC_DelSig_1.c ****         #if (CY_PSOC3)
 850:.\Generated_Source\PSoC5/ADC_DelSig_1.c ****             result = CY_GET_REG16(ADC_DelSig_1_DEC_SAMP_16B_PTR);
 851:.\Generated_Source\PSoC5/ADC_DelSig_1.c **** 			tmp = ADC_DelSig_1_DEC_SAMPH_REG;
 852:.\Generated_Source\PSoC5/ADC_DelSig_1.c ****             if((tmp & 0x80u) != 0u)
 853:.\Generated_Source\PSoC5/ADC_DelSig_1.c ****             {   /* Sign extend */
 854:.\Generated_Source\PSoC5/ADC_DelSig_1.c ****                 tmp |= 0xFF00u;
 855:.\Generated_Source\PSoC5/ADC_DelSig_1.c ****             }
 856:.\Generated_Source\PSoC5/ADC_DelSig_1.c ****             result |= (uint32)tmp << 16u;
 857:.\Generated_Source\PSoC5/ADC_DelSig_1.c ****         #else
 858:.\Generated_Source\PSoC5/ADC_DelSig_1.c ****             result = CY_GET_REG16(ADC_DelSig_1_DEC_SAMP_16B_PTR);
 1336              		.loc 1 858 0
 1337 005c 0E4B     		ldr	r3, .L69+8
 1338 005e 1B88     		ldrh	r3, [r3]	@ movhi
 1339 0060 9BB2     		uxth	r3, r3
 1340 0062 7B60     		str	r3, [r7, #4]
 859:.\Generated_Source\PSoC5/ADC_DelSig_1.c ****             result |= (uint32)((uint32)CY_GET_REG16(ADC_DelSig_1_DEC_SAMPH_16B_PTR) << 16u);
 1341              		.loc 1 859 0
 1342 0064 0B4B     		ldr	r3, .L69+4
 1343 0066 1B88     		ldrh	r3, [r3]	@ movhi
 1344 0068 9BB2     		uxth	r3, r3
 1345 006a 1B04     		lsls	r3, r3, #16
 1346 006c 7A68     		ldr	r2, [r7, #4]
 1347 006e 1343     		orrs	r3, r3, r2
 1348 0070 7B60     		str	r3, [r7, #4]
 1349              	.L65:
 860:.\Generated_Source\PSoC5/ADC_DelSig_1.c ****         #endif /* CY_PSOC3 */
 861:.\Generated_Source\PSoC5/ADC_DelSig_1.c ****     }
 862:.\Generated_Source\PSoC5/ADC_DelSig_1.c ****     /* Clear conversion complete status in Single Sample mode with resolution above 16 bit */
 863:.\Generated_Source\PSoC5/ADC_DelSig_1.c ****     if(ADC_DelSig_1_stopConversion != 0u)
 1350              		.loc 1 863 0
 1351 0072 0B4B     		ldr	r3, .L69+16
 1352 0074 1B78     		ldrb	r3, [r3]
 1353 0076 DBB2     		uxtb	r3, r3
 1354 0078 002B     		cmp	r3, #0
 1355 007a 02D0     		beq	.L67
 864:.\Generated_Source\PSoC5/ADC_DelSig_1.c ****     {
 865:.\Generated_Source\PSoC5/ADC_DelSig_1.c ****         ADC_DelSig_1_convDone = 0u;
ARM GAS  C:\Users\Charlie\AppData\Local\Temp\ccHLrwpJ.s 			page 40


 1356              		.loc 1 865 0
 1357 007c 094B     		ldr	r3, .L69+20
 1358 007e 0022     		movs	r2, #0
 1359 0080 1A70     		strb	r2, [r3]
 1360              	.L67:
 866:.\Generated_Source\PSoC5/ADC_DelSig_1.c ****     }
 867:.\Generated_Source\PSoC5/ADC_DelSig_1.c **** 
 868:.\Generated_Source\PSoC5/ADC_DelSig_1.c ****     return ((int32)result);
 1361              		.loc 1 868 0
 1362 0082 7B68     		ldr	r3, [r7, #4]
 869:.\Generated_Source\PSoC5/ADC_DelSig_1.c **** }
 1363              		.loc 1 869 0
 1364 0084 1846     		mov	r0, r3
 1365 0086 0C37     		adds	r7, r7, #12
 1366 0088 BD46     		mov	sp, r7
 1367              		@ sp needed
 1368 008a 5DF8047B 		ldr	r7, [sp], #4
 1369 008e 7047     		bx	lr
 1370              	.L70:
 1371              		.align	2
 1372              	.L69:
 1373 0090 144E0040 		.word	1073761812
 1374 0094 124E0040 		.word	1073761810
 1375 0098 104E0040 		.word	1073761808
 1376 009c 114E0040 		.word	1073761809
 1377 00a0 00000000 		.word	ADC_DelSig_1_stopConversion
 1378 00a4 00000000 		.word	ADC_DelSig_1_convDone
 1379              		.cfi_endproc
 1380              	.LFE13:
 1381              		.size	ADC_DelSig_1_GetResult32, .-ADC_DelSig_1_GetResult32
 1382              		.section	.text.ADC_DelSig_1_SetOffset,"ax",%progbits
 1383              		.align	2
 1384              		.global	ADC_DelSig_1_SetOffset
 1385              		.thumb
 1386              		.thumb_func
 1387              		.type	ADC_DelSig_1_SetOffset, %function
 1388              	ADC_DelSig_1_SetOffset:
 1389              	.LFB14:
 870:.\Generated_Source\PSoC5/ADC_DelSig_1.c **** 
 871:.\Generated_Source\PSoC5/ADC_DelSig_1.c **** 
 872:.\Generated_Source\PSoC5/ADC_DelSig_1.c **** /*******************************************************************************
 873:.\Generated_Source\PSoC5/ADC_DelSig_1.c **** * Function Name: ADC_DelSig_1_SetOffset
 874:.\Generated_Source\PSoC5/ADC_DelSig_1.c **** ********************************************************************************
 875:.\Generated_Source\PSoC5/ADC_DelSig_1.c **** *
 876:.\Generated_Source\PSoC5/ADC_DelSig_1.c **** * Summary:
 877:.\Generated_Source\PSoC5/ADC_DelSig_1.c **** *  Sets the ADC offset which is used by the functions ADC_CountsTo_uVolts, 
 878:.\Generated_Source\PSoC5/ADC_DelSig_1.c **** *  ADC_CountsTo_mVolts, and ADC_CountsTo_Volts to subtract the offset from the 
 879:.\Generated_Source\PSoC5/ADC_DelSig_1.c **** *  given reading before calculating the voltage conversion.
 880:.\Generated_Source\PSoC5/ADC_DelSig_1.c **** *
 881:.\Generated_Source\PSoC5/ADC_DelSig_1.c **** * Parameters:
 882:.\Generated_Source\PSoC5/ADC_DelSig_1.c **** *  int32:  This value is a measured value when the inputs are shorted or 
 883:.\Generated_Source\PSoC5/ADC_DelSig_1.c **** *          connected to the same input voltage.
 884:.\Generated_Source\PSoC5/ADC_DelSig_1.c **** *
 885:.\Generated_Source\PSoC5/ADC_DelSig_1.c **** * Return:
 886:.\Generated_Source\PSoC5/ADC_DelSig_1.c **** *  None
 887:.\Generated_Source\PSoC5/ADC_DelSig_1.c **** *
 888:.\Generated_Source\PSoC5/ADC_DelSig_1.c **** * Global variables:
ARM GAS  C:\Users\Charlie\AppData\Local\Temp\ccHLrwpJ.s 			page 41


 889:.\Generated_Source\PSoC5/ADC_DelSig_1.c **** *  ADC_DelSig_1_Offset:  Modified to set the user provided offset. This
 890:.\Generated_Source\PSoC5/ADC_DelSig_1.c **** *  variable is used for offset calibration purpose.
 891:.\Generated_Source\PSoC5/ADC_DelSig_1.c **** *
 892:.\Generated_Source\PSoC5/ADC_DelSig_1.c **** * Side Effects:
 893:.\Generated_Source\PSoC5/ADC_DelSig_1.c **** *  Affects the ADC_DelSig_1_CountsTo_Volts,
 894:.\Generated_Source\PSoC5/ADC_DelSig_1.c **** *  ADC_DelSig_1_CountsTo_mVolts, ADC_DelSig_1_CountsTo_uVolts functions
 895:.\Generated_Source\PSoC5/ADC_DelSig_1.c **** *  by subtracting the given offset.
 896:.\Generated_Source\PSoC5/ADC_DelSig_1.c **** *
 897:.\Generated_Source\PSoC5/ADC_DelSig_1.c **** *******************************************************************************/
 898:.\Generated_Source\PSoC5/ADC_DelSig_1.c **** void ADC_DelSig_1_SetOffset(int32 offset) 
 899:.\Generated_Source\PSoC5/ADC_DelSig_1.c **** {
 1390              		.loc 1 899 0
 1391              		.cfi_startproc
 1392              		@ args = 0, pretend = 0, frame = 8
 1393              		@ frame_needed = 1, uses_anonymous_args = 0
 1394              		@ link register save eliminated.
 1395 0000 80B4     		push	{r7}
 1396              		.cfi_def_cfa_offset 4
 1397              		.cfi_offset 7, -4
 1398 0002 83B0     		sub	sp, sp, #12
 1399              		.cfi_def_cfa_offset 16
 1400 0004 00AF     		add	r7, sp, #0
 1401              		.cfi_def_cfa_register 7
 1402 0006 7860     		str	r0, [r7, #4]
 900:.\Generated_Source\PSoC5/ADC_DelSig_1.c **** 
 901:.\Generated_Source\PSoC5/ADC_DelSig_1.c ****     ADC_DelSig_1_Offset = offset;
 1403              		.loc 1 901 0
 1404 0008 034B     		ldr	r3, .L72
 1405 000a 7A68     		ldr	r2, [r7, #4]
 1406 000c 1A60     		str	r2, [r3]
 902:.\Generated_Source\PSoC5/ADC_DelSig_1.c **** }
 1407              		.loc 1 902 0
 1408 000e 0C37     		adds	r7, r7, #12
 1409 0010 BD46     		mov	sp, r7
 1410              		@ sp needed
 1411 0012 5DF8047B 		ldr	r7, [sp], #4
 1412 0016 7047     		bx	lr
 1413              	.L73:
 1414              		.align	2
 1415              	.L72:
 1416 0018 00000000 		.word	ADC_DelSig_1_Offset
 1417              		.cfi_endproc
 1418              	.LFE14:
 1419              		.size	ADC_DelSig_1_SetOffset, .-ADC_DelSig_1_SetOffset
 1420              		.section	.text.ADC_DelSig_1_SetGain,"ax",%progbits
 1421              		.align	2
 1422              		.global	ADC_DelSig_1_SetGain
 1423              		.thumb
 1424              		.thumb_func
 1425              		.type	ADC_DelSig_1_SetGain, %function
 1426              	ADC_DelSig_1_SetGain:
 1427              	.LFB15:
 903:.\Generated_Source\PSoC5/ADC_DelSig_1.c **** 
 904:.\Generated_Source\PSoC5/ADC_DelSig_1.c **** 
 905:.\Generated_Source\PSoC5/ADC_DelSig_1.c **** /*******************************************************************************
 906:.\Generated_Source\PSoC5/ADC_DelSig_1.c **** * Function Name: ADC_DelSig_1_SetGain
 907:.\Generated_Source\PSoC5/ADC_DelSig_1.c **** ********************************************************************************
ARM GAS  C:\Users\Charlie\AppData\Local\Temp\ccHLrwpJ.s 			page 42


 908:.\Generated_Source\PSoC5/ADC_DelSig_1.c **** *
 909:.\Generated_Source\PSoC5/ADC_DelSig_1.c **** * Summary:
 910:.\Generated_Source\PSoC5/ADC_DelSig_1.c **** *  Sets the ADC gain in counts per volt for the voltage conversion
 911:.\Generated_Source\PSoC5/ADC_DelSig_1.c **** *  functions below. This value is set by default by the reference and
 912:.\Generated_Source\PSoC5/ADC_DelSig_1.c **** *  input range settings. It should only be used to further calibrate the
 913:.\Generated_Source\PSoC5/ADC_DelSig_1.c **** *  ADC with a known input or if an external reference is used. This
 914:.\Generated_Source\PSoC5/ADC_DelSig_1.c **** *  function may also be used to calibrate an entire signal chain, not
 915:.\Generated_Source\PSoC5/ADC_DelSig_1.c **** *  just the ADC.
 916:.\Generated_Source\PSoC5/ADC_DelSig_1.c **** *
 917:.\Generated_Source\PSoC5/ADC_DelSig_1.c **** * Parameters:
 918:.\Generated_Source\PSoC5/ADC_DelSig_1.c **** *  int32: ADC gain in counts per volt.
 919:.\Generated_Source\PSoC5/ADC_DelSig_1.c **** *
 920:.\Generated_Source\PSoC5/ADC_DelSig_1.c **** * Return:
 921:.\Generated_Source\PSoC5/ADC_DelSig_1.c **** *  None
 922:.\Generated_Source\PSoC5/ADC_DelSig_1.c **** *
 923:.\Generated_Source\PSoC5/ADC_DelSig_1.c **** * Global variables:
 924:.\Generated_Source\PSoC5/ADC_DelSig_1.c **** *  ADC_DelSig_1_CountsPerVolt:  modified to set the ADC gain in counts
 925:.\Generated_Source\PSoC5/ADC_DelSig_1.c **** *   per volt.
 926:.\Generated_Source\PSoC5/ADC_DelSig_1.c **** *
 927:.\Generated_Source\PSoC5/ADC_DelSig_1.c **** * Side Effects:
 928:.\Generated_Source\PSoC5/ADC_DelSig_1.c **** *  Affects the ADC_DelSig_1_CountsTo_Volts,
 929:.\Generated_Source\PSoC5/ADC_DelSig_1.c **** *  ADC_DelSig_1_CountsTo_mVolts, ADC_DelSig_1_CountsTo_uVolts functions
 930:.\Generated_Source\PSoC5/ADC_DelSig_1.c **** *  supplying the correct conversion between ADC counts and voltage.
 931:.\Generated_Source\PSoC5/ADC_DelSig_1.c **** *
 932:.\Generated_Source\PSoC5/ADC_DelSig_1.c **** *******************************************************************************/
 933:.\Generated_Source\PSoC5/ADC_DelSig_1.c **** void ADC_DelSig_1_SetGain(int32 adcGain) 
 934:.\Generated_Source\PSoC5/ADC_DelSig_1.c **** {
 1428              		.loc 1 934 0
 1429              		.cfi_startproc
 1430              		@ args = 0, pretend = 0, frame = 8
 1431              		@ frame_needed = 1, uses_anonymous_args = 0
 1432              		@ link register save eliminated.
 1433 0000 80B4     		push	{r7}
 1434              		.cfi_def_cfa_offset 4
 1435              		.cfi_offset 7, -4
 1436 0002 83B0     		sub	sp, sp, #12
 1437              		.cfi_def_cfa_offset 16
 1438 0004 00AF     		add	r7, sp, #0
 1439              		.cfi_def_cfa_register 7
 1440 0006 7860     		str	r0, [r7, #4]
 935:.\Generated_Source\PSoC5/ADC_DelSig_1.c ****     ADC_DelSig_1_CountsPerVolt = adcGain;
 1441              		.loc 1 935 0
 1442 0008 034B     		ldr	r3, .L75
 1443 000a 7A68     		ldr	r2, [r7, #4]
 1444 000c 1A60     		str	r2, [r3]
 936:.\Generated_Source\PSoC5/ADC_DelSig_1.c **** }
 1445              		.loc 1 936 0
 1446 000e 0C37     		adds	r7, r7, #12
 1447 0010 BD46     		mov	sp, r7
 1448              		@ sp needed
 1449 0012 5DF8047B 		ldr	r7, [sp], #4
 1450 0016 7047     		bx	lr
 1451              	.L76:
 1452              		.align	2
 1453              	.L75:
 1454 0018 00000000 		.word	ADC_DelSig_1_CountsPerVolt
 1455              		.cfi_endproc
ARM GAS  C:\Users\Charlie\AppData\Local\Temp\ccHLrwpJ.s 			page 43


 1456              	.LFE15:
 1457              		.size	ADC_DelSig_1_SetGain, .-ADC_DelSig_1_SetGain
 1458              		.section	.text.ADC_DelSig_1_CountsTo_mVolts,"ax",%progbits
 1459              		.align	2
 1460              		.global	ADC_DelSig_1_CountsTo_mVolts
 1461              		.thumb
 1462              		.thumb_func
 1463              		.type	ADC_DelSig_1_CountsTo_mVolts, %function
 1464              	ADC_DelSig_1_CountsTo_mVolts:
 1465              	.LFB16:
 937:.\Generated_Source\PSoC5/ADC_DelSig_1.c **** 
 938:.\Generated_Source\PSoC5/ADC_DelSig_1.c **** 
 939:.\Generated_Source\PSoC5/ADC_DelSig_1.c **** /*******************************************************************************
 940:.\Generated_Source\PSoC5/ADC_DelSig_1.c **** * Function Name: ADC_DelSig_1_CountsTo_mVolts
 941:.\Generated_Source\PSoC5/ADC_DelSig_1.c **** ********************************************************************************
 942:.\Generated_Source\PSoC5/ADC_DelSig_1.c **** *
 943:.\Generated_Source\PSoC5/ADC_DelSig_1.c **** * Summary:
 944:.\Generated_Source\PSoC5/ADC_DelSig_1.c **** *  Converts the ADC counts output to mVolts as a 16-bit integer. For
 945:.\Generated_Source\PSoC5/ADC_DelSig_1.c **** *  example, if the ADC measured 0.534 volts, the return value would
 946:.\Generated_Source\PSoC5/ADC_DelSig_1.c **** *  be 534 mVolts.
 947:.\Generated_Source\PSoC5/ADC_DelSig_1.c **** *
 948:.\Generated_Source\PSoC5/ADC_DelSig_1.c **** * Parameters:
 949:.\Generated_Source\PSoC5/ADC_DelSig_1.c **** *  int32: adcCounts Result from the ADC conversion.
 950:.\Generated_Source\PSoC5/ADC_DelSig_1.c **** *
 951:.\Generated_Source\PSoC5/ADC_DelSig_1.c **** * Return:
 952:.\Generated_Source\PSoC5/ADC_DelSig_1.c **** *  int16:  Result in mVolts
 953:.\Generated_Source\PSoC5/ADC_DelSig_1.c **** *
 954:.\Generated_Source\PSoC5/ADC_DelSig_1.c **** * Global variables:
 955:.\Generated_Source\PSoC5/ADC_DelSig_1.c **** *  ADC_DelSig_1_CountsPerVolt:  used to convert ADC counts to mVolts.
 956:.\Generated_Source\PSoC5/ADC_DelSig_1.c **** *  ADC_DelSig_1_Offset:  Used as the offset while converting ADC counts
 957:.\Generated_Source\PSoC5/ADC_DelSig_1.c **** *   to mVolts.
 958:.\Generated_Source\PSoC5/ADC_DelSig_1.c **** *
 959:.\Generated_Source\PSoC5/ADC_DelSig_1.c **** *******************************************************************************/
 960:.\Generated_Source\PSoC5/ADC_DelSig_1.c **** int16 ADC_DelSig_1_CountsTo_mVolts(int32 adcCounts) 
 961:.\Generated_Source\PSoC5/ADC_DelSig_1.c **** {
 1466              		.loc 1 961 0
 1467              		.cfi_startproc
 1468              		@ args = 0, pretend = 0, frame = 16
 1469              		@ frame_needed = 1, uses_anonymous_args = 0
 1470              		@ link register save eliminated.
 1471 0000 80B4     		push	{r7}
 1472              		.cfi_def_cfa_offset 4
 1473              		.cfi_offset 7, -4
 1474 0002 85B0     		sub	sp, sp, #20
 1475              		.cfi_def_cfa_offset 24
 1476 0004 00AF     		add	r7, sp, #0
 1477              		.cfi_def_cfa_register 7
 1478 0006 7860     		str	r0, [r7, #4]
 962:.\Generated_Source\PSoC5/ADC_DelSig_1.c **** 
 963:.\Generated_Source\PSoC5/ADC_DelSig_1.c ****     int16 mVolts;
 964:.\Generated_Source\PSoC5/ADC_DelSig_1.c **** 
 965:.\Generated_Source\PSoC5/ADC_DelSig_1.c ****     /* Convert adcCounts to the right align if left option selected */
 966:.\Generated_Source\PSoC5/ADC_DelSig_1.c ****     #if(ADC_DelSig_1_CFG1_DEC_DIV != 0)
 967:.\Generated_Source\PSoC5/ADC_DelSig_1.c ****         if(ADC_DelSig_1_Config == ADC_DelSig_1_CFG1)
 968:.\Generated_Source\PSoC5/ADC_DelSig_1.c ****         {
 969:.\Generated_Source\PSoC5/ADC_DelSig_1.c ****             adcCounts /= ADC_DelSig_1_CFG1_DEC_DIV;
 970:.\Generated_Source\PSoC5/ADC_DelSig_1.c ****         }
ARM GAS  C:\Users\Charlie\AppData\Local\Temp\ccHLrwpJ.s 			page 44


 971:.\Generated_Source\PSoC5/ADC_DelSig_1.c ****     #endif /* ADC_DelSig_1_CFG1_DEC_DIV */
 972:.\Generated_Source\PSoC5/ADC_DelSig_1.c ****     #if((ADC_DelSig_1_CFG2_DEC_DIV != 0) && (ADC_DelSig_1_DEFAULT_NUM_CONFIGS > 1))
 973:.\Generated_Source\PSoC5/ADC_DelSig_1.c ****         if(ADC_DelSig_1_Config == ADC_DelSig_1_CFG2)
 974:.\Generated_Source\PSoC5/ADC_DelSig_1.c ****         {
 975:.\Generated_Source\PSoC5/ADC_DelSig_1.c ****             adcCounts /= ADC_DelSig_1_CFG2_DEC_DIV;
 976:.\Generated_Source\PSoC5/ADC_DelSig_1.c ****         }
 977:.\Generated_Source\PSoC5/ADC_DelSig_1.c ****     #endif /* ADC_DelSig_1_CFG2_DEC_DIV */
 978:.\Generated_Source\PSoC5/ADC_DelSig_1.c ****     #if((ADC_DelSig_1_CFG3_DEC_DIV != 0) && (ADC_DelSig_1_DEFAULT_NUM_CONFIGS > 2))
 979:.\Generated_Source\PSoC5/ADC_DelSig_1.c ****         if(ADC_DelSig_1_Config == ADC_DelSig_1_CFG3)
 980:.\Generated_Source\PSoC5/ADC_DelSig_1.c ****         {
 981:.\Generated_Source\PSoC5/ADC_DelSig_1.c ****             adcCounts /= ADC_DelSig_1_CFG3_DEC_DIV;
 982:.\Generated_Source\PSoC5/ADC_DelSig_1.c ****         }
 983:.\Generated_Source\PSoC5/ADC_DelSig_1.c ****     #endif /* ADC_DelSig_1_CFG2_DEC_DIV */
 984:.\Generated_Source\PSoC5/ADC_DelSig_1.c ****     #if((ADC_DelSig_1_CFG4_DEC_DIV != 0) && (ADC_DelSig_1_DEFAULT_NUM_CONFIGS > 3))
 985:.\Generated_Source\PSoC5/ADC_DelSig_1.c ****         if(ADC_DelSig_1_Config == ADC_DelSig_1_CFG4)
 986:.\Generated_Source\PSoC5/ADC_DelSig_1.c ****         {
 987:.\Generated_Source\PSoC5/ADC_DelSig_1.c ****             adcCounts /= ADC_DelSig_1_CFG4_DEC_DIV;
 988:.\Generated_Source\PSoC5/ADC_DelSig_1.c ****         }
 989:.\Generated_Source\PSoC5/ADC_DelSig_1.c ****     #endif /* ADC_DelSig_1_CFG2_DEC_DIV */
 990:.\Generated_Source\PSoC5/ADC_DelSig_1.c **** 
 991:.\Generated_Source\PSoC5/ADC_DelSig_1.c ****     /* Subtract ADC offset */
 992:.\Generated_Source\PSoC5/ADC_DelSig_1.c ****     adcCounts -= ADC_DelSig_1_Offset;
 1479              		.loc 1 992 0
 1480 0008 0B4B     		ldr	r3, .L79
 1481 000a 1B68     		ldr	r3, [r3]
 1482 000c 7A68     		ldr	r2, [r7, #4]
 1483 000e D31A     		subs	r3, r2, r3
 1484 0010 7B60     		str	r3, [r7, #4]
 993:.\Generated_Source\PSoC5/ADC_DelSig_1.c **** 
 994:.\Generated_Source\PSoC5/ADC_DelSig_1.c ****     mVolts = (int16)(( adcCounts * ADC_DelSig_1_1MV_COUNTS ) / ADC_DelSig_1_CountsPerVolt) ;
 1485              		.loc 1 994 0
 1486 0012 7B68     		ldr	r3, [r7, #4]
 1487 0014 4FF47A72 		mov	r2, #1000
 1488 0018 02FB03F2 		mul	r2, r2, r3
 1489 001c 074B     		ldr	r3, .L79+4
 1490 001e 1B68     		ldr	r3, [r3]
 1491 0020 92FBF3F3 		sdiv	r3, r2, r3
 1492 0024 FB81     		strh	r3, [r7, #14]	@ movhi
 995:.\Generated_Source\PSoC5/ADC_DelSig_1.c **** 
 996:.\Generated_Source\PSoC5/ADC_DelSig_1.c ****     return(mVolts);
 1493              		.loc 1 996 0
 1494 0026 FB89     		ldrh	r3, [r7, #14]
 1495 0028 1BB2     		sxth	r3, r3
 997:.\Generated_Source\PSoC5/ADC_DelSig_1.c **** }
 1496              		.loc 1 997 0
 1497 002a 1846     		mov	r0, r3
 1498 002c 1437     		adds	r7, r7, #20
 1499 002e BD46     		mov	sp, r7
 1500              		@ sp needed
 1501 0030 5DF8047B 		ldr	r7, [sp], #4
 1502 0034 7047     		bx	lr
 1503              	.L80:
 1504 0036 00BF     		.align	2
 1505              	.L79:
 1506 0038 00000000 		.word	ADC_DelSig_1_Offset
 1507 003c 00000000 		.word	ADC_DelSig_1_CountsPerVolt
 1508              		.cfi_endproc
ARM GAS  C:\Users\Charlie\AppData\Local\Temp\ccHLrwpJ.s 			page 45


 1509              	.LFE16:
 1510              		.size	ADC_DelSig_1_CountsTo_mVolts, .-ADC_DelSig_1_CountsTo_mVolts
 1511              		.global	__aeabi_i2f
 1512              		.section	.text.ADC_DelSig_1_CountsTo_Volts,"ax",%progbits
 1513              		.align	2
 1514              		.global	ADC_DelSig_1_CountsTo_Volts
 1515              		.thumb
 1516              		.thumb_func
 1517              		.type	ADC_DelSig_1_CountsTo_Volts, %function
 1518              	ADC_DelSig_1_CountsTo_Volts:
 1519              	.LFB17:
 998:.\Generated_Source\PSoC5/ADC_DelSig_1.c **** 
 999:.\Generated_Source\PSoC5/ADC_DelSig_1.c **** 
1000:.\Generated_Source\PSoC5/ADC_DelSig_1.c **** /*******************************************************************************
1001:.\Generated_Source\PSoC5/ADC_DelSig_1.c **** * Function Name: ADC_DelSig_1_CountsTo_Volts
1002:.\Generated_Source\PSoC5/ADC_DelSig_1.c **** ********************************************************************************
1003:.\Generated_Source\PSoC5/ADC_DelSig_1.c **** *
1004:.\Generated_Source\PSoC5/ADC_DelSig_1.c **** * Summary:
1005:.\Generated_Source\PSoC5/ADC_DelSig_1.c **** *  Converts the ADC output to Volts as a floating point number. For
1006:.\Generated_Source\PSoC5/ADC_DelSig_1.c **** *  example, if the ADC measure a voltage of 1.2345 Volts, the
1007:.\Generated_Source\PSoC5/ADC_DelSig_1.c **** *  returned result would be +1.2345 Volts.
1008:.\Generated_Source\PSoC5/ADC_DelSig_1.c **** *
1009:.\Generated_Source\PSoC5/ADC_DelSig_1.c **** * Parameters:
1010:.\Generated_Source\PSoC5/ADC_DelSig_1.c **** *  int32 adcCounts:  Result from the ADC conversion.
1011:.\Generated_Source\PSoC5/ADC_DelSig_1.c **** *
1012:.\Generated_Source\PSoC5/ADC_DelSig_1.c **** * Return:
1013:.\Generated_Source\PSoC5/ADC_DelSig_1.c **** *  float32: Result in Volts
1014:.\Generated_Source\PSoC5/ADC_DelSig_1.c **** *
1015:.\Generated_Source\PSoC5/ADC_DelSig_1.c **** * Global variables:
1016:.\Generated_Source\PSoC5/ADC_DelSig_1.c **** *  ADC_DelSig_1_CountsPerVolt:  used to convert to Volts.
1017:.\Generated_Source\PSoC5/ADC_DelSig_1.c **** *  ADC_DelSig_1_Offset:  Used as the offset while converting ADC counts
1018:.\Generated_Source\PSoC5/ADC_DelSig_1.c **** *   to Volts.
1019:.\Generated_Source\PSoC5/ADC_DelSig_1.c **** *
1020:.\Generated_Source\PSoC5/ADC_DelSig_1.c **** *******************************************************************************/
1021:.\Generated_Source\PSoC5/ADC_DelSig_1.c **** float32 ADC_DelSig_1_CountsTo_Volts(int32 adcCounts) 
1022:.\Generated_Source\PSoC5/ADC_DelSig_1.c **** {
 1520              		.loc 1 1022 0
 1521              		.cfi_startproc
 1522              		@ args = 0, pretend = 0, frame = 16
 1523              		@ frame_needed = 1, uses_anonymous_args = 0
 1524 0000 90B5     		push	{r4, r7, lr}
 1525              		.cfi_def_cfa_offset 12
 1526              		.cfi_offset 4, -12
 1527              		.cfi_offset 7, -8
 1528              		.cfi_offset 14, -4
 1529 0002 85B0     		sub	sp, sp, #20
 1530              		.cfi_def_cfa_offset 32
 1531 0004 00AF     		add	r7, sp, #0
 1532              		.cfi_def_cfa_register 7
 1533 0006 7860     		str	r0, [r7, #4]
1023:.\Generated_Source\PSoC5/ADC_DelSig_1.c **** 
1024:.\Generated_Source\PSoC5/ADC_DelSig_1.c ****     float32 Volts;
1025:.\Generated_Source\PSoC5/ADC_DelSig_1.c **** 
1026:.\Generated_Source\PSoC5/ADC_DelSig_1.c ****     /* Convert adcCounts to the right align if left option selected */
1027:.\Generated_Source\PSoC5/ADC_DelSig_1.c ****     #if(ADC_DelSig_1_CFG1_DEC_DIV != 0)
1028:.\Generated_Source\PSoC5/ADC_DelSig_1.c ****         if(ADC_DelSig_1_Config == ADC_DelSig_1_CFG1)
1029:.\Generated_Source\PSoC5/ADC_DelSig_1.c ****         {
ARM GAS  C:\Users\Charlie\AppData\Local\Temp\ccHLrwpJ.s 			page 46


1030:.\Generated_Source\PSoC5/ADC_DelSig_1.c ****             adcCounts /= ADC_DelSig_1_CFG1_DEC_DIV;
1031:.\Generated_Source\PSoC5/ADC_DelSig_1.c ****         }
1032:.\Generated_Source\PSoC5/ADC_DelSig_1.c ****     #endif /* ADC_DelSig_1_CFG1_DEC_DIV */
1033:.\Generated_Source\PSoC5/ADC_DelSig_1.c ****     #if((ADC_DelSig_1_CFG2_DEC_DIV != 0) && (ADC_DelSig_1_DEFAULT_NUM_CONFIGS > 1))
1034:.\Generated_Source\PSoC5/ADC_DelSig_1.c ****         if(ADC_DelSig_1_Config == ADC_DelSig_1_CFG2)
1035:.\Generated_Source\PSoC5/ADC_DelSig_1.c ****         {
1036:.\Generated_Source\PSoC5/ADC_DelSig_1.c ****             adcCounts /= ADC_DelSig_1_CFG2_DEC_DIV;
1037:.\Generated_Source\PSoC5/ADC_DelSig_1.c ****         }
1038:.\Generated_Source\PSoC5/ADC_DelSig_1.c ****     #endif /* ADC_DelSig_1_CFG2_DEC_DIV */
1039:.\Generated_Source\PSoC5/ADC_DelSig_1.c ****     #if((ADC_DelSig_1_CFG3_DEC_DIV != 0) && (ADC_DelSig_1_DEFAULT_NUM_CONFIGS > 2))
1040:.\Generated_Source\PSoC5/ADC_DelSig_1.c ****         if(ADC_DelSig_1_Config == ADC_DelSig_1_CFG3)
1041:.\Generated_Source\PSoC5/ADC_DelSig_1.c ****         {
1042:.\Generated_Source\PSoC5/ADC_DelSig_1.c ****             adcCounts /= ADC_DelSig_1_CFG3_DEC_DIV;
1043:.\Generated_Source\PSoC5/ADC_DelSig_1.c ****         }
1044:.\Generated_Source\PSoC5/ADC_DelSig_1.c ****     #endif /* ADC_DelSig_1_CFG2_DEC_DIV */
1045:.\Generated_Source\PSoC5/ADC_DelSig_1.c ****     #if((ADC_DelSig_1_CFG4_DEC_DIV != 0) && (ADC_DelSig_1_DEFAULT_NUM_CONFIGS > 3))
1046:.\Generated_Source\PSoC5/ADC_DelSig_1.c ****         if(ADC_DelSig_1_Config == ADC_DelSig_1_CFG4)
1047:.\Generated_Source\PSoC5/ADC_DelSig_1.c ****         {
1048:.\Generated_Source\PSoC5/ADC_DelSig_1.c ****             adcCounts /= ADC_DelSig_1_CFG4_DEC_DIV;
1049:.\Generated_Source\PSoC5/ADC_DelSig_1.c ****         }
1050:.\Generated_Source\PSoC5/ADC_DelSig_1.c ****     #endif /* ADC_DelSig_1_CFG2_DEC_DIV */
1051:.\Generated_Source\PSoC5/ADC_DelSig_1.c **** 
1052:.\Generated_Source\PSoC5/ADC_DelSig_1.c ****     /* Subtract ADC offset */
1053:.\Generated_Source\PSoC5/ADC_DelSig_1.c ****     adcCounts -= ADC_DelSig_1_Offset;
 1534              		.loc 1 1053 0
 1535 0008 0C4B     		ldr	r3, .L83
 1536 000a 1B68     		ldr	r3, [r3]
 1537 000c 7A68     		ldr	r2, [r7, #4]
 1538 000e D31A     		subs	r3, r2, r3
 1539 0010 7B60     		str	r3, [r7, #4]
1054:.\Generated_Source\PSoC5/ADC_DelSig_1.c **** 
1055:.\Generated_Source\PSoC5/ADC_DelSig_1.c ****     Volts = (float32)adcCounts / (float32)ADC_DelSig_1_CountsPerVolt;
 1540              		.loc 1 1055 0
 1541 0012 7868     		ldr	r0, [r7, #4]
 1542 0014 FFF7FEFF 		bl	__aeabi_i2f
 1543 0018 0446     		mov	r4, r0
 1544 001a 094B     		ldr	r3, .L83+4
 1545 001c 1B68     		ldr	r3, [r3]
 1546 001e 1846     		mov	r0, r3
 1547 0020 FFF7FEFF 		bl	__aeabi_i2f
 1548 0024 0346     		mov	r3, r0
 1549 0026 2046     		mov	r0, r4
 1550 0028 1946     		mov	r1, r3
 1551 002a FFF7FEFF 		bl	__aeabi_fdiv
 1552 002e 0346     		mov	r3, r0
 1553 0030 FB60     		str	r3, [r7, #12]	@ float
1056:.\Generated_Source\PSoC5/ADC_DelSig_1.c **** 
1057:.\Generated_Source\PSoC5/ADC_DelSig_1.c ****     return( Volts );
 1554              		.loc 1 1057 0
 1555 0032 FB68     		ldr	r3, [r7, #12]	@ float
1058:.\Generated_Source\PSoC5/ADC_DelSig_1.c **** }
 1556              		.loc 1 1058 0
 1557 0034 1846     		mov	r0, r3
 1558 0036 1437     		adds	r7, r7, #20
 1559 0038 BD46     		mov	sp, r7
 1560              		@ sp needed
 1561 003a 90BD     		pop	{r4, r7, pc}
ARM GAS  C:\Users\Charlie\AppData\Local\Temp\ccHLrwpJ.s 			page 47


 1562              	.L84:
 1563              		.align	2
 1564              	.L83:
 1565 003c 00000000 		.word	ADC_DelSig_1_Offset
 1566 0040 00000000 		.word	ADC_DelSig_1_CountsPerVolt
 1567              		.cfi_endproc
 1568              	.LFE17:
 1569              		.size	ADC_DelSig_1_CountsTo_Volts, .-ADC_DelSig_1_CountsTo_Volts
 1570              		.section	.text.ADC_DelSig_1_CountsTo_uVolts,"ax",%progbits
 1571              		.align	2
 1572              		.global	ADC_DelSig_1_CountsTo_uVolts
 1573              		.thumb
 1574              		.thumb_func
 1575              		.type	ADC_DelSig_1_CountsTo_uVolts, %function
 1576              	ADC_DelSig_1_CountsTo_uVolts:
 1577              	.LFB18:
1059:.\Generated_Source\PSoC5/ADC_DelSig_1.c **** 
1060:.\Generated_Source\PSoC5/ADC_DelSig_1.c **** 
1061:.\Generated_Source\PSoC5/ADC_DelSig_1.c **** /*******************************************************************************
1062:.\Generated_Source\PSoC5/ADC_DelSig_1.c **** * Function Name: ADC_DelSig_1_CountsTo_uVolts
1063:.\Generated_Source\PSoC5/ADC_DelSig_1.c **** ********************************************************************************
1064:.\Generated_Source\PSoC5/ADC_DelSig_1.c **** *
1065:.\Generated_Source\PSoC5/ADC_DelSig_1.c **** * Summary:
1066:.\Generated_Source\PSoC5/ADC_DelSig_1.c **** *  Converts the ADC output to uVolts as a 32-bit integer. For example,
1067:.\Generated_Source\PSoC5/ADC_DelSig_1.c **** *  if the ADC measured -0.02345 Volts, the return value would be -23450 uVolts.
1068:.\Generated_Source\PSoC5/ADC_DelSig_1.c **** *
1069:.\Generated_Source\PSoC5/ADC_DelSig_1.c **** * Parameters:
1070:.\Generated_Source\PSoC5/ADC_DelSig_1.c **** *  int32 adcCounts: Result from the ADC conversion.
1071:.\Generated_Source\PSoC5/ADC_DelSig_1.c **** *
1072:.\Generated_Source\PSoC5/ADC_DelSig_1.c **** * Return:
1073:.\Generated_Source\PSoC5/ADC_DelSig_1.c **** *  int32:  Result in uVolts
1074:.\Generated_Source\PSoC5/ADC_DelSig_1.c **** *
1075:.\Generated_Source\PSoC5/ADC_DelSig_1.c **** * Global variables:
1076:.\Generated_Source\PSoC5/ADC_DelSig_1.c **** *  ADC_DelSig_1_CountsPerVolt:  used to convert ADC counts to mVolts.
1077:.\Generated_Source\PSoC5/ADC_DelSig_1.c **** *  ADC_DelSig_1_Offset:  Used as the offset while converting ADC counts
1078:.\Generated_Source\PSoC5/ADC_DelSig_1.c **** *   to mVolts.
1079:.\Generated_Source\PSoC5/ADC_DelSig_1.c **** *
1080:.\Generated_Source\PSoC5/ADC_DelSig_1.c **** * Theory:
1081:.\Generated_Source\PSoC5/ADC_DelSig_1.c **** *  Care must be taken to not exceed the maximum value for a 31 bit signed
1082:.\Generated_Source\PSoC5/ADC_DelSig_1.c **** *  number in the conversion to uVolts and at the same time not lose resolution.
1083:.\Generated_Source\PSoC5/ADC_DelSig_1.c **** *
1084:.\Generated_Source\PSoC5/ADC_DelSig_1.c **** *  uVolts = ((A * adcCounts) / ((int32)ADC_DelSig_1_CountsPerVolt / B));
1085:.\Generated_Source\PSoC5/ADC_DelSig_1.c **** *
1086:.\Generated_Source\PSoC5/ADC_DelSig_1.c **** *******************************************************************************/
1087:.\Generated_Source\PSoC5/ADC_DelSig_1.c **** int32 ADC_DelSig_1_CountsTo_uVolts(int32 adcCounts) 
1088:.\Generated_Source\PSoC5/ADC_DelSig_1.c **** {
 1578              		.loc 1 1088 0
 1579              		.cfi_startproc
 1580              		@ args = 0, pretend = 0, frame = 24
 1581              		@ frame_needed = 1, uses_anonymous_args = 0
 1582              		@ link register save eliminated.
 1583 0000 80B4     		push	{r7}
 1584              		.cfi_def_cfa_offset 4
 1585              		.cfi_offset 7, -4
 1586 0002 87B0     		sub	sp, sp, #28
 1587              		.cfi_def_cfa_offset 32
 1588 0004 00AF     		add	r7, sp, #0
ARM GAS  C:\Users\Charlie\AppData\Local\Temp\ccHLrwpJ.s 			page 48


 1589              		.cfi_def_cfa_register 7
 1590 0006 7860     		str	r0, [r7, #4]
1089:.\Generated_Source\PSoC5/ADC_DelSig_1.c **** 
1090:.\Generated_Source\PSoC5/ADC_DelSig_1.c ****     int32 uVolts;
1091:.\Generated_Source\PSoC5/ADC_DelSig_1.c ****     int32 coefA;
1092:.\Generated_Source\PSoC5/ADC_DelSig_1.c ****     int32 coefB;
1093:.\Generated_Source\PSoC5/ADC_DelSig_1.c ****     uint8 resolution;
1094:.\Generated_Source\PSoC5/ADC_DelSig_1.c **** 
1095:.\Generated_Source\PSoC5/ADC_DelSig_1.c ****     /* Set the resolution based on the configuration */
1096:.\Generated_Source\PSoC5/ADC_DelSig_1.c ****     /* Convert adcCounts to the right align if left option selected */
1097:.\Generated_Source\PSoC5/ADC_DelSig_1.c ****     if (ADC_DelSig_1_Config == ADC_DelSig_1_CFG1)
 1591              		.loc 1 1097 0
 1592 0008 224B     		ldr	r3, .L95
 1593 000a 1B78     		ldrb	r3, [r3]
 1594 000c DBB2     		uxtb	r3, r3
 1595 000e 012B     		cmp	r3, #1
 1596 0010 02D1     		bne	.L86
1098:.\Generated_Source\PSoC5/ADC_DelSig_1.c ****     {
1099:.\Generated_Source\PSoC5/ADC_DelSig_1.c ****         resolution = ADC_DelSig_1_CFG1_RESOLUTION;
 1597              		.loc 1 1099 0
 1598 0012 0823     		movs	r3, #8
 1599 0014 FB73     		strb	r3, [r7, #15]
 1600 0016 11E0     		b	.L87
 1601              	.L86:
1100:.\Generated_Source\PSoC5/ADC_DelSig_1.c ****         #if(ADC_DelSig_1_CFG1_DEC_DIV != 0)
1101:.\Generated_Source\PSoC5/ADC_DelSig_1.c ****             adcCounts /= ADC_DelSig_1_CFG1_DEC_DIV;
1102:.\Generated_Source\PSoC5/ADC_DelSig_1.c ****         #endif /* ADC_DelSig_1_CFG1_DEC_DIV */
1103:.\Generated_Source\PSoC5/ADC_DelSig_1.c ****     }
1104:.\Generated_Source\PSoC5/ADC_DelSig_1.c ****     else if (ADC_DelSig_1_Config == ADC_DelSig_1_CFG2)
 1602              		.loc 1 1104 0
 1603 0018 1E4B     		ldr	r3, .L95
 1604 001a 1B78     		ldrb	r3, [r3]
 1605 001c DBB2     		uxtb	r3, r3
 1606 001e 022B     		cmp	r3, #2
 1607 0020 02D1     		bne	.L88
1105:.\Generated_Source\PSoC5/ADC_DelSig_1.c ****     {
1106:.\Generated_Source\PSoC5/ADC_DelSig_1.c ****         resolution = ADC_DelSig_1_CFG2_RESOLUTION;
 1608              		.loc 1 1106 0
 1609 0022 1023     		movs	r3, #16
 1610 0024 FB73     		strb	r3, [r7, #15]
 1611 0026 09E0     		b	.L87
 1612              	.L88:
1107:.\Generated_Source\PSoC5/ADC_DelSig_1.c ****         #if(ADC_DelSig_1_CFG2_DEC_DIV != 0)
1108:.\Generated_Source\PSoC5/ADC_DelSig_1.c ****             adcCounts /= ADC_DelSig_1_CFG2_DEC_DIV;
1109:.\Generated_Source\PSoC5/ADC_DelSig_1.c ****         #endif /* ADC_DelSig_1_CFG2_DEC_DIV */
1110:.\Generated_Source\PSoC5/ADC_DelSig_1.c ****     }
1111:.\Generated_Source\PSoC5/ADC_DelSig_1.c ****     else if (ADC_DelSig_1_Config == ADC_DelSig_1_CFG3)
 1613              		.loc 1 1111 0
 1614 0028 1A4B     		ldr	r3, .L95
 1615 002a 1B78     		ldrb	r3, [r3]
 1616 002c DBB2     		uxtb	r3, r3
 1617 002e 032B     		cmp	r3, #3
 1618 0030 02D1     		bne	.L89
1112:.\Generated_Source\PSoC5/ADC_DelSig_1.c ****     {
1113:.\Generated_Source\PSoC5/ADC_DelSig_1.c ****         resolution = ADC_DelSig_1_CFG3_RESOLUTION;
 1619              		.loc 1 1113 0
 1620 0032 1023     		movs	r3, #16
ARM GAS  C:\Users\Charlie\AppData\Local\Temp\ccHLrwpJ.s 			page 49


 1621 0034 FB73     		strb	r3, [r7, #15]
 1622 0036 01E0     		b	.L87
 1623              	.L89:
1114:.\Generated_Source\PSoC5/ADC_DelSig_1.c ****         #if(ADC_DelSig_1_CFG3_DEC_DIV != 0)
1115:.\Generated_Source\PSoC5/ADC_DelSig_1.c ****             adcCounts /= ADC_DelSig_1_CFG3_DEC_DIV;
1116:.\Generated_Source\PSoC5/ADC_DelSig_1.c ****         #endif /* ADC_DelSig_1_CFG3_DEC_DIV */
1117:.\Generated_Source\PSoC5/ADC_DelSig_1.c ****     }
1118:.\Generated_Source\PSoC5/ADC_DelSig_1.c ****     else
1119:.\Generated_Source\PSoC5/ADC_DelSig_1.c ****     {
1120:.\Generated_Source\PSoC5/ADC_DelSig_1.c ****         resolution = ADC_DelSig_1_CFG4_RESOLUTION;
 1624              		.loc 1 1120 0
 1625 0038 1023     		movs	r3, #16
 1626 003a FB73     		strb	r3, [r7, #15]
 1627              	.L87:
1121:.\Generated_Source\PSoC5/ADC_DelSig_1.c ****         #if(ADC_DelSig_1_CFG4_DEC_DIV != 0)
1122:.\Generated_Source\PSoC5/ADC_DelSig_1.c ****             adcCounts /= ADC_DelSig_1_CFG4_DEC_DIV;
1123:.\Generated_Source\PSoC5/ADC_DelSig_1.c ****         #endif /* ADC_DelSig_1_CFG4_DEC_DIV */
1124:.\Generated_Source\PSoC5/ADC_DelSig_1.c ****     }
1125:.\Generated_Source\PSoC5/ADC_DelSig_1.c **** 
1126:.\Generated_Source\PSoC5/ADC_DelSig_1.c ****     switch (resolution)
 1628              		.loc 1 1126 0
 1629 003c FB7B     		ldrb	r3, [r7, #15]	@ zero_extendqisi2
 1630 003e 102B     		cmp	r3, #16
 1631 0040 05D1     		bne	.L94
1127:.\Generated_Source\PSoC5/ADC_DelSig_1.c ****     {
1128:.\Generated_Source\PSoC5/ADC_DelSig_1.c ****         #if( (ADC_DelSig_1_CFG1_RESOLUTION == ADC_DelSig_1__BITS_12) || \
1129:.\Generated_Source\PSoC5/ADC_DelSig_1.c ****              (ADC_DelSig_1_CFG2_RESOLUTION == ADC_DelSig_1__BITS_12) || \
1130:.\Generated_Source\PSoC5/ADC_DelSig_1.c ****              (ADC_DelSig_1_CFG3_RESOLUTION == ADC_DelSig_1__BITS_12) || \
1131:.\Generated_Source\PSoC5/ADC_DelSig_1.c ****              (ADC_DelSig_1_CFG4_RESOLUTION == ADC_DelSig_1__BITS_12) )
1132:.\Generated_Source\PSoC5/ADC_DelSig_1.c ****             case (uint8)ADC_DelSig_1__BITS_12:
1133:.\Generated_Source\PSoC5/ADC_DelSig_1.c ****                 coefA = ADC_DelSig_1_1UV_COUNTS / ADC_DelSig_1_DIVISOR_2;
1134:.\Generated_Source\PSoC5/ADC_DelSig_1.c ****                 coefB = ADC_DelSig_1_DIVISOR_2;
1135:.\Generated_Source\PSoC5/ADC_DelSig_1.c ****                 break;
1136:.\Generated_Source\PSoC5/ADC_DelSig_1.c ****         #endif /* ADC_DelSig_1__BITS_12 */    
1137:.\Generated_Source\PSoC5/ADC_DelSig_1.c ****         #if( (ADC_DelSig_1_CFG1_RESOLUTION == ADC_DelSig_1__BITS_13) || \
1138:.\Generated_Source\PSoC5/ADC_DelSig_1.c ****              (ADC_DelSig_1_CFG2_RESOLUTION == ADC_DelSig_1__BITS_13) || \
1139:.\Generated_Source\PSoC5/ADC_DelSig_1.c ****              (ADC_DelSig_1_CFG3_RESOLUTION == ADC_DelSig_1__BITS_13) || \
1140:.\Generated_Source\PSoC5/ADC_DelSig_1.c ****              (ADC_DelSig_1_CFG4_RESOLUTION == ADC_DelSig_1__BITS_13) )
1141:.\Generated_Source\PSoC5/ADC_DelSig_1.c ****             case (uint8)ADC_DelSig_1__BITS_13:
1142:.\Generated_Source\PSoC5/ADC_DelSig_1.c ****                 coefA = ADC_DelSig_1_1UV_COUNTS / ADC_DelSig_1_DIVISOR_4;
1143:.\Generated_Source\PSoC5/ADC_DelSig_1.c ****                 coefB = ADC_DelSig_1_DIVISOR_4;
1144:.\Generated_Source\PSoC5/ADC_DelSig_1.c ****                 break;
1145:.\Generated_Source\PSoC5/ADC_DelSig_1.c ****         #endif /* ADC_DelSig_1__BITS_13 */    
1146:.\Generated_Source\PSoC5/ADC_DelSig_1.c ****         #if( (ADC_DelSig_1_CFG1_RESOLUTION == ADC_DelSig_1__BITS_14) || \
1147:.\Generated_Source\PSoC5/ADC_DelSig_1.c ****              (ADC_DelSig_1_CFG2_RESOLUTION == ADC_DelSig_1__BITS_14) || \
1148:.\Generated_Source\PSoC5/ADC_DelSig_1.c ****              (ADC_DelSig_1_CFG3_RESOLUTION == ADC_DelSig_1__BITS_14) || \
1149:.\Generated_Source\PSoC5/ADC_DelSig_1.c ****              (ADC_DelSig_1_CFG4_RESOLUTION == ADC_DelSig_1__BITS_14) )
1150:.\Generated_Source\PSoC5/ADC_DelSig_1.c ****             case (uint8)ADC_DelSig_1__BITS_14:
1151:.\Generated_Source\PSoC5/ADC_DelSig_1.c ****                 coefA = ADC_DelSig_1_1UV_COUNTS / ADC_DelSig_1_DIVISOR_8;
1152:.\Generated_Source\PSoC5/ADC_DelSig_1.c ****                 coefB = ADC_DelSig_1_DIVISOR_8;
1153:.\Generated_Source\PSoC5/ADC_DelSig_1.c ****                 break;
1154:.\Generated_Source\PSoC5/ADC_DelSig_1.c ****         #endif /* ADC_DelSig_1__BITS_14 */    
1155:.\Generated_Source\PSoC5/ADC_DelSig_1.c ****         #if( (ADC_DelSig_1_CFG1_RESOLUTION == ADC_DelSig_1__BITS_15) || \
1156:.\Generated_Source\PSoC5/ADC_DelSig_1.c ****              (ADC_DelSig_1_CFG2_RESOLUTION == ADC_DelSig_1__BITS_15) || \
1157:.\Generated_Source\PSoC5/ADC_DelSig_1.c ****              (ADC_DelSig_1_CFG3_RESOLUTION == ADC_DelSig_1__BITS_15) || \
1158:.\Generated_Source\PSoC5/ADC_DelSig_1.c ****              (ADC_DelSig_1_CFG4_RESOLUTION == ADC_DelSig_1__BITS_15) )
1159:.\Generated_Source\PSoC5/ADC_DelSig_1.c ****             case (uint8)ADC_DelSig_1__BITS_15:
ARM GAS  C:\Users\Charlie\AppData\Local\Temp\ccHLrwpJ.s 			page 50


1160:.\Generated_Source\PSoC5/ADC_DelSig_1.c ****                 coefA = ADC_DelSig_1_1UV_COUNTS / ADC_DelSig_1_DIVISOR_16;
1161:.\Generated_Source\PSoC5/ADC_DelSig_1.c ****                 coefB = ADC_DelSig_1_DIVISOR_16;
1162:.\Generated_Source\PSoC5/ADC_DelSig_1.c ****                 break;
1163:.\Generated_Source\PSoC5/ADC_DelSig_1.c ****         #endif /* ADC_DelSig_1__BITS_15 */    
1164:.\Generated_Source\PSoC5/ADC_DelSig_1.c ****         #if( (ADC_DelSig_1_CFG1_RESOLUTION == ADC_DelSig_1__BITS_16) || \
1165:.\Generated_Source\PSoC5/ADC_DelSig_1.c ****              (ADC_DelSig_1_CFG2_RESOLUTION == ADC_DelSig_1__BITS_16) || \
1166:.\Generated_Source\PSoC5/ADC_DelSig_1.c ****              (ADC_DelSig_1_CFG3_RESOLUTION == ADC_DelSig_1__BITS_16) || \
1167:.\Generated_Source\PSoC5/ADC_DelSig_1.c ****              (ADC_DelSig_1_CFG4_RESOLUTION == ADC_DelSig_1__BITS_16) )
1168:.\Generated_Source\PSoC5/ADC_DelSig_1.c ****             case (uint8)ADC_DelSig_1__BITS_16:
1169:.\Generated_Source\PSoC5/ADC_DelSig_1.c ****                 coefA = ADC_DelSig_1_1UV_COUNTS / ADC_DelSig_1_DIVISOR_32;
 1632              		.loc 1 1169 0
 1633 0042 47F61223 		movw	r3, #31250
 1634 0046 7B61     		str	r3, [r7, #20]
1170:.\Generated_Source\PSoC5/ADC_DelSig_1.c ****                 coefB = ADC_DelSig_1_DIVISOR_32;
 1635              		.loc 1 1170 0
 1636 0048 2023     		movs	r3, #32
 1637 004a 3B61     		str	r3, [r7, #16]
1171:.\Generated_Source\PSoC5/ADC_DelSig_1.c ****                 break;
 1638              		.loc 1 1171 0
 1639 004c 04E0     		b	.L92
 1640              	.L94:
1172:.\Generated_Source\PSoC5/ADC_DelSig_1.c ****         #endif /* ADC_DelSig_1__BITS_16 */    
1173:.\Generated_Source\PSoC5/ADC_DelSig_1.c ****         #if( (ADC_DelSig_1_CFG1_RESOLUTION == ADC_DelSig_1__BITS_17) || \
1174:.\Generated_Source\PSoC5/ADC_DelSig_1.c ****              (ADC_DelSig_1_CFG2_RESOLUTION == ADC_DelSig_1__BITS_17) || \
1175:.\Generated_Source\PSoC5/ADC_DelSig_1.c ****              (ADC_DelSig_1_CFG3_RESOLUTION == ADC_DelSig_1__BITS_17) || \
1176:.\Generated_Source\PSoC5/ADC_DelSig_1.c ****              (ADC_DelSig_1_CFG4_RESOLUTION == ADC_DelSig_1__BITS_17) )
1177:.\Generated_Source\PSoC5/ADC_DelSig_1.c ****             case (uint8)ADC_DelSig_1__BITS_17:
1178:.\Generated_Source\PSoC5/ADC_DelSig_1.c ****                 coefA = ADC_DelSig_1_1UV_COUNTS / ADC_DelSig_1_DIVISOR_64;
1179:.\Generated_Source\PSoC5/ADC_DelSig_1.c ****                 coefB = ADC_DelSig_1_DIVISOR_64;
1180:.\Generated_Source\PSoC5/ADC_DelSig_1.c ****                 break;
1181:.\Generated_Source\PSoC5/ADC_DelSig_1.c ****         #endif /* ADC_DelSig_1__BITS_17 */    
1182:.\Generated_Source\PSoC5/ADC_DelSig_1.c ****         #if( (ADC_DelSig_1_CFG1_RESOLUTION == ADC_DelSig_1__BITS_18) || \
1183:.\Generated_Source\PSoC5/ADC_DelSig_1.c ****              (ADC_DelSig_1_CFG2_RESOLUTION == ADC_DelSig_1__BITS_18) || \
1184:.\Generated_Source\PSoC5/ADC_DelSig_1.c ****              (ADC_DelSig_1_CFG3_RESOLUTION == ADC_DelSig_1__BITS_18) || \
1185:.\Generated_Source\PSoC5/ADC_DelSig_1.c ****              (ADC_DelSig_1_CFG4_RESOLUTION == ADC_DelSig_1__BITS_18) )
1186:.\Generated_Source\PSoC5/ADC_DelSig_1.c ****             case (uint8)ADC_DelSig_1__BITS_18:
1187:.\Generated_Source\PSoC5/ADC_DelSig_1.c ****                 coefA = ADC_DelSig_1_1UV_COUNTS / ADC_DelSig_1_DIVISOR_125;
1188:.\Generated_Source\PSoC5/ADC_DelSig_1.c ****                 coefB = ADC_DelSig_1_DIVISOR_125;
1189:.\Generated_Source\PSoC5/ADC_DelSig_1.c ****                 break;
1190:.\Generated_Source\PSoC5/ADC_DelSig_1.c ****         #endif /* ADC_DelSig_1__BITS_18 */    
1191:.\Generated_Source\PSoC5/ADC_DelSig_1.c ****         #if( (ADC_DelSig_1_CFG1_RESOLUTION == ADC_DelSig_1__BITS_19) || \
1192:.\Generated_Source\PSoC5/ADC_DelSig_1.c ****              (ADC_DelSig_1_CFG2_RESOLUTION == ADC_DelSig_1__BITS_19) || \
1193:.\Generated_Source\PSoC5/ADC_DelSig_1.c ****              (ADC_DelSig_1_CFG3_RESOLUTION == ADC_DelSig_1__BITS_19) || \
1194:.\Generated_Source\PSoC5/ADC_DelSig_1.c ****              (ADC_DelSig_1_CFG4_RESOLUTION == ADC_DelSig_1__BITS_19) )
1195:.\Generated_Source\PSoC5/ADC_DelSig_1.c ****             case (uint8)ADC_DelSig_1__BITS_19:
1196:.\Generated_Source\PSoC5/ADC_DelSig_1.c ****                 coefA = ADC_DelSig_1_1UV_COUNTS / ADC_DelSig_1_DIVISOR_250;
1197:.\Generated_Source\PSoC5/ADC_DelSig_1.c ****                 coefB = ADC_DelSig_1_DIVISOR_250;
1198:.\Generated_Source\PSoC5/ADC_DelSig_1.c ****                 break;
1199:.\Generated_Source\PSoC5/ADC_DelSig_1.c ****         #endif /* ADC_DelSig_1__BITS_19 */    
1200:.\Generated_Source\PSoC5/ADC_DelSig_1.c ****         #if( (ADC_DelSig_1_CFG1_RESOLUTION == ADC_DelSig_1__BITS_20) || \
1201:.\Generated_Source\PSoC5/ADC_DelSig_1.c ****              (ADC_DelSig_1_CFG2_RESOLUTION == ADC_DelSig_1__BITS_20) || \
1202:.\Generated_Source\PSoC5/ADC_DelSig_1.c ****              (ADC_DelSig_1_CFG3_RESOLUTION == ADC_DelSig_1__BITS_20) || \
1203:.\Generated_Source\PSoC5/ADC_DelSig_1.c ****              (ADC_DelSig_1_CFG4_RESOLUTION == ADC_DelSig_1__BITS_20) )
1204:.\Generated_Source\PSoC5/ADC_DelSig_1.c ****             case (uint8)ADC_DelSig_1__BITS_20:
1205:.\Generated_Source\PSoC5/ADC_DelSig_1.c ****                 coefA = ADC_DelSig_1_1UV_COUNTS / ADC_DelSig_1_DIVISOR_500;
1206:.\Generated_Source\PSoC5/ADC_DelSig_1.c ****                 coefB = ADC_DelSig_1_DIVISOR_500;
1207:.\Generated_Source\PSoC5/ADC_DelSig_1.c ****                 break;
ARM GAS  C:\Users\Charlie\AppData\Local\Temp\ccHLrwpJ.s 			page 51


1208:.\Generated_Source\PSoC5/ADC_DelSig_1.c ****         #endif /* ADC_DelSig_1__BITS_20 */    
1209:.\Generated_Source\PSoC5/ADC_DelSig_1.c ****         default:    /* resolution < 12 */
1210:.\Generated_Source\PSoC5/ADC_DelSig_1.c ****             /* 11 bits ADC + 2^20(1048576) = 31 bits */
1211:.\Generated_Source\PSoC5/ADC_DelSig_1.c ****             coefA = ADC_DelSig_1_1UV_COUNTS;
 1641              		.loc 1 1211 0
 1642 004e 124B     		ldr	r3, .L95+4
 1643 0050 7B61     		str	r3, [r7, #20]
1212:.\Generated_Source\PSoC5/ADC_DelSig_1.c ****             coefB = ADC_DelSig_1_DIVISOR_1;
 1644              		.loc 1 1212 0
 1645 0052 0123     		movs	r3, #1
 1646 0054 3B61     		str	r3, [r7, #16]
1213:.\Generated_Source\PSoC5/ADC_DelSig_1.c ****             break;
 1647              		.loc 1 1213 0
 1648 0056 00BF     		nop
 1649              	.L92:
1214:.\Generated_Source\PSoC5/ADC_DelSig_1.c ****     }
1215:.\Generated_Source\PSoC5/ADC_DelSig_1.c ****     coefB = ADC_DelSig_1_CountsPerVolt / coefB;
 1650              		.loc 1 1215 0
 1651 0058 104B     		ldr	r3, .L95+8
 1652 005a 1A68     		ldr	r2, [r3]
 1653 005c 3B69     		ldr	r3, [r7, #16]
 1654 005e 92FBF3F3 		sdiv	r3, r2, r3
 1655 0062 3B61     		str	r3, [r7, #16]
1216:.\Generated_Source\PSoC5/ADC_DelSig_1.c ****     uVolts = ((coefA * adcCounts) / coefB) - ((coefA * ADC_DelSig_1_Offset) / coefB);
 1656              		.loc 1 1216 0
 1657 0064 7B69     		ldr	r3, [r7, #20]
 1658 0066 7A68     		ldr	r2, [r7, #4]
 1659 0068 02FB03F2 		mul	r2, r2, r3
 1660 006c 3B69     		ldr	r3, [r7, #16]
 1661 006e 92FBF3F2 		sdiv	r2, r2, r3
 1662 0072 0B4B     		ldr	r3, .L95+12
 1663 0074 1B68     		ldr	r3, [r3]
 1664 0076 7969     		ldr	r1, [r7, #20]
 1665 0078 01FB03F1 		mul	r1, r1, r3
 1666 007c 3B69     		ldr	r3, [r7, #16]
 1667 007e 91FBF3F3 		sdiv	r3, r1, r3
 1668 0082 D31A     		subs	r3, r2, r3
 1669 0084 BB60     		str	r3, [r7, #8]
1217:.\Generated_Source\PSoC5/ADC_DelSig_1.c **** 
1218:.\Generated_Source\PSoC5/ADC_DelSig_1.c ****     return( uVolts );
 1670              		.loc 1 1218 0
 1671 0086 BB68     		ldr	r3, [r7, #8]
1219:.\Generated_Source\PSoC5/ADC_DelSig_1.c **** }
 1672              		.loc 1 1219 0
 1673 0088 1846     		mov	r0, r3
 1674 008a 1C37     		adds	r7, r7, #28
 1675 008c BD46     		mov	sp, r7
 1676              		@ sp needed
 1677 008e 5DF8047B 		ldr	r7, [sp], #4
 1678 0092 7047     		bx	lr
 1679              	.L96:
 1680              		.align	2
 1681              	.L95:
 1682 0094 00000000 		.word	ADC_DelSig_1_Config
 1683 0098 40420F00 		.word	1000000
 1684 009c 00000000 		.word	ADC_DelSig_1_CountsPerVolt
 1685 00a0 00000000 		.word	ADC_DelSig_1_Offset
ARM GAS  C:\Users\Charlie\AppData\Local\Temp\ccHLrwpJ.s 			page 52


 1686              		.cfi_endproc
 1687              	.LFE18:
 1688              		.size	ADC_DelSig_1_CountsTo_uVolts, .-ADC_DelSig_1_CountsTo_uVolts
 1689              		.section	.text.ADC_DelSig_1_InitConfig,"ax",%progbits
 1690              		.align	2
 1691              		.thumb
 1692              		.thumb_func
 1693              		.type	ADC_DelSig_1_InitConfig, %function
 1694              	ADC_DelSig_1_InitConfig:
 1695              	.LFB19:
1220:.\Generated_Source\PSoC5/ADC_DelSig_1.c **** 
1221:.\Generated_Source\PSoC5/ADC_DelSig_1.c **** 
1222:.\Generated_Source\PSoC5/ADC_DelSig_1.c **** /*******************************************************************************
1223:.\Generated_Source\PSoC5/ADC_DelSig_1.c **** * Function Name: ADC_DelSig_1_InitConfig(uint8 config)
1224:.\Generated_Source\PSoC5/ADC_DelSig_1.c **** ********************************************************************************
1225:.\Generated_Source\PSoC5/ADC_DelSig_1.c **** *
1226:.\Generated_Source\PSoC5/ADC_DelSig_1.c **** * Summary:
1227:.\Generated_Source\PSoC5/ADC_DelSig_1.c **** *  Initializes all registers based on customizer settings
1228:.\Generated_Source\PSoC5/ADC_DelSig_1.c **** *
1229:.\Generated_Source\PSoC5/ADC_DelSig_1.c **** * Parameters:
1230:.\Generated_Source\PSoC5/ADC_DelSig_1.c **** *   void
1231:.\Generated_Source\PSoC5/ADC_DelSig_1.c **** *
1232:.\Generated_Source\PSoC5/ADC_DelSig_1.c **** * Return:
1233:.\Generated_Source\PSoC5/ADC_DelSig_1.c **** *  None
1234:.\Generated_Source\PSoC5/ADC_DelSig_1.c **** *
1235:.\Generated_Source\PSoC5/ADC_DelSig_1.c **** * Global variables:
1236:.\Generated_Source\PSoC5/ADC_DelSig_1.c **** *  ADC_DelSig_1_CountsPerVolt:  Used to set the default counts per volt.
1237:.\Generated_Source\PSoC5/ADC_DelSig_1.c **** *
1238:.\Generated_Source\PSoC5/ADC_DelSig_1.c **** * Side Effects: Rewrites the coherency set by ADC_DelSig_1_SetCoherency()
1239:.\Generated_Source\PSoC5/ADC_DelSig_1.c **** *   API to the default value.
1240:.\Generated_Source\PSoC5/ADC_DelSig_1.c **** *
1241:.\Generated_Source\PSoC5/ADC_DelSig_1.c **** *******************************************************************************/
1242:.\Generated_Source\PSoC5/ADC_DelSig_1.c **** static void ADC_DelSig_1_InitConfig(uint8 config) 
1243:.\Generated_Source\PSoC5/ADC_DelSig_1.c **** {
 1696              		.loc 1 1243 0
 1697              		.cfi_startproc
 1698              		@ args = 0, pretend = 0, frame = 8
 1699              		@ frame_needed = 1, uses_anonymous_args = 0
 1700 0000 80B5     		push	{r7, lr}
 1701              		.cfi_def_cfa_offset 8
 1702              		.cfi_offset 7, -8
 1703              		.cfi_offset 14, -4
 1704 0002 82B0     		sub	sp, sp, #8
 1705              		.cfi_def_cfa_offset 16
 1706 0004 00AF     		add	r7, sp, #0
 1707              		.cfi_def_cfa_register 7
 1708 0006 0346     		mov	r3, r0
 1709 0008 FB71     		strb	r3, [r7, #7]
1244:.\Generated_Source\PSoC5/ADC_DelSig_1.c ****     ADC_DelSig_1_stopConversion = 0u;
 1710              		.loc 1 1244 0
 1711 000a C24B     		ldr	r3, .L102
 1712 000c 0022     		movs	r2, #0
 1713 000e 1A70     		strb	r2, [r3]
1245:.\Generated_Source\PSoC5/ADC_DelSig_1.c **** 
1246:.\Generated_Source\PSoC5/ADC_DelSig_1.c ****     if (config == 1u)
 1714              		.loc 1 1246 0
 1715 0010 FB79     		ldrb	r3, [r7, #7]	@ zero_extendqisi2
ARM GAS  C:\Users\Charlie\AppData\Local\Temp\ccHLrwpJ.s 			page 53


 1716 0012 012B     		cmp	r3, #1
 1717 0014 65D1     		bne	.L98
1247:.\Generated_Source\PSoC5/ADC_DelSig_1.c ****     {
1248:.\Generated_Source\PSoC5/ADC_DelSig_1.c ****         /* Default Config */
1249:.\Generated_Source\PSoC5/ADC_DelSig_1.c ****         ADC_DelSig_1_DEC_CR_REG      = ADC_DelSig_1_CFG1_DEC_CR;
 1718              		.loc 1 1249 0
 1719 0016 C04B     		ldr	r3, .L102+4
 1720 0018 3822     		movs	r2, #56
 1721 001a 1A70     		strb	r2, [r3]
1250:.\Generated_Source\PSoC5/ADC_DelSig_1.c ****         ADC_DelSig_1_DEC_SHIFT1_REG  = ADC_DelSig_1_CFG1_DEC_SHIFT1;
 1722              		.loc 1 1250 0
 1723 001c BF4B     		ldr	r3, .L102+8
 1724 001e 0422     		movs	r2, #4
 1725 0020 1A70     		strb	r2, [r3]
1251:.\Generated_Source\PSoC5/ADC_DelSig_1.c ****         ADC_DelSig_1_DEC_SHIFT2_REG  = ADC_DelSig_1_CFG1_DEC_SHIFT2;
 1726              		.loc 1 1251 0
 1727 0022 BF4B     		ldr	r3, .L102+12
 1728 0024 0622     		movs	r2, #6
 1729 0026 1A70     		strb	r2, [r3]
1252:.\Generated_Source\PSoC5/ADC_DelSig_1.c ****         ADC_DelSig_1_DEC_DR2_REG     = ADC_DelSig_1_CFG1_DEC_DR2;
 1730              		.loc 1 1252 0
 1731 0028 BE4B     		ldr	r3, .L102+16
 1732 002a 0022     		movs	r2, #0
 1733 002c 1A70     		strb	r2, [r3]
1253:.\Generated_Source\PSoC5/ADC_DelSig_1.c ****         ADC_DelSig_1_DEC_DR2H_REG    = ADC_DelSig_1_CFG1_DEC_DR2H;
 1734              		.loc 1 1253 0
 1735 002e BE4B     		ldr	r3, .L102+20
 1736 0030 0022     		movs	r2, #0
 1737 0032 1A70     		strb	r2, [r3]
1254:.\Generated_Source\PSoC5/ADC_DelSig_1.c ****         ADC_DelSig_1_DEC_DR1_REG     = ADC_DelSig_1_CFG1_DEC_DR1;
 1738              		.loc 1 1254 0
 1739 0034 BD4B     		ldr	r3, .L102+24
 1740 0036 0F22     		movs	r2, #15
 1741 0038 1A70     		strb	r2, [r3]
1255:.\Generated_Source\PSoC5/ADC_DelSig_1.c ****         ADC_DelSig_1_DEC_OCOR_REG    = ADC_DelSig_1_CFG1_DEC_OCOR;
 1742              		.loc 1 1255 0
 1743 003a BD4B     		ldr	r3, .L102+28
 1744 003c 0022     		movs	r2, #0
 1745 003e 1A70     		strb	r2, [r3]
1256:.\Generated_Source\PSoC5/ADC_DelSig_1.c ****         ADC_DelSig_1_DEC_OCORM_REG   = ADC_DelSig_1_CFG1_DEC_OCORM;
 1746              		.loc 1 1256 0
 1747 0040 BC4B     		ldr	r3, .L102+32
 1748 0042 0022     		movs	r2, #0
 1749 0044 1A70     		strb	r2, [r3]
1257:.\Generated_Source\PSoC5/ADC_DelSig_1.c ****         ADC_DelSig_1_DEC_OCORH_REG   = ADC_DelSig_1_CFG1_DEC_OCORH;
 1750              		.loc 1 1257 0
 1751 0046 BC4B     		ldr	r3, .L102+36
 1752 0048 0022     		movs	r2, #0
 1753 004a 1A70     		strb	r2, [r3]
1258:.\Generated_Source\PSoC5/ADC_DelSig_1.c ****         ADC_DelSig_1_DEC_COHER_REG   = ADC_DelSig_1_CFG1_DEC_COHER;
 1754              		.loc 1 1258 0
 1755 004c BB4B     		ldr	r3, .L102+40
 1756 004e 0122     		movs	r2, #1
 1757 0050 1A70     		strb	r2, [r3]
1259:.\Generated_Source\PSoC5/ADC_DelSig_1.c **** 
1260:.\Generated_Source\PSoC5/ADC_DelSig_1.c ****         ADC_DelSig_1_DSM_CR4_REG     = ADC_DelSig_1_CFG1_DSM_CR4;
 1758              		.loc 1 1260 0
ARM GAS  C:\Users\Charlie\AppData\Local\Temp\ccHLrwpJ.s 			page 54


 1759 0052 BB4B     		ldr	r3, .L102+44
 1760 0054 1422     		movs	r2, #20
 1761 0056 1A70     		strb	r2, [r3]
1261:.\Generated_Source\PSoC5/ADC_DelSig_1.c ****         ADC_DelSig_1_DSM_CR5_REG     = ADC_DelSig_1_CFG1_DSM_CR5;
 1762              		.loc 1 1261 0
 1763 0058 BA4B     		ldr	r3, .L102+48
 1764 005a 0422     		movs	r2, #4
 1765 005c 1A70     		strb	r2, [r3]
1262:.\Generated_Source\PSoC5/ADC_DelSig_1.c ****         ADC_DelSig_1_DSM_CR6_REG     = ADC_DelSig_1_CFG1_DSM_CR6;
 1766              		.loc 1 1262 0
 1767 005e BA4B     		ldr	r3, .L102+52
 1768 0060 1822     		movs	r2, #24
 1769 0062 1A70     		strb	r2, [r3]
1263:.\Generated_Source\PSoC5/ADC_DelSig_1.c ****         ADC_DelSig_1_DSM_CR7_REG     = ADC_DelSig_1_CFG1_DSM_CR7;
 1770              		.loc 1 1263 0
 1771 0064 B94B     		ldr	r3, .L102+56
 1772 0066 0022     		movs	r2, #0
 1773 0068 1A70     		strb	r2, [r3]
1264:.\Generated_Source\PSoC5/ADC_DelSig_1.c ****         ADC_DelSig_1_DSM_CR10_REG    = ADC_DelSig_1_CFG1_DSM_CR10;
 1774              		.loc 1 1264 0
 1775 006a B94B     		ldr	r3, .L102+60
 1776 006c 1122     		movs	r2, #17
 1777 006e 1A70     		strb	r2, [r3]
1265:.\Generated_Source\PSoC5/ADC_DelSig_1.c ****         ADC_DelSig_1_DSM_CR11_REG    = ADC_DelSig_1_CFG1_DSM_CR11;
 1778              		.loc 1 1265 0
 1779 0070 B84B     		ldr	r3, .L102+64
 1780 0072 1222     		movs	r2, #18
 1781 0074 1A70     		strb	r2, [r3]
1266:.\Generated_Source\PSoC5/ADC_DelSig_1.c ****         ADC_DelSig_1_DSM_CR12_REG    = ADC_DelSig_1_CFG1_DSM_CR12;
 1782              		.loc 1 1266 0
 1783 0076 B84B     		ldr	r3, .L102+68
 1784 0078 0022     		movs	r2, #0
 1785 007a 1A70     		strb	r2, [r3]
1267:.\Generated_Source\PSoC5/ADC_DelSig_1.c ****         ADC_DelSig_1_DSM_CR14_REG    = ADC_DelSig_1_CFG1_DSM_CR14;
 1786              		.loc 1 1267 0
 1787 007c B74B     		ldr	r3, .L102+72
 1788 007e 0122     		movs	r2, #1
 1789 0080 1A70     		strb	r2, [r3]
1268:.\Generated_Source\PSoC5/ADC_DelSig_1.c ****         ADC_DelSig_1_DSM_CR15_REG    = ADC_DelSig_1_CFG1_DSM_CR15;
 1790              		.loc 1 1268 0
 1791 0082 B74B     		ldr	r3, .L102+76
 1792 0084 1122     		movs	r2, #17
 1793 0086 1A70     		strb	r2, [r3]
1269:.\Generated_Source\PSoC5/ADC_DelSig_1.c ****         ADC_DelSig_1_DSM_CR16_REG    = ADC_DelSig_1_CFG1_DSM_CR16;
 1794              		.loc 1 1269 0
 1795 0088 B64B     		ldr	r3, .L102+80
 1796 008a 1922     		movs	r2, #25
 1797 008c 1A70     		strb	r2, [r3]
1270:.\Generated_Source\PSoC5/ADC_DelSig_1.c ****         ADC_DelSig_1_DSM_CR17_REG    = ADC_DelSig_1_CFG1_DSM_CR17;
 1798              		.loc 1 1270 0
 1799 008e B64B     		ldr	r3, .L102+84
 1800 0090 9722     		movs	r2, #151
 1801 0092 1A70     		strb	r2, [r3]
1271:.\Generated_Source\PSoC5/ADC_DelSig_1.c ****         /* Set DSM_REF0_REG by disabling and enabling the PRESS circuit */
1272:.\Generated_Source\PSoC5/ADC_DelSig_1.c ****         ADC_DelSig_1_SetDSMRef0Reg(ADC_DelSig_1_CFG1_DSM_REF0);
 1802              		.loc 1 1272 0
 1803 0094 4420     		movs	r0, #68
ARM GAS  C:\Users\Charlie\AppData\Local\Temp\ccHLrwpJ.s 			page 55


 1804 0096 FFF7FEFF 		bl	ADC_DelSig_1_SetDSMRef0Reg
1273:.\Generated_Source\PSoC5/ADC_DelSig_1.c ****         ADC_DelSig_1_DSM_REF2_REG    = ADC_DelSig_1_CFG1_DSM_REF2;
 1805              		.loc 1 1273 0
 1806 009a B44B     		ldr	r3, .L102+88
 1807 009c 5822     		movs	r2, #88
 1808 009e 1A70     		strb	r2, [r3]
1274:.\Generated_Source\PSoC5/ADC_DelSig_1.c ****         ADC_DelSig_1_DSM_REF3_REG    = ADC_DelSig_1_CFG1_DSM_REF3;
 1809              		.loc 1 1274 0
 1810 00a0 B34B     		ldr	r3, .L102+92
 1811 00a2 0022     		movs	r2, #0
 1812 00a4 1A70     		strb	r2, [r3]
1275:.\Generated_Source\PSoC5/ADC_DelSig_1.c **** 
1276:.\Generated_Source\PSoC5/ADC_DelSig_1.c ****         ADC_DelSig_1_DSM_BUF0_REG    = ADC_DelSig_1_CFG1_DSM_BUF0;
 1813              		.loc 1 1276 0
 1814 00a6 B34B     		ldr	r3, .L102+96
 1815 00a8 0522     		movs	r2, #5
 1816 00aa 1A70     		strb	r2, [r3]
1277:.\Generated_Source\PSoC5/ADC_DelSig_1.c ****         ADC_DelSig_1_DSM_BUF1_REG    = ADC_DelSig_1_CFG1_DSM_BUF1;
 1817              		.loc 1 1277 0
 1818 00ac B24B     		ldr	r3, .L102+100
 1819 00ae 0222     		movs	r2, #2
 1820 00b0 1A70     		strb	r2, [r3]
1278:.\Generated_Source\PSoC5/ADC_DelSig_1.c ****         ADC_DelSig_1_DSM_BUF2_REG    = ADC_DelSig_1_CFG1_DSM_BUF2;
 1821              		.loc 1 1278 0
 1822 00b2 B24B     		ldr	r3, .L102+104
 1823 00b4 0022     		movs	r2, #0
 1824 00b6 1A70     		strb	r2, [r3]
1279:.\Generated_Source\PSoC5/ADC_DelSig_1.c ****         ADC_DelSig_1_DSM_BUF3_REG    = ADC_DelSig_1_CFG1_DSM_BUF3;
 1825              		.loc 1 1279 0
 1826 00b8 B14B     		ldr	r3, .L102+108
 1827 00ba 0022     		movs	r2, #0
 1828 00bc 1A70     		strb	r2, [r3]
1280:.\Generated_Source\PSoC5/ADC_DelSig_1.c **** 
1281:.\Generated_Source\PSoC5/ADC_DelSig_1.c ****         /* To select either Vssa or Vref to -ve input of DSM depending on
1282:.\Generated_Source\PSoC5/ADC_DelSig_1.c ****         *  the input  range selected.
1283:.\Generated_Source\PSoC5/ADC_DelSig_1.c ****         */
1284:.\Generated_Source\PSoC5/ADC_DelSig_1.c ****         #if(ADC_DelSig_1_DEFAULT_INPUT_MODE)
1285:.\Generated_Source\PSoC5/ADC_DelSig_1.c ****             #if (ADC_DelSig_1_CFG1_INPUT_RANGE == ADC_DelSig_1_IR_VSSA_TO_2VREF)
1286:.\Generated_Source\PSoC5/ADC_DelSig_1.c ****                 ADC_DelSig_1_AMux_Select(1u);
1287:.\Generated_Source\PSoC5/ADC_DelSig_1.c ****             #else
1288:.\Generated_Source\PSoC5/ADC_DelSig_1.c ****                 ADC_DelSig_1_AMux_Select(0u);
 1829              		.loc 1 1288 0
 1830 00be 0020     		movs	r0, #0
 1831 00c0 FFF7FEFF 		bl	ADC_DelSig_1_AMux_Select
1289:.\Generated_Source\PSoC5/ADC_DelSig_1.c ****             #endif /* ADC_DelSig_1_IR_VSSA_TO_2VREF) */
1290:.\Generated_Source\PSoC5/ADC_DelSig_1.c ****         #endif /* ADC_DelSig_1_DEFAULT_INPUT_MODE */
1291:.\Generated_Source\PSoC5/ADC_DelSig_1.c **** 
1292:.\Generated_Source\PSoC5/ADC_DelSig_1.c ****         /* Set the Conversion stop if resolution is above 16 bit and conversion
1293:.\Generated_Source\PSoC5/ADC_DelSig_1.c ****         *   mode is Single sample
1294:.\Generated_Source\PSoC5/ADC_DelSig_1.c ****         */
1295:.\Generated_Source\PSoC5/ADC_DelSig_1.c ****         #if(ADC_DelSig_1_CFG1_RESOLUTION > 16 && \
1296:.\Generated_Source\PSoC5/ADC_DelSig_1.c ****             ADC_DelSig_1_CFG1_CONV_MODE == ADC_DelSig_1_MODE_SINGLE_SAMPLE)
1297:.\Generated_Source\PSoC5/ADC_DelSig_1.c ****             ADC_DelSig_1_stopConversion = 1u;
1298:.\Generated_Source\PSoC5/ADC_DelSig_1.c ****         #endif /* Single sample with resolution above 16 bits. */
1299:.\Generated_Source\PSoC5/ADC_DelSig_1.c **** 
1300:.\Generated_Source\PSoC5/ADC_DelSig_1.c ****         ADC_DelSig_1_CountsPerVolt = (int32)ADC_DelSig_1_CFG1_COUNTS_PER_VOLT;
 1832              		.loc 1 1300 0
ARM GAS  C:\Users\Charlie\AppData\Local\Temp\ccHLrwpJ.s 			page 56


 1833 00c4 AF4B     		ldr	r3, .L102+112
 1834 00c6 2A22     		movs	r2, #42
 1835 00c8 1A60     		str	r2, [r3]
1301:.\Generated_Source\PSoC5/ADC_DelSig_1.c **** 
1302:.\Generated_Source\PSoC5/ADC_DelSig_1.c ****         ADC_DelSig_1_Ext_CP_Clk_SetDividerRegister(ADC_DelSig_1_CFG1_CP_CLK_DIVIDER, 1u);
 1836              		.loc 1 1302 0
 1837 00ca 2420     		movs	r0, #36
 1838 00cc 0121     		movs	r1, #1
 1839 00ce FFF7FEFF 		bl	ADC_DelSig_1_Ext_CP_Clk_SetDividerRegister
1303:.\Generated_Source\PSoC5/ADC_DelSig_1.c **** 
1304:.\Generated_Source\PSoC5/ADC_DelSig_1.c ****         /* This is only valid if there is an internal clock */
1305:.\Generated_Source\PSoC5/ADC_DelSig_1.c ****         #if(ADC_DelSig_1_DEFAULT_INTERNAL_CLK)
1306:.\Generated_Source\PSoC5/ADC_DelSig_1.c ****             ADC_DelSig_1_theACLK_SetDividerRegister(ADC_DelSig_1_CFG1_ADC_CLK_DIVIDER, 1u);
 1840              		.loc 1 1306 0
 1841 00d2 9520     		movs	r0, #149
 1842 00d4 0121     		movs	r1, #1
 1843 00d6 FFF7FEFF 		bl	ADC_DelSig_1_theACLK_SetDividerRegister
1307:.\Generated_Source\PSoC5/ADC_DelSig_1.c ****         #endif /* ADC_DelSig_1_DEFAULT_INTERNAL_CLK */
1308:.\Generated_Source\PSoC5/ADC_DelSig_1.c **** 
1309:.\Generated_Source\PSoC5/ADC_DelSig_1.c ****         #if(ADC_DelSig_1_IRQ_REMOVE == 0u)
1310:.\Generated_Source\PSoC5/ADC_DelSig_1.c ****             /* Set interrupt vector */
1311:.\Generated_Source\PSoC5/ADC_DelSig_1.c ****             (void)CyIntSetVector(ADC_DelSig_1_INTC_NUMBER, &ADC_DelSig_1_ISR1);
 1844              		.loc 1 1311 0
 1845 00da 1D20     		movs	r0, #29
 1846 00dc AA49     		ldr	r1, .L102+116
 1847 00de FFF7FEFF 		bl	CyIntSetVector
 1848              	.L98:
1312:.\Generated_Source\PSoC5/ADC_DelSig_1.c ****         #endif   /* End ADC_DelSig_1_IRQ_REMOVE */
1313:.\Generated_Source\PSoC5/ADC_DelSig_1.c ****     }
1314:.\Generated_Source\PSoC5/ADC_DelSig_1.c **** 
1315:.\Generated_Source\PSoC5/ADC_DelSig_1.c ****     #if(ADC_DelSig_1_DEFAULT_NUM_CONFIGS > 1)
1316:.\Generated_Source\PSoC5/ADC_DelSig_1.c ****         if(config == 2u)
 1849              		.loc 1 1316 0
 1850 00e2 FB79     		ldrb	r3, [r7, #7]	@ zero_extendqisi2
 1851 00e4 022B     		cmp	r3, #2
 1852 00e6 66D1     		bne	.L99
1317:.\Generated_Source\PSoC5/ADC_DelSig_1.c ****         {
1318:.\Generated_Source\PSoC5/ADC_DelSig_1.c ****             /* Second Config */
1319:.\Generated_Source\PSoC5/ADC_DelSig_1.c ****             ADC_DelSig_1_DEC_CR_REG      = ADC_DelSig_1_CFG2_DEC_CR;
 1853              		.loc 1 1319 0
 1854 00e8 8B4B     		ldr	r3, .L102+4
 1855 00ea 3822     		movs	r2, #56
 1856 00ec 1A70     		strb	r2, [r3]
1320:.\Generated_Source\PSoC5/ADC_DelSig_1.c ****             ADC_DelSig_1_DEC_SHIFT1_REG  = ADC_DelSig_1_CFG2_DEC_SHIFT1;
 1857              		.loc 1 1320 0
 1858 00ee 8B4B     		ldr	r3, .L102+8
 1859 00f0 0422     		movs	r2, #4
 1860 00f2 1A70     		strb	r2, [r3]
1321:.\Generated_Source\PSoC5/ADC_DelSig_1.c ****             ADC_DelSig_1_DEC_SHIFT2_REG  = ADC_DelSig_1_CFG2_DEC_SHIFT2;
 1861              		.loc 1 1321 0
 1862 00f4 8A4B     		ldr	r3, .L102+12
 1863 00f6 0622     		movs	r2, #6
 1864 00f8 1A70     		strb	r2, [r3]
1322:.\Generated_Source\PSoC5/ADC_DelSig_1.c ****             ADC_DelSig_1_DEC_DR2_REG     = ADC_DelSig_1_CFG2_DEC_DR2;
 1865              		.loc 1 1322 0
 1866 00fa 8A4B     		ldr	r3, .L102+16
 1867 00fc 0022     		movs	r2, #0
ARM GAS  C:\Users\Charlie\AppData\Local\Temp\ccHLrwpJ.s 			page 57


 1868 00fe 1A70     		strb	r2, [r3]
1323:.\Generated_Source\PSoC5/ADC_DelSig_1.c ****             ADC_DelSig_1_DEC_DR2H_REG    = ADC_DelSig_1_CFG2_DEC_DR2H;
 1869              		.loc 1 1323 0
 1870 0100 894B     		ldr	r3, .L102+20
 1871 0102 0022     		movs	r2, #0
 1872 0104 1A70     		strb	r2, [r3]
1324:.\Generated_Source\PSoC5/ADC_DelSig_1.c ****             ADC_DelSig_1_DEC_DR1_REG     = ADC_DelSig_1_CFG2_DEC_DR1;
 1873              		.loc 1 1324 0
 1874 0106 894B     		ldr	r3, .L102+24
 1875 0108 3F22     		movs	r2, #63
 1876 010a 1A70     		strb	r2, [r3]
1325:.\Generated_Source\PSoC5/ADC_DelSig_1.c ****             ADC_DelSig_1_DEC_OCOR_REG    = ADC_DelSig_1_CFG2_DEC_OCOR;
 1877              		.loc 1 1325 0
 1878 010c 884B     		ldr	r3, .L102+28
 1879 010e 0022     		movs	r2, #0
 1880 0110 1A70     		strb	r2, [r3]
1326:.\Generated_Source\PSoC5/ADC_DelSig_1.c ****             ADC_DelSig_1_DEC_OCORM_REG   = ADC_DelSig_1_CFG2_DEC_OCORM;
 1881              		.loc 1 1326 0
 1882 0112 884B     		ldr	r3, .L102+32
 1883 0114 0022     		movs	r2, #0
 1884 0116 1A70     		strb	r2, [r3]
1327:.\Generated_Source\PSoC5/ADC_DelSig_1.c ****             ADC_DelSig_1_DEC_OCORH_REG   = ADC_DelSig_1_CFG2_DEC_OCORH;
 1885              		.loc 1 1327 0
 1886 0118 874B     		ldr	r3, .L102+36
 1887 011a 0022     		movs	r2, #0
 1888 011c 1A70     		strb	r2, [r3]
1328:.\Generated_Source\PSoC5/ADC_DelSig_1.c ****             ADC_DelSig_1_DEC_COHER_REG   = ADC_DelSig_1_CFG2_DEC_COHER;
 1889              		.loc 1 1328 0
 1890 011e 874B     		ldr	r3, .L102+40
 1891 0120 0122     		movs	r2, #1
 1892 0122 1A70     		strb	r2, [r3]
1329:.\Generated_Source\PSoC5/ADC_DelSig_1.c **** 
1330:.\Generated_Source\PSoC5/ADC_DelSig_1.c ****             ADC_DelSig_1_DSM_CR4_REG     = ADC_DelSig_1_CFG2_DSM_CR4;
 1893              		.loc 1 1330 0
 1894 0124 864B     		ldr	r3, .L102+44
 1895 0126 5022     		movs	r2, #80
 1896 0128 1A70     		strb	r2, [r3]
1331:.\Generated_Source\PSoC5/ADC_DelSig_1.c ****             ADC_DelSig_1_DSM_CR5_REG     = ADC_DelSig_1_CFG2_DSM_CR5;
 1897              		.loc 1 1331 0
 1898 012a 864B     		ldr	r3, .L102+48
 1899 012c 2722     		movs	r2, #39
 1900 012e 1A70     		strb	r2, [r3]
1332:.\Generated_Source\PSoC5/ADC_DelSig_1.c ****             ADC_DelSig_1_DSM_CR6_REG     = ADC_DelSig_1_CFG2_DSM_CR6;
 1901              		.loc 1 1332 0
 1902 0130 854B     		ldr	r3, .L102+52
 1903 0132 2C22     		movs	r2, #44
 1904 0134 1A70     		strb	r2, [r3]
1333:.\Generated_Source\PSoC5/ADC_DelSig_1.c ****             ADC_DelSig_1_DSM_CR7_REG     = ADC_DelSig_1_CFG2_DSM_CR7;
 1905              		.loc 1 1333 0
 1906 0136 854B     		ldr	r3, .L102+56
 1907 0138 0022     		movs	r2, #0
 1908 013a 1A70     		strb	r2, [r3]
1334:.\Generated_Source\PSoC5/ADC_DelSig_1.c ****             ADC_DelSig_1_DSM_CR10_REG    = ADC_DelSig_1_CFG2_DSM_CR10;
 1909              		.loc 1 1334 0
 1910 013c 844B     		ldr	r3, .L102+60
 1911 013e 5522     		movs	r2, #85
 1912 0140 1A70     		strb	r2, [r3]
ARM GAS  C:\Users\Charlie\AppData\Local\Temp\ccHLrwpJ.s 			page 58


1335:.\Generated_Source\PSoC5/ADC_DelSig_1.c ****             ADC_DelSig_1_DSM_CR11_REG    = ADC_DelSig_1_CFG2_DSM_CR11;
 1913              		.loc 1 1335 0
 1914 0142 844B     		ldr	r3, .L102+64
 1915 0144 5A22     		movs	r2, #90
 1916 0146 1A70     		strb	r2, [r3]
1336:.\Generated_Source\PSoC5/ADC_DelSig_1.c ****             ADC_DelSig_1_DSM_CR12_REG    = ADC_DelSig_1_CFG2_DSM_CR12;
 1917              		.loc 1 1336 0
 1918 0148 834B     		ldr	r3, .L102+68
 1919 014a 0522     		movs	r2, #5
 1920 014c 1A70     		strb	r2, [r3]
1337:.\Generated_Source\PSoC5/ADC_DelSig_1.c ****             ADC_DelSig_1_DSM_CR14_REG    = ADC_DelSig_1_CFG2_DSM_CR14;
 1921              		.loc 1 1337 0
 1922 014e 834B     		ldr	r3, .L102+72
 1923 0150 0122     		movs	r2, #1
 1924 0152 1A70     		strb	r2, [r3]
1338:.\Generated_Source\PSoC5/ADC_DelSig_1.c ****             ADC_DelSig_1_DSM_CR15_REG    = ADC_DelSig_1_CFG2_DSM_CR15;
 1925              		.loc 1 1338 0
 1926 0154 824B     		ldr	r3, .L102+76
 1927 0156 1122     		movs	r2, #17
 1928 0158 1A70     		strb	r2, [r3]
1339:.\Generated_Source\PSoC5/ADC_DelSig_1.c ****             ADC_DelSig_1_DSM_CR16_REG    = ADC_DelSig_1_CFG2_DSM_CR16;
 1929              		.loc 1 1339 0
 1930 015a 824B     		ldr	r3, .L102+80
 1931 015c 1922     		movs	r2, #25
 1932 015e 1A70     		strb	r2, [r3]
1340:.\Generated_Source\PSoC5/ADC_DelSig_1.c ****             ADC_DelSig_1_DSM_CR17_REG    = ADC_DelSig_1_CFG2_DSM_CR17;
 1933              		.loc 1 1340 0
 1934 0160 814B     		ldr	r3, .L102+84
 1935 0162 9722     		movs	r2, #151
 1936 0164 1A70     		strb	r2, [r3]
1341:.\Generated_Source\PSoC5/ADC_DelSig_1.c ****             /* Set DSM_REF0_REG by disabling and enabling the PRESS cirucit */
1342:.\Generated_Source\PSoC5/ADC_DelSig_1.c ****             ADC_DelSig_1_SetDSMRef0Reg(ADC_DelSig_1_CFG2_DSM_REF0);
 1937              		.loc 1 1342 0
 1938 0166 4420     		movs	r0, #68
 1939 0168 FFF7FEFF 		bl	ADC_DelSig_1_SetDSMRef0Reg
1343:.\Generated_Source\PSoC5/ADC_DelSig_1.c ****             ADC_DelSig_1_DSM_REF2_REG    = ADC_DelSig_1_CFG2_DSM_REF2;
 1940              		.loc 1 1343 0
 1941 016c 7F4B     		ldr	r3, .L102+88
 1942 016e 5822     		movs	r2, #88
 1943 0170 1A70     		strb	r2, [r3]
1344:.\Generated_Source\PSoC5/ADC_DelSig_1.c ****             ADC_DelSig_1_DSM_REF3_REG    = ADC_DelSig_1_CFG2_DSM_REF3;
 1944              		.loc 1 1344 0
 1945 0172 7F4B     		ldr	r3, .L102+92
 1946 0174 0022     		movs	r2, #0
 1947 0176 1A70     		strb	r2, [r3]
1345:.\Generated_Source\PSoC5/ADC_DelSig_1.c **** 
1346:.\Generated_Source\PSoC5/ADC_DelSig_1.c ****             ADC_DelSig_1_DSM_BUF0_REG    = ADC_DelSig_1_CFG2_DSM_BUF0;
 1948              		.loc 1 1346 0
 1949 0178 7E4B     		ldr	r3, .L102+96
 1950 017a 0522     		movs	r2, #5
 1951 017c 1A70     		strb	r2, [r3]
1347:.\Generated_Source\PSoC5/ADC_DelSig_1.c ****             ADC_DelSig_1_DSM_BUF1_REG    = ADC_DelSig_1_CFG2_DSM_BUF1;
 1952              		.loc 1 1347 0
 1953 017e 7E4B     		ldr	r3, .L102+100
 1954 0180 0222     		movs	r2, #2
 1955 0182 1A70     		strb	r2, [r3]
1348:.\Generated_Source\PSoC5/ADC_DelSig_1.c ****             ADC_DelSig_1_DSM_BUF2_REG    = ADC_DelSig_1_CFG2_DSM_BUF2;
ARM GAS  C:\Users\Charlie\AppData\Local\Temp\ccHLrwpJ.s 			page 59


 1956              		.loc 1 1348 0
 1957 0184 7D4B     		ldr	r3, .L102+104
 1958 0186 0022     		movs	r2, #0
 1959 0188 1A70     		strb	r2, [r3]
1349:.\Generated_Source\PSoC5/ADC_DelSig_1.c ****             ADC_DelSig_1_DSM_BUF3_REG    = ADC_DelSig_1_CFG2_DSM_BUF3;
 1960              		.loc 1 1349 0
 1961 018a 7D4B     		ldr	r3, .L102+108
 1962 018c 0022     		movs	r2, #0
 1963 018e 1A70     		strb	r2, [r3]
1350:.\Generated_Source\PSoC5/ADC_DelSig_1.c **** 
1351:.\Generated_Source\PSoC5/ADC_DelSig_1.c ****             /* To select either Vssa or Vref to -ve input of DSM depending on
1352:.\Generated_Source\PSoC5/ADC_DelSig_1.c ****             *  the input range selected.
1353:.\Generated_Source\PSoC5/ADC_DelSig_1.c ****             */
1354:.\Generated_Source\PSoC5/ADC_DelSig_1.c **** 
1355:.\Generated_Source\PSoC5/ADC_DelSig_1.c ****             #if(ADC_DelSig_1_DEFAULT_INPUT_MODE)
1356:.\Generated_Source\PSoC5/ADC_DelSig_1.c ****                 #if (ADC_DelSig_1_CFG2_INPUT_RANGE == ADC_DelSig_1_IR_VSSA_TO_2VREF)
1357:.\Generated_Source\PSoC5/ADC_DelSig_1.c ****                     ADC_DelSig_1_AMux_Select(1u);
1358:.\Generated_Source\PSoC5/ADC_DelSig_1.c ****                 #else
1359:.\Generated_Source\PSoC5/ADC_DelSig_1.c ****                     ADC_DelSig_1_AMux_Select(0u);
 1964              		.loc 1 1359 0
 1965 0190 0020     		movs	r0, #0
 1966 0192 FFF7FEFF 		bl	ADC_DelSig_1_AMux_Select
1360:.\Generated_Source\PSoC5/ADC_DelSig_1.c ****                 #endif /* ADC_DelSig_1_IR_VSSA_TO_2VREF) */
1361:.\Generated_Source\PSoC5/ADC_DelSig_1.c ****             #endif /* ADC_DelSig_1_DEFAULT_INPUT_MODE */
1362:.\Generated_Source\PSoC5/ADC_DelSig_1.c **** 
1363:.\Generated_Source\PSoC5/ADC_DelSig_1.c ****             /* Set the Conversion stop if resolution is above 16 bit and
1364:.\Generated_Source\PSoC5/ADC_DelSig_1.c ****             *   conversion mode is Single sample
1365:.\Generated_Source\PSoC5/ADC_DelSig_1.c ****             */
1366:.\Generated_Source\PSoC5/ADC_DelSig_1.c ****             #if(ADC_DelSig_1_CFG2_RESOLUTION > 16 && \
1367:.\Generated_Source\PSoC5/ADC_DelSig_1.c ****                 ADC_DelSig_1_CFG2_CONV_MODE == ADC_DelSig_1_MODE_SINGLE_SAMPLE)
1368:.\Generated_Source\PSoC5/ADC_DelSig_1.c ****                 ADC_DelSig_1_stopConversion = 1u;
1369:.\Generated_Source\PSoC5/ADC_DelSig_1.c ****             #endif /* Single sample with resolution above 16 bits. */
1370:.\Generated_Source\PSoC5/ADC_DelSig_1.c **** 
1371:.\Generated_Source\PSoC5/ADC_DelSig_1.c ****             ADC_DelSig_1_CountsPerVolt = (int32)ADC_DelSig_1_CFG2_COUNTS_PER_VOLT;
 1967              		.loc 1 1371 0
 1968 0196 7B4B     		ldr	r3, .L102+112
 1969 0198 4FF47A42 		mov	r2, #64000
 1970 019c 1A60     		str	r2, [r3]
1372:.\Generated_Source\PSoC5/ADC_DelSig_1.c **** 
1373:.\Generated_Source\PSoC5/ADC_DelSig_1.c ****             ADC_DelSig_1_Ext_CP_Clk_SetDividerRegister(ADC_DelSig_1_CFG2_CP_CLK_DIVIDER, 1u);
 1971              		.loc 1 1373 0
 1972 019e 0820     		movs	r0, #8
 1973 01a0 0121     		movs	r1, #1
 1974 01a2 FFF7FEFF 		bl	ADC_DelSig_1_Ext_CP_Clk_SetDividerRegister
1374:.\Generated_Source\PSoC5/ADC_DelSig_1.c **** 
1375:.\Generated_Source\PSoC5/ADC_DelSig_1.c ****             /* This is only valid if there is an internal clock */
1376:.\Generated_Source\PSoC5/ADC_DelSig_1.c ****             #if(ADC_DelSig_1_DEFAULT_INTERNAL_CLK)
1377:.\Generated_Source\PSoC5/ADC_DelSig_1.c ****                 ADC_DelSig_1_theACLK_SetDividerRegister(ADC_DelSig_1_CFG2_ADC_CLK_DIVIDER, 1u);
 1975              		.loc 1 1377 0
 1976 01a6 2520     		movs	r0, #37
 1977 01a8 0121     		movs	r1, #1
 1978 01aa FFF7FEFF 		bl	ADC_DelSig_1_theACLK_SetDividerRegister
1378:.\Generated_Source\PSoC5/ADC_DelSig_1.c ****             #endif /* ADC_DelSig_1_DEFAULT_INTERNAL_CLK */
1379:.\Generated_Source\PSoC5/ADC_DelSig_1.c **** 
1380:.\Generated_Source\PSoC5/ADC_DelSig_1.c ****             #if(ADC_DelSig_1_IRQ_REMOVE == 0u)
1381:.\Generated_Source\PSoC5/ADC_DelSig_1.c ****                 /* Set interrupt vector */
1382:.\Generated_Source\PSoC5/ADC_DelSig_1.c ****                 (void)CyIntSetVector(ADC_DelSig_1_INTC_NUMBER, &ADC_DelSig_1_ISR2);
ARM GAS  C:\Users\Charlie\AppData\Local\Temp\ccHLrwpJ.s 			page 60


 1979              		.loc 1 1382 0
 1980 01ae 1D20     		movs	r0, #29
 1981 01b0 7649     		ldr	r1, .L102+120
 1982 01b2 FFF7FEFF 		bl	CyIntSetVector
 1983              	.L99:
1383:.\Generated_Source\PSoC5/ADC_DelSig_1.c ****             #endif   /* End ADC_DelSig_1_IRQ_REMOVE */
1384:.\Generated_Source\PSoC5/ADC_DelSig_1.c ****         }
1385:.\Generated_Source\PSoC5/ADC_DelSig_1.c ****     #endif /* ADC_DelSig_1_DEFAULT_NUM_CONFIGS > 1 */
1386:.\Generated_Source\PSoC5/ADC_DelSig_1.c **** 
1387:.\Generated_Source\PSoC5/ADC_DelSig_1.c ****     #if(ADC_DelSig_1_DEFAULT_NUM_CONFIGS > 2)
1388:.\Generated_Source\PSoC5/ADC_DelSig_1.c ****         if(config == 3u)
 1984              		.loc 1 1388 0
 1985 01b6 FB79     		ldrb	r3, [r7, #7]	@ zero_extendqisi2
 1986 01b8 032B     		cmp	r3, #3
 1987 01ba 66D1     		bne	.L100
1389:.\Generated_Source\PSoC5/ADC_DelSig_1.c ****         {
1390:.\Generated_Source\PSoC5/ADC_DelSig_1.c ****             /* Third Config */
1391:.\Generated_Source\PSoC5/ADC_DelSig_1.c ****             ADC_DelSig_1_DEC_CR_REG      = ADC_DelSig_1_CFG3_DEC_CR;
 1988              		.loc 1 1391 0
 1989 01bc 564B     		ldr	r3, .L102+4
 1990 01be 3822     		movs	r2, #56
 1991 01c0 1A70     		strb	r2, [r3]
1392:.\Generated_Source\PSoC5/ADC_DelSig_1.c ****             ADC_DelSig_1_DEC_SHIFT1_REG  = ADC_DelSig_1_CFG3_DEC_SHIFT1;
 1992              		.loc 1 1392 0
 1993 01c2 564B     		ldr	r3, .L102+8
 1994 01c4 0422     		movs	r2, #4
 1995 01c6 1A70     		strb	r2, [r3]
1393:.\Generated_Source\PSoC5/ADC_DelSig_1.c ****             ADC_DelSig_1_DEC_SHIFT2_REG  = ADC_DelSig_1_CFG3_DEC_SHIFT2;
 1996              		.loc 1 1393 0
 1997 01c8 554B     		ldr	r3, .L102+12
 1998 01ca 0622     		movs	r2, #6
 1999 01cc 1A70     		strb	r2, [r3]
1394:.\Generated_Source\PSoC5/ADC_DelSig_1.c ****             ADC_DelSig_1_DEC_DR2_REG     = ADC_DelSig_1_CFG3_DEC_DR2;
 2000              		.loc 1 1394 0
 2001 01ce 554B     		ldr	r3, .L102+16
 2002 01d0 0022     		movs	r2, #0
 2003 01d2 1A70     		strb	r2, [r3]
1395:.\Generated_Source\PSoC5/ADC_DelSig_1.c ****             ADC_DelSig_1_DEC_DR2H_REG    = ADC_DelSig_1_CFG3_DEC_DR2H;
 2004              		.loc 1 1395 0
 2005 01d4 544B     		ldr	r3, .L102+20
 2006 01d6 0022     		movs	r2, #0
 2007 01d8 1A70     		strb	r2, [r3]
1396:.\Generated_Source\PSoC5/ADC_DelSig_1.c ****             ADC_DelSig_1_DEC_DR1_REG     = ADC_DelSig_1_CFG3_DEC_DR1;
 2008              		.loc 1 1396 0
 2009 01da 544B     		ldr	r3, .L102+24
 2010 01dc 3F22     		movs	r2, #63
 2011 01de 1A70     		strb	r2, [r3]
1397:.\Generated_Source\PSoC5/ADC_DelSig_1.c ****             ADC_DelSig_1_DEC_OCOR_REG    = ADC_DelSig_1_CFG3_DEC_OCOR;
 2012              		.loc 1 1397 0
 2013 01e0 534B     		ldr	r3, .L102+28
 2014 01e2 0022     		movs	r2, #0
 2015 01e4 1A70     		strb	r2, [r3]
1398:.\Generated_Source\PSoC5/ADC_DelSig_1.c ****             ADC_DelSig_1_DEC_OCORM_REG   = ADC_DelSig_1_CFG3_DEC_OCORM;
 2016              		.loc 1 1398 0
 2017 01e6 534B     		ldr	r3, .L102+32
 2018 01e8 0022     		movs	r2, #0
 2019 01ea 1A70     		strb	r2, [r3]
ARM GAS  C:\Users\Charlie\AppData\Local\Temp\ccHLrwpJ.s 			page 61


1399:.\Generated_Source\PSoC5/ADC_DelSig_1.c ****             ADC_DelSig_1_DEC_OCORH_REG   = ADC_DelSig_1_CFG3_DEC_OCORH;
 2020              		.loc 1 1399 0
 2021 01ec 524B     		ldr	r3, .L102+36
 2022 01ee 0022     		movs	r2, #0
 2023 01f0 1A70     		strb	r2, [r3]
1400:.\Generated_Source\PSoC5/ADC_DelSig_1.c ****             ADC_DelSig_1_DEC_COHER_REG   = ADC_DelSig_1_CFG3_DEC_COHER;
 2024              		.loc 1 1400 0
 2025 01f2 524B     		ldr	r3, .L102+40
 2026 01f4 0122     		movs	r2, #1
 2027 01f6 1A70     		strb	r2, [r3]
1401:.\Generated_Source\PSoC5/ADC_DelSig_1.c **** 
1402:.\Generated_Source\PSoC5/ADC_DelSig_1.c ****             ADC_DelSig_1_DSM_CR4_REG     = ADC_DelSig_1_CFG3_DSM_CR4;
 2028              		.loc 1 1402 0
 2029 01f8 514B     		ldr	r3, .L102+44
 2030 01fa 5022     		movs	r2, #80
 2031 01fc 1A70     		strb	r2, [r3]
1403:.\Generated_Source\PSoC5/ADC_DelSig_1.c ****             ADC_DelSig_1_DSM_CR5_REG     = ADC_DelSig_1_CFG3_DSM_CR5;
 2032              		.loc 1 1403 0
 2033 01fe 514B     		ldr	r3, .L102+48
 2034 0200 2722     		movs	r2, #39
 2035 0202 1A70     		strb	r2, [r3]
1404:.\Generated_Source\PSoC5/ADC_DelSig_1.c ****             ADC_DelSig_1_DSM_CR6_REG     = ADC_DelSig_1_CFG3_DSM_CR6;
 2036              		.loc 1 1404 0
 2037 0204 504B     		ldr	r3, .L102+52
 2038 0206 2C22     		movs	r2, #44
 2039 0208 1A70     		strb	r2, [r3]
1405:.\Generated_Source\PSoC5/ADC_DelSig_1.c ****             ADC_DelSig_1_DSM_CR7_REG     = ADC_DelSig_1_CFG3_DSM_CR7;
 2040              		.loc 1 1405 0
 2041 020a 504B     		ldr	r3, .L102+56
 2042 020c 0022     		movs	r2, #0
 2043 020e 1A70     		strb	r2, [r3]
1406:.\Generated_Source\PSoC5/ADC_DelSig_1.c ****             ADC_DelSig_1_DSM_CR10_REG    = ADC_DelSig_1_CFG3_DSM_CR10;
 2044              		.loc 1 1406 0
 2045 0210 4F4B     		ldr	r3, .L102+60
 2046 0212 5522     		movs	r2, #85
 2047 0214 1A70     		strb	r2, [r3]
1407:.\Generated_Source\PSoC5/ADC_DelSig_1.c ****             ADC_DelSig_1_DSM_CR11_REG    = ADC_DelSig_1_CFG3_DSM_CR11;
 2048              		.loc 1 1407 0
 2049 0216 4F4B     		ldr	r3, .L102+64
 2050 0218 5A22     		movs	r2, #90
 2051 021a 1A70     		strb	r2, [r3]
1408:.\Generated_Source\PSoC5/ADC_DelSig_1.c ****             ADC_DelSig_1_DSM_CR12_REG    = ADC_DelSig_1_CFG3_DSM_CR12;
 2052              		.loc 1 1408 0
 2053 021c 4E4B     		ldr	r3, .L102+68
 2054 021e 0522     		movs	r2, #5
 2055 0220 1A70     		strb	r2, [r3]
1409:.\Generated_Source\PSoC5/ADC_DelSig_1.c ****             ADC_DelSig_1_DSM_CR14_REG    = ADC_DelSig_1_CFG3_DSM_CR14;
 2056              		.loc 1 1409 0
 2057 0222 4E4B     		ldr	r3, .L102+72
 2058 0224 0122     		movs	r2, #1
 2059 0226 1A70     		strb	r2, [r3]
1410:.\Generated_Source\PSoC5/ADC_DelSig_1.c ****             ADC_DelSig_1_DSM_CR15_REG    = ADC_DelSig_1_CFG3_DSM_CR15;
 2060              		.loc 1 1410 0
 2061 0228 4D4B     		ldr	r3, .L102+76
 2062 022a 1122     		movs	r2, #17
 2063 022c 1A70     		strb	r2, [r3]
1411:.\Generated_Source\PSoC5/ADC_DelSig_1.c ****             ADC_DelSig_1_DSM_CR16_REG    = ADC_DelSig_1_CFG3_DSM_CR16;
ARM GAS  C:\Users\Charlie\AppData\Local\Temp\ccHLrwpJ.s 			page 62


 2064              		.loc 1 1411 0
 2065 022e 4D4B     		ldr	r3, .L102+80
 2066 0230 1922     		movs	r2, #25
 2067 0232 1A70     		strb	r2, [r3]
1412:.\Generated_Source\PSoC5/ADC_DelSig_1.c ****             ADC_DelSig_1_DSM_CR17_REG    = ADC_DelSig_1_CFG3_DSM_CR17;
 2068              		.loc 1 1412 0
 2069 0234 4C4B     		ldr	r3, .L102+84
 2070 0236 9722     		movs	r2, #151
 2071 0238 1A70     		strb	r2, [r3]
1413:.\Generated_Source\PSoC5/ADC_DelSig_1.c ****             /* Set DSM_REF0_REG by disabling and enabling the PRESS circuit */
1414:.\Generated_Source\PSoC5/ADC_DelSig_1.c ****             ADC_DelSig_1_SetDSMRef0Reg(ADC_DelSig_1_CFG3_DSM_REF0);
 2072              		.loc 1 1414 0
 2073 023a 4420     		movs	r0, #68
 2074 023c FFF7FEFF 		bl	ADC_DelSig_1_SetDSMRef0Reg
1415:.\Generated_Source\PSoC5/ADC_DelSig_1.c ****             ADC_DelSig_1_DSM_REF2_REG    = ADC_DelSig_1_CFG3_DSM_REF2;
 2075              		.loc 1 1415 0
 2076 0240 4A4B     		ldr	r3, .L102+88
 2077 0242 5822     		movs	r2, #88
 2078 0244 1A70     		strb	r2, [r3]
1416:.\Generated_Source\PSoC5/ADC_DelSig_1.c ****             ADC_DelSig_1_DSM_REF3_REG    = ADC_DelSig_1_CFG3_DSM_REF3;
 2079              		.loc 1 1416 0
 2080 0246 4A4B     		ldr	r3, .L102+92
 2081 0248 0022     		movs	r2, #0
 2082 024a 1A70     		strb	r2, [r3]
1417:.\Generated_Source\PSoC5/ADC_DelSig_1.c **** 
1418:.\Generated_Source\PSoC5/ADC_DelSig_1.c ****             ADC_DelSig_1_DSM_BUF0_REG    = ADC_DelSig_1_CFG3_DSM_BUF0;
 2083              		.loc 1 1418 0
 2084 024c 494B     		ldr	r3, .L102+96
 2085 024e 0522     		movs	r2, #5
 2086 0250 1A70     		strb	r2, [r3]
1419:.\Generated_Source\PSoC5/ADC_DelSig_1.c ****             ADC_DelSig_1_DSM_BUF1_REG    = ADC_DelSig_1_CFG3_DSM_BUF1;
 2087              		.loc 1 1419 0
 2088 0252 494B     		ldr	r3, .L102+100
 2089 0254 0222     		movs	r2, #2
 2090 0256 1A70     		strb	r2, [r3]
1420:.\Generated_Source\PSoC5/ADC_DelSig_1.c ****             ADC_DelSig_1_DSM_BUF2_REG    = ADC_DelSig_1_CFG3_DSM_BUF2;
 2091              		.loc 1 1420 0
 2092 0258 484B     		ldr	r3, .L102+104
 2093 025a 0022     		movs	r2, #0
 2094 025c 1A70     		strb	r2, [r3]
1421:.\Generated_Source\PSoC5/ADC_DelSig_1.c ****             ADC_DelSig_1_DSM_BUF3_REG    = ADC_DelSig_1_CFG3_DSM_BUF3;
 2095              		.loc 1 1421 0
 2096 025e 484B     		ldr	r3, .L102+108
 2097 0260 0022     		movs	r2, #0
 2098 0262 1A70     		strb	r2, [r3]
1422:.\Generated_Source\PSoC5/ADC_DelSig_1.c **** 
1423:.\Generated_Source\PSoC5/ADC_DelSig_1.c ****             /* To select either Vssa or Vref to -ve input of DSM depending on
1424:.\Generated_Source\PSoC5/ADC_DelSig_1.c ****             *  the input range selected.
1425:.\Generated_Source\PSoC5/ADC_DelSig_1.c ****             */
1426:.\Generated_Source\PSoC5/ADC_DelSig_1.c ****             #if(ADC_DelSig_1_DEFAULT_INPUT_MODE)
1427:.\Generated_Source\PSoC5/ADC_DelSig_1.c ****                 #if (ADC_DelSig_1_CFG3_INPUT_RANGE == ADC_DelSig_1_IR_VSSA_TO_2VREF)
1428:.\Generated_Source\PSoC5/ADC_DelSig_1.c ****                     ADC_DelSig_1_AMux_Select(1u);
1429:.\Generated_Source\PSoC5/ADC_DelSig_1.c ****                 #else
1430:.\Generated_Source\PSoC5/ADC_DelSig_1.c ****                     ADC_DelSig_1_AMux_Select(0u);
 2099              		.loc 1 1430 0
 2100 0264 0020     		movs	r0, #0
 2101 0266 FFF7FEFF 		bl	ADC_DelSig_1_AMux_Select
ARM GAS  C:\Users\Charlie\AppData\Local\Temp\ccHLrwpJ.s 			page 63


1431:.\Generated_Source\PSoC5/ADC_DelSig_1.c ****                 #endif /* ADC_DelSig_1_IR_VSSA_TO_2VREF) */
1432:.\Generated_Source\PSoC5/ADC_DelSig_1.c ****             #endif /* ADC_DelSig_1_DEFAULT_INPUT_MODE */
1433:.\Generated_Source\PSoC5/ADC_DelSig_1.c **** 
1434:.\Generated_Source\PSoC5/ADC_DelSig_1.c ****             /* Set the Conversion stop if resolution is above 16 bit and
1435:.\Generated_Source\PSoC5/ADC_DelSig_1.c ****                conversion  mode is Single sample */
1436:.\Generated_Source\PSoC5/ADC_DelSig_1.c ****             #if(ADC_DelSig_1_CFG3_RESOLUTION > 16 && \
1437:.\Generated_Source\PSoC5/ADC_DelSig_1.c ****                 ADC_DelSig_1_CFG3_CONV_MODE == ADC_DelSig_1_MODE_SINGLE_SAMPLE)
1438:.\Generated_Source\PSoC5/ADC_DelSig_1.c ****                 ADC_DelSig_1_stopConversion = 1u;
1439:.\Generated_Source\PSoC5/ADC_DelSig_1.c ****             #endif /* Single sample with resolution above 16 bits */
1440:.\Generated_Source\PSoC5/ADC_DelSig_1.c **** 
1441:.\Generated_Source\PSoC5/ADC_DelSig_1.c ****             ADC_DelSig_1_CountsPerVolt = (int32)ADC_DelSig_1_CFG3_COUNTS_PER_VOLT;
 2102              		.loc 1 1441 0
 2103 026a 464B     		ldr	r3, .L102+112
 2104 026c 4FF47A42 		mov	r2, #64000
 2105 0270 1A60     		str	r2, [r3]
1442:.\Generated_Source\PSoC5/ADC_DelSig_1.c **** 
1443:.\Generated_Source\PSoC5/ADC_DelSig_1.c ****             ADC_DelSig_1_Ext_CP_Clk_SetDividerRegister(ADC_DelSig_1_CFG3_CP_CLK_DIVIDER, 1u);
 2106              		.loc 1 1443 0
 2107 0272 0820     		movs	r0, #8
 2108 0274 0121     		movs	r1, #1
 2109 0276 FFF7FEFF 		bl	ADC_DelSig_1_Ext_CP_Clk_SetDividerRegister
1444:.\Generated_Source\PSoC5/ADC_DelSig_1.c **** 
1445:.\Generated_Source\PSoC5/ADC_DelSig_1.c ****             /* This is only valid if there is an internal clock */
1446:.\Generated_Source\PSoC5/ADC_DelSig_1.c ****             #if(ADC_DelSig_1_DEFAULT_INTERNAL_CLK)
1447:.\Generated_Source\PSoC5/ADC_DelSig_1.c ****                 ADC_DelSig_1_theACLK_SetDividerRegister(ADC_DelSig_1_CFG3_ADC_CLK_DIVIDER, 1u);
 2110              		.loc 1 1447 0
 2111 027a 2520     		movs	r0, #37
 2112 027c 0121     		movs	r1, #1
 2113 027e FFF7FEFF 		bl	ADC_DelSig_1_theACLK_SetDividerRegister
1448:.\Generated_Source\PSoC5/ADC_DelSig_1.c ****             #endif /* ADC_DelSig_1_DEFAULT_INTERNAL_CLK */
1449:.\Generated_Source\PSoC5/ADC_DelSig_1.c **** 
1450:.\Generated_Source\PSoC5/ADC_DelSig_1.c ****             #if(ADC_DelSig_1_IRQ_REMOVE == 0u)
1451:.\Generated_Source\PSoC5/ADC_DelSig_1.c ****                 /* Set interrupt vector */
1452:.\Generated_Source\PSoC5/ADC_DelSig_1.c ****                 (void)CyIntSetVector(ADC_DelSig_1_INTC_NUMBER, &ADC_DelSig_1_ISR3);
 2114              		.loc 1 1452 0
 2115 0282 1D20     		movs	r0, #29
 2116 0284 4249     		ldr	r1, .L102+124
 2117 0286 FFF7FEFF 		bl	CyIntSetVector
 2118              	.L100:
1453:.\Generated_Source\PSoC5/ADC_DelSig_1.c ****             #endif   /* End ADC_DelSig_1_IRQ_REMOVE */
1454:.\Generated_Source\PSoC5/ADC_DelSig_1.c ****         }
1455:.\Generated_Source\PSoC5/ADC_DelSig_1.c ****     #endif /* ADC_DelSig_1_DEFAULT_NUM_CONFIGS > 2 */
1456:.\Generated_Source\PSoC5/ADC_DelSig_1.c **** 
1457:.\Generated_Source\PSoC5/ADC_DelSig_1.c ****     #if(ADC_DelSig_1_DEFAULT_NUM_CONFIGS > 3)
1458:.\Generated_Source\PSoC5/ADC_DelSig_1.c ****         if (config == 4u)
 2119              		.loc 1 1458 0
 2120 028a FB79     		ldrb	r3, [r7, #7]	@ zero_extendqisi2
 2121 028c 042B     		cmp	r3, #4
 2122 028e 40F0A880 		bne	.L97
1459:.\Generated_Source\PSoC5/ADC_DelSig_1.c ****         {
1460:.\Generated_Source\PSoC5/ADC_DelSig_1.c ****             /* Fourth Config */
1461:.\Generated_Source\PSoC5/ADC_DelSig_1.c ****             ADC_DelSig_1_DEC_CR_REG      = ADC_DelSig_1_CFG4_DEC_CR;
 2123              		.loc 1 1461 0
 2124 0292 214B     		ldr	r3, .L102+4
 2125 0294 3822     		movs	r2, #56
 2126 0296 1A70     		strb	r2, [r3]
1462:.\Generated_Source\PSoC5/ADC_DelSig_1.c ****             ADC_DelSig_1_DEC_SHIFT1_REG  = ADC_DelSig_1_CFG4_DEC_SHIFT1;
ARM GAS  C:\Users\Charlie\AppData\Local\Temp\ccHLrwpJ.s 			page 64


 2127              		.loc 1 1462 0
 2128 0298 204B     		ldr	r3, .L102+8
 2129 029a 0422     		movs	r2, #4
 2130 029c 1A70     		strb	r2, [r3]
1463:.\Generated_Source\PSoC5/ADC_DelSig_1.c ****             ADC_DelSig_1_DEC_SHIFT2_REG  = ADC_DelSig_1_CFG4_DEC_SHIFT2;
 2131              		.loc 1 1463 0
 2132 029e 204B     		ldr	r3, .L102+12
 2133 02a0 0622     		movs	r2, #6
 2134 02a2 1A70     		strb	r2, [r3]
1464:.\Generated_Source\PSoC5/ADC_DelSig_1.c ****             ADC_DelSig_1_DEC_DR2_REG     = ADC_DelSig_1_CFG4_DEC_DR2;
 2135              		.loc 1 1464 0
 2136 02a4 1F4B     		ldr	r3, .L102+16
 2137 02a6 0022     		movs	r2, #0
 2138 02a8 1A70     		strb	r2, [r3]
1465:.\Generated_Source\PSoC5/ADC_DelSig_1.c ****             ADC_DelSig_1_DEC_DR2H_REG    = ADC_DelSig_1_CFG4_DEC_DR2H;
 2139              		.loc 1 1465 0
 2140 02aa 1F4B     		ldr	r3, .L102+20
 2141 02ac 0022     		movs	r2, #0
 2142 02ae 1A70     		strb	r2, [r3]
1466:.\Generated_Source\PSoC5/ADC_DelSig_1.c ****             ADC_DelSig_1_DEC_DR1_REG     = ADC_DelSig_1_CFG4_DEC_DR1;
 2143              		.loc 1 1466 0
 2144 02b0 1E4B     		ldr	r3, .L102+24
 2145 02b2 3F22     		movs	r2, #63
 2146 02b4 1A70     		strb	r2, [r3]
1467:.\Generated_Source\PSoC5/ADC_DelSig_1.c ****             ADC_DelSig_1_DEC_OCOR_REG    = ADC_DelSig_1_CFG4_DEC_OCOR;
 2147              		.loc 1 1467 0
 2148 02b6 1E4B     		ldr	r3, .L102+28
 2149 02b8 0022     		movs	r2, #0
 2150 02ba 1A70     		strb	r2, [r3]
1468:.\Generated_Source\PSoC5/ADC_DelSig_1.c ****             ADC_DelSig_1_DEC_OCORM_REG   = ADC_DelSig_1_CFG4_DEC_OCORM;
 2151              		.loc 1 1468 0
 2152 02bc 1D4B     		ldr	r3, .L102+32
 2153 02be 0022     		movs	r2, #0
 2154 02c0 1A70     		strb	r2, [r3]
1469:.\Generated_Source\PSoC5/ADC_DelSig_1.c ****             ADC_DelSig_1_DEC_OCORH_REG   = ADC_DelSig_1_CFG4_DEC_OCORH;
 2155              		.loc 1 1469 0
 2156 02c2 1D4B     		ldr	r3, .L102+36
 2157 02c4 0022     		movs	r2, #0
 2158 02c6 1A70     		strb	r2, [r3]
1470:.\Generated_Source\PSoC5/ADC_DelSig_1.c ****             ADC_DelSig_1_DEC_COHER_REG   = ADC_DelSig_1_CFG4_DEC_COHER;
 2159              		.loc 1 1470 0
 2160 02c8 1C4B     		ldr	r3, .L102+40
 2161 02ca 0122     		movs	r2, #1
 2162 02cc 1A70     		strb	r2, [r3]
1471:.\Generated_Source\PSoC5/ADC_DelSig_1.c **** 
1472:.\Generated_Source\PSoC5/ADC_DelSig_1.c ****             ADC_DelSig_1_DSM_CR4_REG     = ADC_DelSig_1_CFG4_DSM_CR4;
 2163              		.loc 1 1472 0
 2164 02ce 1C4B     		ldr	r3, .L102+44
 2165 02d0 5022     		movs	r2, #80
 2166 02d2 1A70     		strb	r2, [r3]
1473:.\Generated_Source\PSoC5/ADC_DelSig_1.c ****             ADC_DelSig_1_DSM_CR5_REG     = ADC_DelSig_1_CFG4_DSM_CR5;
 2167              		.loc 1 1473 0
 2168 02d4 1B4B     		ldr	r3, .L102+48
 2169 02d6 2722     		movs	r2, #39
 2170 02d8 1A70     		strb	r2, [r3]
1474:.\Generated_Source\PSoC5/ADC_DelSig_1.c ****             ADC_DelSig_1_DSM_CR6_REG     = ADC_DelSig_1_CFG4_DSM_CR6;
 2171              		.loc 1 1474 0
ARM GAS  C:\Users\Charlie\AppData\Local\Temp\ccHLrwpJ.s 			page 65


 2172 02da 1B4B     		ldr	r3, .L102+52
 2173 02dc 2C22     		movs	r2, #44
 2174 02de 1A70     		strb	r2, [r3]
1475:.\Generated_Source\PSoC5/ADC_DelSig_1.c ****             ADC_DelSig_1_DSM_CR7_REG     = ADC_DelSig_1_CFG4_DSM_CR7;
 2175              		.loc 1 1475 0
 2176 02e0 1A4B     		ldr	r3, .L102+56
 2177 02e2 0022     		movs	r2, #0
 2178 02e4 1A70     		strb	r2, [r3]
1476:.\Generated_Source\PSoC5/ADC_DelSig_1.c ****             ADC_DelSig_1_DSM_CR10_REG    = ADC_DelSig_1_CFG4_DSM_CR10;
 2179              		.loc 1 1476 0
 2180 02e6 1A4B     		ldr	r3, .L102+60
 2181 02e8 5522     		movs	r2, #85
 2182 02ea 1A70     		strb	r2, [r3]
1477:.\Generated_Source\PSoC5/ADC_DelSig_1.c ****             ADC_DelSig_1_DSM_CR11_REG    = ADC_DelSig_1_CFG4_DSM_CR11;
 2183              		.loc 1 1477 0
 2184 02ec 194B     		ldr	r3, .L102+64
 2185 02ee 5A22     		movs	r2, #90
 2186 02f0 1A70     		strb	r2, [r3]
1478:.\Generated_Source\PSoC5/ADC_DelSig_1.c ****             ADC_DelSig_1_DSM_CR12_REG    = ADC_DelSig_1_CFG4_DSM_CR12;
 2187              		.loc 1 1478 0
 2188 02f2 194B     		ldr	r3, .L102+68
 2189 02f4 0522     		movs	r2, #5
 2190 02f6 1A70     		strb	r2, [r3]
1479:.\Generated_Source\PSoC5/ADC_DelSig_1.c ****             ADC_DelSig_1_DSM_CR14_REG    = ADC_DelSig_1_CFG4_DSM_CR14;
 2191              		.loc 1 1479 0
 2192 02f8 184B     		ldr	r3, .L102+72
 2193 02fa 0122     		movs	r2, #1
 2194 02fc 1A70     		strb	r2, [r3]
1480:.\Generated_Source\PSoC5/ADC_DelSig_1.c ****             ADC_DelSig_1_DSM_CR15_REG    = ADC_DelSig_1_CFG4_DSM_CR15;
 2195              		.loc 1 1480 0
 2196 02fe 184B     		ldr	r3, .L102+76
 2197 0300 1122     		movs	r2, #17
 2198 0302 1A70     		strb	r2, [r3]
1481:.\Generated_Source\PSoC5/ADC_DelSig_1.c ****             ADC_DelSig_1_DSM_CR16_REG    = ADC_DelSig_1_CFG4_DSM_CR16;
 2199              		.loc 1 1481 0
 2200 0304 174B     		ldr	r3, .L102+80
 2201 0306 1922     		movs	r2, #25
 2202 0308 1A70     		strb	r2, [r3]
1482:.\Generated_Source\PSoC5/ADC_DelSig_1.c ****             ADC_DelSig_1_DSM_CR17_REG    = ADC_DelSig_1_CFG4_DSM_CR17;
 2203              		.loc 1 1482 0
 2204 030a 174B     		ldr	r3, .L102+84
 2205 030c 9722     		movs	r2, #151
 2206 030e 1A70     		strb	r2, [r3]
1483:.\Generated_Source\PSoC5/ADC_DelSig_1.c ****             /* Set DSM_REF0_REG by disabling and enabling the PRESS circuit */
1484:.\Generated_Source\PSoC5/ADC_DelSig_1.c ****             ADC_DelSig_1_SetDSMRef0Reg(ADC_DelSig_1_CFG4_DSM_REF0);
 2207              		.loc 1 1484 0
 2208 0310 4420     		movs	r0, #68
 2209 0312 3FE0     		b	.L103
 2210              	.L104:
 2211              		.align	2
 2212              	.L102:
 2213 0314 00000000 		.word	ADC_DelSig_1_stopConversion
 2214 0318 004E0040 		.word	1073761792
 2215 031c 024E0040 		.word	1073761794
 2216 0320 034E0040 		.word	1073761795
 2217 0324 044E0040 		.word	1073761796
 2218 0328 054E0040 		.word	1073761797
ARM GAS  C:\Users\Charlie\AppData\Local\Temp\ccHLrwpJ.s 			page 66


 2219 032c 064E0040 		.word	1073761798
 2220 0330 084E0040 		.word	1073761800
 2221 0334 094E0040 		.word	1073761801
 2222 0338 0A4E0040 		.word	1073761802
 2223 033c 144E0040 		.word	1073761812
 2224 0340 84580040 		.word	1073764484
 2225 0344 85580040 		.word	1073764485
 2226 0348 86580040 		.word	1073764486
 2227 034c 87580040 		.word	1073764487
 2228 0350 8A580040 		.word	1073764490
 2229 0354 8B580040 		.word	1073764491
 2230 0358 8C580040 		.word	1073764492
 2231 035c 8E580040 		.word	1073764494
 2232 0360 8F580040 		.word	1073764495
 2233 0364 90580040 		.word	1073764496
 2234 0368 91580040 		.word	1073764497
 2235 036c 94580040 		.word	1073764500
 2236 0370 95580040 		.word	1073764501
 2237 0374 9A580040 		.word	1073764506
 2238 0378 9B580040 		.word	1073764507
 2239 037c 9C580040 		.word	1073764508
 2240 0380 9D580040 		.word	1073764509
 2241 0384 00000000 		.word	ADC_DelSig_1_CountsPerVolt
 2242 0388 00000000 		.word	ADC_DelSig_1_ISR1
 2243 038c 00000000 		.word	ADC_DelSig_1_ISR2
 2244 0390 00000000 		.word	ADC_DelSig_1_ISR3
 2245              	.L103:
 2246 0394 FFF7FEFF 		bl	ADC_DelSig_1_SetDSMRef0Reg
1485:.\Generated_Source\PSoC5/ADC_DelSig_1.c ****             ADC_DelSig_1_DSM_REF2_REG    = ADC_DelSig_1_CFG4_DSM_REF2;
 2247              		.loc 1 1485 0
 2248 0398 134B     		ldr	r3, .L105
 2249 039a 5822     		movs	r2, #88
 2250 039c 1A70     		strb	r2, [r3]
1486:.\Generated_Source\PSoC5/ADC_DelSig_1.c ****             ADC_DelSig_1_DSM_REF3_REG    = ADC_DelSig_1_CFG4_DSM_REF3;
 2251              		.loc 1 1486 0
 2252 039e 134B     		ldr	r3, .L105+4
 2253 03a0 0022     		movs	r2, #0
 2254 03a2 1A70     		strb	r2, [r3]
1487:.\Generated_Source\PSoC5/ADC_DelSig_1.c **** 
1488:.\Generated_Source\PSoC5/ADC_DelSig_1.c ****             ADC_DelSig_1_DSM_BUF0_REG    = ADC_DelSig_1_CFG4_DSM_BUF0;
 2255              		.loc 1 1488 0
 2256 03a4 124B     		ldr	r3, .L105+8
 2257 03a6 0522     		movs	r2, #5
 2258 03a8 1A70     		strb	r2, [r3]
1489:.\Generated_Source\PSoC5/ADC_DelSig_1.c ****             ADC_DelSig_1_DSM_BUF1_REG    = ADC_DelSig_1_CFG4_DSM_BUF1;
 2259              		.loc 1 1489 0
 2260 03aa 124B     		ldr	r3, .L105+12
 2261 03ac 0222     		movs	r2, #2
 2262 03ae 1A70     		strb	r2, [r3]
1490:.\Generated_Source\PSoC5/ADC_DelSig_1.c ****             ADC_DelSig_1_DSM_BUF2_REG    = ADC_DelSig_1_CFG4_DSM_BUF2;
 2263              		.loc 1 1490 0
 2264 03b0 114B     		ldr	r3, .L105+16
 2265 03b2 0022     		movs	r2, #0
 2266 03b4 1A70     		strb	r2, [r3]
1491:.\Generated_Source\PSoC5/ADC_DelSig_1.c ****             ADC_DelSig_1_DSM_BUF3_REG    = ADC_DelSig_1_CFG4_DSM_BUF3;
 2267              		.loc 1 1491 0
 2268 03b6 114B     		ldr	r3, .L105+20
ARM GAS  C:\Users\Charlie\AppData\Local\Temp\ccHLrwpJ.s 			page 67


 2269 03b8 0022     		movs	r2, #0
 2270 03ba 1A70     		strb	r2, [r3]
1492:.\Generated_Source\PSoC5/ADC_DelSig_1.c **** 
1493:.\Generated_Source\PSoC5/ADC_DelSig_1.c ****             /* To select either Vssa or Vref to -ve input of DSM depending on
1494:.\Generated_Source\PSoC5/ADC_DelSig_1.c ****             *  the input range selected.
1495:.\Generated_Source\PSoC5/ADC_DelSig_1.c ****             */
1496:.\Generated_Source\PSoC5/ADC_DelSig_1.c ****             #if(ADC_DelSig_1_DEFAULT_INPUT_MODE)
1497:.\Generated_Source\PSoC5/ADC_DelSig_1.c ****                 #if (ADC_DelSig_1_CFG4_INPUT_RANGE == ADC_DelSig_1_IR_VSSA_TO_2VREF)
1498:.\Generated_Source\PSoC5/ADC_DelSig_1.c ****                     ADC_DelSig_1_AMux_Select(1u);
1499:.\Generated_Source\PSoC5/ADC_DelSig_1.c ****                 #else
1500:.\Generated_Source\PSoC5/ADC_DelSig_1.c ****                     ADC_DelSig_1_AMux_Select(0u);
 2271              		.loc 1 1500 0
 2272 03bc 0020     		movs	r0, #0
 2273 03be FFF7FEFF 		bl	ADC_DelSig_1_AMux_Select
1501:.\Generated_Source\PSoC5/ADC_DelSig_1.c ****                 #endif /* ADC_DelSig_1_IR_VSSA_TO_2VREF) */
1502:.\Generated_Source\PSoC5/ADC_DelSig_1.c ****             #endif /* ADC_DelSig_1_DEFAULT_INPUT_MODE */
1503:.\Generated_Source\PSoC5/ADC_DelSig_1.c **** 
1504:.\Generated_Source\PSoC5/ADC_DelSig_1.c ****             /* Set the Conversion stop if resolution is above 16 bit and
1505:.\Generated_Source\PSoC5/ADC_DelSig_1.c ****                conversion mode is Single sample */
1506:.\Generated_Source\PSoC5/ADC_DelSig_1.c ****             #if(ADC_DelSig_1_CFG4_RESOLUTION > 16 && \
1507:.\Generated_Source\PSoC5/ADC_DelSig_1.c ****                 ADC_DelSig_1_CFG4_CONV_MODE == ADC_DelSig_1_MODE_SINGLE_SAMPLE)
1508:.\Generated_Source\PSoC5/ADC_DelSig_1.c ****                 ADC_DelSig_1_stopConversion = 1u;
1509:.\Generated_Source\PSoC5/ADC_DelSig_1.c ****             #endif /* Single sample with resolution above 16 bits */
1510:.\Generated_Source\PSoC5/ADC_DelSig_1.c **** 
1511:.\Generated_Source\PSoC5/ADC_DelSig_1.c ****             ADC_DelSig_1_CountsPerVolt = (int32)ADC_DelSig_1_CFG4_COUNTS_PER_VOLT;
 2274              		.loc 1 1511 0
 2275 03c2 0F4B     		ldr	r3, .L105+24
 2276 03c4 4FF47A42 		mov	r2, #64000
 2277 03c8 1A60     		str	r2, [r3]
1512:.\Generated_Source\PSoC5/ADC_DelSig_1.c **** 
1513:.\Generated_Source\PSoC5/ADC_DelSig_1.c ****             ADC_DelSig_1_Ext_CP_Clk_SetDividerRegister(ADC_DelSig_1_CFG4_CP_CLK_DIVIDER, 1u);
 2278              		.loc 1 1513 0
 2279 03ca 0820     		movs	r0, #8
 2280 03cc 0121     		movs	r1, #1
 2281 03ce FFF7FEFF 		bl	ADC_DelSig_1_Ext_CP_Clk_SetDividerRegister
1514:.\Generated_Source\PSoC5/ADC_DelSig_1.c **** 
1515:.\Generated_Source\PSoC5/ADC_DelSig_1.c ****             /* This is only valid if there is an internal clock */
1516:.\Generated_Source\PSoC5/ADC_DelSig_1.c ****             #if(ADC_DelSig_1_DEFAULT_INTERNAL_CLK)
1517:.\Generated_Source\PSoC5/ADC_DelSig_1.c ****                 ADC_DelSig_1_theACLK_SetDividerRegister(ADC_DelSig_1_CFG4_ADC_CLK_DIVIDER, 1u);
 2282              		.loc 1 1517 0
 2283 03d2 2520     		movs	r0, #37
 2284 03d4 0121     		movs	r1, #1
 2285 03d6 FFF7FEFF 		bl	ADC_DelSig_1_theACLK_SetDividerRegister
1518:.\Generated_Source\PSoC5/ADC_DelSig_1.c ****             #endif /* ADC_DelSig_1_DEFAULT_INTERNAL_CLK */
1519:.\Generated_Source\PSoC5/ADC_DelSig_1.c **** 
1520:.\Generated_Source\PSoC5/ADC_DelSig_1.c ****             #if(ADC_DelSig_1_IRQ_REMOVE == 0u)
1521:.\Generated_Source\PSoC5/ADC_DelSig_1.c ****                 /* Set interrupt vector */
1522:.\Generated_Source\PSoC5/ADC_DelSig_1.c ****                 (void)CyIntSetVector(ADC_DelSig_1_INTC_NUMBER, &ADC_DelSig_1_ISR4);
 2286              		.loc 1 1522 0
 2287 03da 1D20     		movs	r0, #29
 2288 03dc 0949     		ldr	r1, .L105+28
 2289 03de FFF7FEFF 		bl	CyIntSetVector
 2290              	.L97:
1523:.\Generated_Source\PSoC5/ADC_DelSig_1.c ****             #endif   /* End ADC_DelSig_1_IRQ_REMOVE */
1524:.\Generated_Source\PSoC5/ADC_DelSig_1.c ****         }
1525:.\Generated_Source\PSoC5/ADC_DelSig_1.c ****     #endif /* ADC_DelSig_1_DEFAULT_NUM_CONFIGS > 3 */
1526:.\Generated_Source\PSoC5/ADC_DelSig_1.c **** }
ARM GAS  C:\Users\Charlie\AppData\Local\Temp\ccHLrwpJ.s 			page 68


 2291              		.loc 1 1526 0
 2292 03e2 0837     		adds	r7, r7, #8
 2293 03e4 BD46     		mov	sp, r7
 2294              		@ sp needed
 2295 03e6 80BD     		pop	{r7, pc}
 2296              	.L106:
 2297              		.align	2
 2298              	.L105:
 2299 03e8 94580040 		.word	1073764500
 2300 03ec 95580040 		.word	1073764501
 2301 03f0 9A580040 		.word	1073764506
 2302 03f4 9B580040 		.word	1073764507
 2303 03f8 9C580040 		.word	1073764508
 2304 03fc 9D580040 		.word	1073764509
 2305 0400 00000000 		.word	ADC_DelSig_1_CountsPerVolt
 2306 0404 00000000 		.word	ADC_DelSig_1_ISR4
 2307              		.cfi_endproc
 2308              	.LFE19:
 2309              		.size	ADC_DelSig_1_InitConfig, .-ADC_DelSig_1_InitConfig
 2310              		.section	.text.ADC_DelSig_1_SelectConfiguration,"ax",%progbits
 2311              		.align	2
 2312              		.global	ADC_DelSig_1_SelectConfiguration
 2313              		.thumb
 2314              		.thumb_func
 2315              		.type	ADC_DelSig_1_SelectConfiguration, %function
 2316              	ADC_DelSig_1_SelectConfiguration:
 2317              	.LFB20:
1527:.\Generated_Source\PSoC5/ADC_DelSig_1.c **** 
1528:.\Generated_Source\PSoC5/ADC_DelSig_1.c **** 
1529:.\Generated_Source\PSoC5/ADC_DelSig_1.c **** /*******************************************************************************
1530:.\Generated_Source\PSoC5/ADC_DelSig_1.c **** * Function Name: ADC_DelSig_1_SelectCofiguration
1531:.\Generated_Source\PSoC5/ADC_DelSig_1.c **** ********************************************************************************
1532:.\Generated_Source\PSoC5/ADC_DelSig_1.c **** *
1533:.\Generated_Source\PSoC5/ADC_DelSig_1.c **** * Summary:
1534:.\Generated_Source\PSoC5/ADC_DelSig_1.c **** *  Sets one of up to four ADC configurations. Before setting the new
1535:.\Generated_Source\PSoC5/ADC_DelSig_1.c **** *  configuration, the ADC is stopped and powered down. After setting
1536:.\Generated_Source\PSoC5/ADC_DelSig_1.c **** *  the new configuration, the ADC can be powered and conversion
1537:.\Generated_Source\PSoC5/ADC_DelSig_1.c **** *  can be restarted depending up on the value of second parameter
1538:.\Generated_Source\PSoC5/ADC_DelSig_1.c **** *  restart. If the value of this parameter is 1, then ADC will be
1539:.\Generated_Source\PSoC5/ADC_DelSig_1.c **** *  restarted. If this value is zero, then user must call ADC_DelSig_1_Start
1540:.\Generated_Source\PSoC5/ADC_DelSig_1.c **** *  and ADC_DelSig_1_StartConvert() to restart the conversion.
1541:.\Generated_Source\PSoC5/ADC_DelSig_1.c **** *
1542:.\Generated_Source\PSoC5/ADC_DelSig_1.c **** * Parameters:
1543:.\Generated_Source\PSoC5/ADC_DelSig_1.c **** *  config:  configuration user wants to select.
1544:.\Generated_Source\PSoC5/ADC_DelSig_1.c **** *           Valid range: 1..4
1545:.\Generated_Source\PSoC5/ADC_DelSig_1.c **** *  restart:  Restart option. 1 means start the ADC and restart the conversion.
1546:.\Generated_Source\PSoC5/ADC_DelSig_1.c **** *                            0 means do not start the ADC and conversion.
1547:.\Generated_Source\PSoC5/ADC_DelSig_1.c **** *
1548:.\Generated_Source\PSoC5/ADC_DelSig_1.c **** * Return:
1549:.\Generated_Source\PSoC5/ADC_DelSig_1.c **** *  None
1550:.\Generated_Source\PSoC5/ADC_DelSig_1.c **** *
1551:.\Generated_Source\PSoC5/ADC_DelSig_1.c **** *******************************************************************************/
1552:.\Generated_Source\PSoC5/ADC_DelSig_1.c **** void ADC_DelSig_1_SelectConfiguration(uint8 config, uint8 restart)
1553:.\Generated_Source\PSoC5/ADC_DelSig_1.c ****                                               
1554:.\Generated_Source\PSoC5/ADC_DelSig_1.c **** {
 2318              		.loc 1 1554 0
 2319              		.cfi_startproc
ARM GAS  C:\Users\Charlie\AppData\Local\Temp\ccHLrwpJ.s 			page 69


 2320              		@ args = 0, pretend = 0, frame = 8
 2321              		@ frame_needed = 1, uses_anonymous_args = 0
 2322 0000 80B5     		push	{r7, lr}
 2323              		.cfi_def_cfa_offset 8
 2324              		.cfi_offset 7, -8
 2325              		.cfi_offset 14, -4
 2326 0002 82B0     		sub	sp, sp, #8
 2327              		.cfi_def_cfa_offset 16
 2328 0004 00AF     		add	r7, sp, #0
 2329              		.cfi_def_cfa_register 7
 2330 0006 0246     		mov	r2, r0
 2331 0008 0B46     		mov	r3, r1
 2332 000a FA71     		strb	r2, [r7, #7]
 2333 000c BB71     		strb	r3, [r7, #6]
1555:.\Generated_Source\PSoC5/ADC_DelSig_1.c ****     /* Check whether the configuration number is valid or not */
1556:.\Generated_Source\PSoC5/ADC_DelSig_1.c ****     if((config > 0u) && (config <= ADC_DelSig_1_DEFAULT_NUM_CONFIGS))
 2334              		.loc 1 1556 0
 2335 000e FB79     		ldrb	r3, [r7, #7]	@ zero_extendqisi2
 2336 0010 002B     		cmp	r3, #0
 2337 0012 2AD0     		beq	.L108
 2338              		.loc 1 1556 0 is_stmt 0 discriminator 1
 2339 0014 FB79     		ldrb	r3, [r7, #7]	@ zero_extendqisi2
 2340 0016 042B     		cmp	r3, #4
 2341 0018 27D8     		bhi	.L108
1557:.\Generated_Source\PSoC5/ADC_DelSig_1.c ****     {
1558:.\Generated_Source\PSoC5/ADC_DelSig_1.c ****         /* Set the flag to ensure Start() API doesn't override the 
1559:.\Generated_Source\PSoC5/ADC_DelSig_1.c **** 		*  selected configuration
1560:.\Generated_Source\PSoC5/ADC_DelSig_1.c **** 		*/
1561:.\Generated_Source\PSoC5/ADC_DelSig_1.c ****         if(ADC_DelSig_1_initVar == 0u)
 2342              		.loc 1 1561 0 is_stmt 1
 2343 001a 174B     		ldr	r3, .L112
 2344 001c 1B78     		ldrb	r3, [r3]	@ zero_extendqisi2
 2345 001e 002B     		cmp	r3, #0
 2346 0020 02D1     		bne	.L109
1562:.\Generated_Source\PSoC5/ADC_DelSig_1.c ****         {
1563:.\Generated_Source\PSoC5/ADC_DelSig_1.c ****             ADC_DelSig_1_started = 1u;
 2347              		.loc 1 1563 0
 2348 0022 164B     		ldr	r3, .L112+4
 2349 0024 0122     		movs	r2, #1
 2350 0026 1A70     		strb	r2, [r3]
 2351              	.L109:
1564:.\Generated_Source\PSoC5/ADC_DelSig_1.c ****         }
1565:.\Generated_Source\PSoC5/ADC_DelSig_1.c **** 
1566:.\Generated_Source\PSoC5/ADC_DelSig_1.c ****         /* Update the config flag */
1567:.\Generated_Source\PSoC5/ADC_DelSig_1.c ****         ADC_DelSig_1_Config = config;
 2352              		.loc 1 1567 0
 2353 0028 154B     		ldr	r3, .L112+8
 2354 002a FA79     		ldrb	r2, [r7, #7]
 2355 002c 1A70     		strb	r2, [r3]
1568:.\Generated_Source\PSoC5/ADC_DelSig_1.c **** 
1569:.\Generated_Source\PSoC5/ADC_DelSig_1.c ****         /* Stop the ADC  */
1570:.\Generated_Source\PSoC5/ADC_DelSig_1.c ****         ADC_DelSig_1_Stop();
 2356              		.loc 1 1570 0
 2357 002e FFF7FEFF 		bl	ADC_DelSig_1_Stop
1571:.\Generated_Source\PSoC5/ADC_DelSig_1.c **** 
1572:.\Generated_Source\PSoC5/ADC_DelSig_1.c ****         /* Set the  ADC registers based on the configuration */
1573:.\Generated_Source\PSoC5/ADC_DelSig_1.c ****         ADC_DelSig_1_InitConfig(config);
ARM GAS  C:\Users\Charlie\AppData\Local\Temp\ccHLrwpJ.s 			page 70


 2358              		.loc 1 1573 0
 2359 0032 FB79     		ldrb	r3, [r7, #7]	@ zero_extendqisi2
 2360 0034 1846     		mov	r0, r3
 2361 0036 FFF7FEFF 		bl	ADC_DelSig_1_InitConfig
1574:.\Generated_Source\PSoC5/ADC_DelSig_1.c **** 
1575:.\Generated_Source\PSoC5/ADC_DelSig_1.c ****         /* Compensate the gain */
1576:.\Generated_Source\PSoC5/ADC_DelSig_1.c ****         ADC_DelSig_1_DEC_GVAL_REG = ADC_DelSig_1_gcor[config - 1u].gval;
 2362              		.loc 1 1576 0
 2363 003a 124A     		ldr	r2, .L112+12
 2364 003c FB79     		ldrb	r3, [r7, #7]	@ zero_extendqisi2
 2365 003e 013B     		subs	r3, r3, #1
 2366 0040 1149     		ldr	r1, .L112+16
 2367 0042 9B00     		lsls	r3, r3, #2
 2368 0044 0B44     		add	r3, r3, r1
 2369 0046 9B78     		ldrb	r3, [r3, #2]	@ zero_extendqisi2
 2370 0048 1370     		strb	r3, [r2]
1577:.\Generated_Source\PSoC5/ADC_DelSig_1.c ****         CY_SET_REG16(ADC_DelSig_1_DEC_GCOR_16B_PTR, ADC_DelSig_1_gcor[config - 1u].gcor);
 2371              		.loc 1 1577 0
 2372 004a 104B     		ldr	r3, .L112+20
 2373 004c FA79     		ldrb	r2, [r7, #7]	@ zero_extendqisi2
 2374 004e 511E     		subs	r1, r2, #1
 2375 0050 0D4A     		ldr	r2, .L112+16
 2376 0052 32F82120 		ldrh	r2, [r2, r1, lsl #2]
 2377 0056 1A80     		strh	r2, [r3]	@ movhi
1578:.\Generated_Source\PSoC5/ADC_DelSig_1.c **** 
1579:.\Generated_Source\PSoC5/ADC_DelSig_1.c ****         if(restart == 1u)
 2378              		.loc 1 1579 0
 2379 0058 BB79     		ldrb	r3, [r7, #6]	@ zero_extendqisi2
 2380 005a 012B     		cmp	r3, #1
 2381 005c 04D1     		bne	.L110
1580:.\Generated_Source\PSoC5/ADC_DelSig_1.c ****         {
1581:.\Generated_Source\PSoC5/ADC_DelSig_1.c ****             /* Restart the ADC */
1582:.\Generated_Source\PSoC5/ADC_DelSig_1.c ****             ADC_DelSig_1_Start();
 2382              		.loc 1 1582 0
 2383 005e FFF7FEFF 		bl	ADC_DelSig_1_Start
1583:.\Generated_Source\PSoC5/ADC_DelSig_1.c **** 
1584:.\Generated_Source\PSoC5/ADC_DelSig_1.c ****             /* Restart the ADC conversion */
1585:.\Generated_Source\PSoC5/ADC_DelSig_1.c ****             ADC_DelSig_1_StartConvert();
 2384              		.loc 1 1585 0
 2385 0062 FFF7FEFF 		bl	ADC_DelSig_1_StartConvert
1579:.\Generated_Source\PSoC5/ADC_DelSig_1.c ****         if(restart == 1u)
 2386              		.loc 1 1579 0
 2387 0066 03E0     		b	.L107
 2388              	.L110:
1579:.\Generated_Source\PSoC5/ADC_DelSig_1.c ****         if(restart == 1u)
 2389              		.loc 1 1579 0 is_stmt 0 discriminator 1
 2390 0068 02E0     		b	.L107
 2391              	.L108:
1586:.\Generated_Source\PSoC5/ADC_DelSig_1.c ****         }
1587:.\Generated_Source\PSoC5/ADC_DelSig_1.c ****     }
1588:.\Generated_Source\PSoC5/ADC_DelSig_1.c ****     else
1589:.\Generated_Source\PSoC5/ADC_DelSig_1.c ****     {
1590:.\Generated_Source\PSoC5/ADC_DelSig_1.c ****         /* Halt CPU in debug mode if config is out of valid range */
1591:.\Generated_Source\PSoC5/ADC_DelSig_1.c ****         CYASSERT(0u != 0u);
 2392              		.loc 1 1591 0 is_stmt 1 discriminator 1
 2393 006a 0020     		movs	r0, #0
 2394 006c FFF7FEFF 		bl	CyHalt
ARM GAS  C:\Users\Charlie\AppData\Local\Temp\ccHLrwpJ.s 			page 71


 2395              	.L107:
1592:.\Generated_Source\PSoC5/ADC_DelSig_1.c ****     }
1593:.\Generated_Source\PSoC5/ADC_DelSig_1.c **** }
 2396              		.loc 1 1593 0
 2397 0070 0837     		adds	r7, r7, #8
 2398 0072 BD46     		mov	sp, r7
 2399              		@ sp needed
 2400 0074 80BD     		pop	{r7, pc}
 2401              	.L113:
 2402 0076 00BF     		.align	2
 2403              	.L112:
 2404 0078 00000000 		.word	ADC_DelSig_1_initVar
 2405 007c 00000000 		.word	ADC_DelSig_1_started
 2406 0080 00000000 		.word	ADC_DelSig_1_Config
 2407 0084 0E4E0040 		.word	1073761806
 2408 0088 04000000 		.word	ADC_DelSig_1_gcor
 2409 008c 0C4E0040 		.word	1073761804
 2410              		.cfi_endproc
 2411              	.LFE20:
 2412              		.size	ADC_DelSig_1_SelectConfiguration, .-ADC_DelSig_1_SelectConfiguration
 2413              		.section	.text.ADC_DelSig_1_GainCompensation,"ax",%progbits
 2414              		.align	2
 2415              		.thumb
 2416              		.thumb_func
 2417              		.type	ADC_DelSig_1_GainCompensation, %function
 2418              	ADC_DelSig_1_GainCompensation:
 2419              	.LFB21:
1594:.\Generated_Source\PSoC5/ADC_DelSig_1.c **** 
1595:.\Generated_Source\PSoC5/ADC_DelSig_1.c **** 
1596:.\Generated_Source\PSoC5/ADC_DelSig_1.c **** /*******************************************************************************
1597:.\Generated_Source\PSoC5/ADC_DelSig_1.c **** * Function Name: ADC_DelSig_1_GainCompensation
1598:.\Generated_Source\PSoC5/ADC_DelSig_1.c **** ********************************************************************************
1599:.\Generated_Source\PSoC5/ADC_DelSig_1.c **** *
1600:.\Generated_Source\PSoC5/ADC_DelSig_1.c **** * Summary:
1601:.\Generated_Source\PSoC5/ADC_DelSig_1.c **** *  This API calculates the trim value and then store this to gcor structure.
1602:.\Generated_Source\PSoC5/ADC_DelSig_1.c **** *
1603:.\Generated_Source\PSoC5/ADC_DelSig_1.c **** * Parameters:
1604:.\Generated_Source\PSoC5/ADC_DelSig_1.c **** *  inputRange:  input range for which trim value is to be calculated.
1605:.\Generated_Source\PSoC5/ADC_DelSig_1.c **** *  IdealDecGain:  Ideal Decimator gain for the selected resolution and
1606:.\Generated_Source\PSoC5/ADC_DelSig_1.c **** *                 conversion  mode.
1607:.\Generated_Source\PSoC5/ADC_DelSig_1.c **** *  IdealOddDecGain:  Ideal odd decimation gain for the selected resolution and
1608:.\Generated_Source\PSoC5/ADC_DelSig_1.c ****                      conversion mode.
1609:.\Generated_Source\PSoC5/ADC_DelSig_1.c **** *  resolution:  Resolution to select the proper flash location for trim value.
1610:.\Generated_Source\PSoC5/ADC_DelSig_1.c **** *  config:      Specifies the configuration number
1611:.\Generated_Source\PSoC5/ADC_DelSig_1.c **** *               Valid range: 1..4
1612:.\Generated_Source\PSoC5/ADC_DelSig_1.c **** *
1613:.\Generated_Source\PSoC5/ADC_DelSig_1.c **** * Return:
1614:.\Generated_Source\PSoC5/ADC_DelSig_1.c **** *  None
1615:.\Generated_Source\PSoC5/ADC_DelSig_1.c **** *
1616:.\Generated_Source\PSoC5/ADC_DelSig_1.c **** *******************************************************************************/
1617:.\Generated_Source\PSoC5/ADC_DelSig_1.c **** static void ADC_DelSig_1_GainCompensation(uint8 inputRange, uint16 idealDecGain, uint16 idealOddDec
1618:.\Generated_Source\PSoC5/ADC_DelSig_1.c ****                               uint8 resolution, uint8 config) 
1619:.\Generated_Source\PSoC5/ADC_DelSig_1.c **** {
 2420              		.loc 1 1619 0
 2421              		.cfi_startproc
 2422              		@ args = 4, pretend = 0, frame = 24
 2423              		@ frame_needed = 1, uses_anonymous_args = 0
ARM GAS  C:\Users\Charlie\AppData\Local\Temp\ccHLrwpJ.s 			page 72


 2424 0000 80B5     		push	{r7, lr}
 2425              		.cfi_def_cfa_offset 8
 2426              		.cfi_offset 7, -8
 2427              		.cfi_offset 14, -4
 2428 0002 86B0     		sub	sp, sp, #24
 2429              		.cfi_def_cfa_offset 32
 2430 0004 00AF     		add	r7, sp, #0
 2431              		.cfi_def_cfa_register 7
 2432 0006 F871     		strb	r0, [r7, #7]
 2433 0008 B980     		strh	r1, [r7, #4]	@ movhi
 2434 000a 7A80     		strh	r2, [r7, #2]	@ movhi
 2435 000c BB71     		strb	r3, [r7, #6]
1620:.\Generated_Source\PSoC5/ADC_DelSig_1.c ****     int8 flash;
1621:.\Generated_Source\PSoC5/ADC_DelSig_1.c **** 	int32 normalised;
1622:.\Generated_Source\PSoC5/ADC_DelSig_1.c **** 	uint16 gcorValue;
1623:.\Generated_Source\PSoC5/ADC_DelSig_1.c ****     uint32 gcorTmp;
1624:.\Generated_Source\PSoC5/ADC_DelSig_1.c **** 
1625:.\Generated_Source\PSoC5/ADC_DelSig_1.c ****     if((config > 0u) && (config <= ADC_DelSig_1_DEFAULT_NUM_CONFIGS))
 2436              		.loc 1 1625 0
 2437 000e 97F82030 		ldrb	r3, [r7, #32]	@ zero_extendqisi2
 2438 0012 002B     		cmp	r3, #0
 2439 0014 00F08A80 		beq	.L115
 2440              		.loc 1 1625 0 is_stmt 0 discriminator 1
 2441 0018 97F82030 		ldrb	r3, [r7, #32]	@ zero_extendqisi2
 2442 001c 042B     		cmp	r3, #4
 2443 001e 00F28580 		bhi	.L115
1626:.\Generated_Source\PSoC5/ADC_DelSig_1.c ****     {
1627:.\Generated_Source\PSoC5/ADC_DelSig_1.c ****         switch(inputRange)
 2444              		.loc 1 1627 0 is_stmt 1
 2445 0022 FB79     		ldrb	r3, [r7, #7]	@ zero_extendqisi2
 2446 0024 013B     		subs	r3, r3, #1
 2447 0026 092B     		cmp	r3, #9
 2448 0028 4AD8     		bhi	.L116
 2449 002a 01A2     		adr	r2, .L118
 2450 002c 52F823F0 		ldr	pc, [r2, r3, lsl #2]
 2451              		.p2align 2
 2452              	.L118:
 2453 0030 59000000 		.word	.L117+1
 2454 0034 C1000000 		.word	.L116+1
 2455 0038 C1000000 		.word	.L116+1
 2456 003c 59000000 		.word	.L117+1
 2457 0040 C1000000 		.word	.L116+1
 2458 0044 C1000000 		.word	.L116+1
 2459 0048 73000000 		.word	.L119+1
 2460 004c 8D000000 		.word	.L120+1
 2461 0050 C1000000 		.word	.L116+1
 2462 0054 A7000000 		.word	.L121+1
 2463              		.p2align 1
 2464              	.L117:
1628:.\Generated_Source\PSoC5/ADC_DelSig_1.c ****         {
1629:.\Generated_Source\PSoC5/ADC_DelSig_1.c ****             case ADC_DelSig_1_IR_VNEG_VREF_DIFF:
1630:.\Generated_Source\PSoC5/ADC_DelSig_1.c ****             case ADC_DelSig_1_IR_VSSA_TO_2VREF:
1631:.\Generated_Source\PSoC5/ADC_DelSig_1.c ****                 /* Normalize the flash Value */
1632:.\Generated_Source\PSoC5/ADC_DelSig_1.c ****                 if(resolution > 15u)
 2465              		.loc 1 1632 0
 2466 0058 BB79     		ldrb	r3, [r7, #6]	@ zero_extendqisi2
 2467 005a 0F2B     		cmp	r3, #15
ARM GAS  C:\Users\Charlie\AppData\Local\Temp\ccHLrwpJ.s 			page 73


 2468 005c 04D9     		bls	.L122
1633:.\Generated_Source\PSoC5/ADC_DelSig_1.c ****                 {
1634:.\Generated_Source\PSoC5/ADC_DelSig_1.c ****                     flash = ADC_DelSig_1_DEC_TRIM_VREF_DIFF_16_20;
 2469              		.loc 1 1634 0
 2470 005e 364B     		ldr	r3, .L134
 2471 0060 1B78     		ldrb	r3, [r3]
 2472 0062 DBB2     		uxtb	r3, r3
 2473 0064 FB75     		strb	r3, [r7, #23]
1635:.\Generated_Source\PSoC5/ADC_DelSig_1.c ****                 }
1636:.\Generated_Source\PSoC5/ADC_DelSig_1.c ****                 else
1637:.\Generated_Source\PSoC5/ADC_DelSig_1.c ****                 {
1638:.\Generated_Source\PSoC5/ADC_DelSig_1.c ****                     flash = ADC_DelSig_1_DEC_TRIM_VREF_DIFF_8_15;
1639:.\Generated_Source\PSoC5/ADC_DelSig_1.c ****                 }
1640:.\Generated_Source\PSoC5/ADC_DelSig_1.c ****                 break;
 2474              		.loc 1 1640 0
 2475 0066 2EE0     		b	.L124
 2476              	.L122:
1638:.\Generated_Source\PSoC5/ADC_DelSig_1.c ****                     flash = ADC_DelSig_1_DEC_TRIM_VREF_DIFF_8_15;
 2477              		.loc 1 1638 0
 2478 0068 344B     		ldr	r3, .L134+4
 2479 006a 1B78     		ldrb	r3, [r3]
 2480 006c DBB2     		uxtb	r3, r3
 2481 006e FB75     		strb	r3, [r7, #23]
 2482              		.loc 1 1640 0
 2483 0070 29E0     		b	.L124
 2484              	.L119:
1641:.\Generated_Source\PSoC5/ADC_DelSig_1.c **** 
1642:.\Generated_Source\PSoC5/ADC_DelSig_1.c ****             case ADC_DelSig_1_IR_VNEG_VREF_2_DIFF:
1643:.\Generated_Source\PSoC5/ADC_DelSig_1.c ****                 /* Normalize the flash Value */
1644:.\Generated_Source\PSoC5/ADC_DelSig_1.c ****                 if(resolution > 15u)
 2485              		.loc 1 1644 0
 2486 0072 BB79     		ldrb	r3, [r7, #6]	@ zero_extendqisi2
 2487 0074 0F2B     		cmp	r3, #15
 2488 0076 04D9     		bls	.L125
1645:.\Generated_Source\PSoC5/ADC_DelSig_1.c ****                 {
1646:.\Generated_Source\PSoC5/ADC_DelSig_1.c ****                     flash = ADC_DelSig_1_DEC_TRIM_VREF_2_DIFF_16_20;
 2489              		.loc 1 1646 0
 2490 0078 314B     		ldr	r3, .L134+8
 2491 007a 1B78     		ldrb	r3, [r3]
 2492 007c DBB2     		uxtb	r3, r3
 2493 007e FB75     		strb	r3, [r7, #23]
1647:.\Generated_Source\PSoC5/ADC_DelSig_1.c ****                 }
1648:.\Generated_Source\PSoC5/ADC_DelSig_1.c ****                 else
1649:.\Generated_Source\PSoC5/ADC_DelSig_1.c ****                 {
1650:.\Generated_Source\PSoC5/ADC_DelSig_1.c ****                     flash = ADC_DelSig_1_DEC_TRIM_VREF_2_DIFF_8_15;
1651:.\Generated_Source\PSoC5/ADC_DelSig_1.c ****                 }
1652:.\Generated_Source\PSoC5/ADC_DelSig_1.c ****                 break;
 2494              		.loc 1 1652 0
 2495 0080 21E0     		b	.L124
 2496              	.L125:
1650:.\Generated_Source\PSoC5/ADC_DelSig_1.c ****                     flash = ADC_DelSig_1_DEC_TRIM_VREF_2_DIFF_8_15;
 2497              		.loc 1 1650 0
 2498 0082 304B     		ldr	r3, .L134+12
 2499 0084 1B78     		ldrb	r3, [r3]
 2500 0086 DBB2     		uxtb	r3, r3
 2501 0088 FB75     		strb	r3, [r7, #23]
 2502              		.loc 1 1652 0
ARM GAS  C:\Users\Charlie\AppData\Local\Temp\ccHLrwpJ.s 			page 74


 2503 008a 1CE0     		b	.L124
 2504              	.L120:
1653:.\Generated_Source\PSoC5/ADC_DelSig_1.c **** 
1654:.\Generated_Source\PSoC5/ADC_DelSig_1.c ****             case ADC_DelSig_1_IR_VNEG_VREF_4_DIFF:
1655:.\Generated_Source\PSoC5/ADC_DelSig_1.c ****                 /* Normalize the flash Value */
1656:.\Generated_Source\PSoC5/ADC_DelSig_1.c ****                 if(resolution > 15u)
 2505              		.loc 1 1656 0
 2506 008c BB79     		ldrb	r3, [r7, #6]	@ zero_extendqisi2
 2507 008e 0F2B     		cmp	r3, #15
 2508 0090 04D9     		bls	.L127
