ARM GAS  C:\Users\Charlie\AppData\Local\Temp\cc6egklb.s 			page 1


   1              		.syntax unified
   2              		.cpu cortex-m3
   3              		.fpu softvfp
   4              		.eabi_attribute 20, 1
   5              		.eabi_attribute 21, 1
   6              		.eabi_attribute 23, 3
   7              		.eabi_attribute 24, 1
   8              		.eabi_attribute 25, 1
   9              		.eabi_attribute 26, 1
  10              		.eabi_attribute 30, 6
  11              		.eabi_attribute 34, 1
  12              		.eabi_attribute 18, 4
  13              		.thumb
  14              		.file	"UART_1.c"
  15              		.text
  16              	.Ltext0:
  17              		.cfi_sections	.debug_frame
  18              		.global	UART_1_initVar
  19              		.bss
  20              		.type	UART_1_initVar, %object
  21              		.size	UART_1_initVar, 1
  22              	UART_1_initVar:
  23 0000 00       		.space	1
  24              		.section	.text.UART_1_Start,"ax",%progbits
  25              		.align	2
  26              		.global	UART_1_Start
  27              		.thumb
  28              		.thumb_func
  29              		.type	UART_1_Start, %function
  30              	UART_1_Start:
  31              	.LFB0:
  32              		.file 1 ".\\Generated_Source\\PSoC5\\UART_1.c"
   1:.\Generated_Source\PSoC5/UART_1.c **** /*******************************************************************************
   2:.\Generated_Source\PSoC5/UART_1.c **** * File Name: UART_1.c
   3:.\Generated_Source\PSoC5/UART_1.c **** * Version 2.40
   4:.\Generated_Source\PSoC5/UART_1.c **** *
   5:.\Generated_Source\PSoC5/UART_1.c **** * Description:
   6:.\Generated_Source\PSoC5/UART_1.c **** *  This file provides all API functionality of the UART component
   7:.\Generated_Source\PSoC5/UART_1.c **** *
   8:.\Generated_Source\PSoC5/UART_1.c **** * Note:
   9:.\Generated_Source\PSoC5/UART_1.c **** *
  10:.\Generated_Source\PSoC5/UART_1.c **** ********************************************************************************
  11:.\Generated_Source\PSoC5/UART_1.c **** * Copyright 2008-2015, Cypress Semiconductor Corporation.  All rights reserved.
  12:.\Generated_Source\PSoC5/UART_1.c **** * You may use this file only in accordance with the license, terms, conditions,
  13:.\Generated_Source\PSoC5/UART_1.c **** * disclaimers, and limitations in the end user license agreement accompanying
  14:.\Generated_Source\PSoC5/UART_1.c **** * the software package with which this file was provided.
  15:.\Generated_Source\PSoC5/UART_1.c **** *******************************************************************************/
  16:.\Generated_Source\PSoC5/UART_1.c **** 
  17:.\Generated_Source\PSoC5/UART_1.c **** #include "UART_1.h"
  18:.\Generated_Source\PSoC5/UART_1.c **** #if (UART_1_INTERNAL_CLOCK_USED)
  19:.\Generated_Source\PSoC5/UART_1.c ****     #include "UART_1_IntClock.h"
  20:.\Generated_Source\PSoC5/UART_1.c **** #endif /* End UART_1_INTERNAL_CLOCK_USED */
  21:.\Generated_Source\PSoC5/UART_1.c **** 
  22:.\Generated_Source\PSoC5/UART_1.c **** 
  23:.\Generated_Source\PSoC5/UART_1.c **** /***************************************
  24:.\Generated_Source\PSoC5/UART_1.c **** * Global data allocation
  25:.\Generated_Source\PSoC5/UART_1.c **** ***************************************/
ARM GAS  C:\Users\Charlie\AppData\Local\Temp\cc6egklb.s 			page 2


  26:.\Generated_Source\PSoC5/UART_1.c **** 
  27:.\Generated_Source\PSoC5/UART_1.c **** uint8 UART_1_initVar = 0u;
  28:.\Generated_Source\PSoC5/UART_1.c **** 
  29:.\Generated_Source\PSoC5/UART_1.c **** #if (UART_1_TX_INTERRUPT_ENABLED && UART_1_TX_ENABLED)
  30:.\Generated_Source\PSoC5/UART_1.c ****     volatile uint8 UART_1_txBuffer[UART_1_TX_BUFFER_SIZE];
  31:.\Generated_Source\PSoC5/UART_1.c ****     volatile uint8 UART_1_txBufferRead = 0u;
  32:.\Generated_Source\PSoC5/UART_1.c ****     uint8 UART_1_txBufferWrite = 0u;
  33:.\Generated_Source\PSoC5/UART_1.c **** #endif /* (UART_1_TX_INTERRUPT_ENABLED && UART_1_TX_ENABLED) */
  34:.\Generated_Source\PSoC5/UART_1.c **** 
  35:.\Generated_Source\PSoC5/UART_1.c **** #if (UART_1_RX_INTERRUPT_ENABLED && (UART_1_RX_ENABLED || UART_1_HD_ENABLED))
  36:.\Generated_Source\PSoC5/UART_1.c ****     uint8 UART_1_errorStatus = 0u;
  37:.\Generated_Source\PSoC5/UART_1.c ****     volatile uint8 UART_1_rxBuffer[UART_1_RX_BUFFER_SIZE];
  38:.\Generated_Source\PSoC5/UART_1.c ****     volatile uint8 UART_1_rxBufferRead  = 0u;
  39:.\Generated_Source\PSoC5/UART_1.c ****     volatile uint8 UART_1_rxBufferWrite = 0u;
  40:.\Generated_Source\PSoC5/UART_1.c ****     volatile uint8 UART_1_rxBufferLoopDetect = 0u;
  41:.\Generated_Source\PSoC5/UART_1.c ****     volatile uint8 UART_1_rxBufferOverflow   = 0u;
  42:.\Generated_Source\PSoC5/UART_1.c ****     #if (UART_1_RXHW_ADDRESS_ENABLED)
  43:.\Generated_Source\PSoC5/UART_1.c ****         volatile uint8 UART_1_rxAddressMode = UART_1_RX_ADDRESS_MODE;
  44:.\Generated_Source\PSoC5/UART_1.c ****         volatile uint8 UART_1_rxAddressDetected = 0u;
  45:.\Generated_Source\PSoC5/UART_1.c ****     #endif /* (UART_1_RXHW_ADDRESS_ENABLED) */
  46:.\Generated_Source\PSoC5/UART_1.c **** #endif /* (UART_1_RX_INTERRUPT_ENABLED && (UART_1_RX_ENABLED || UART_1_HD_ENABLED)) */
  47:.\Generated_Source\PSoC5/UART_1.c **** 
  48:.\Generated_Source\PSoC5/UART_1.c **** 
  49:.\Generated_Source\PSoC5/UART_1.c **** /*******************************************************************************
  50:.\Generated_Source\PSoC5/UART_1.c **** * Function Name: UART_1_Start
  51:.\Generated_Source\PSoC5/UART_1.c **** ********************************************************************************
  52:.\Generated_Source\PSoC5/UART_1.c **** *
  53:.\Generated_Source\PSoC5/UART_1.c **** * Summary:
  54:.\Generated_Source\PSoC5/UART_1.c **** *  This is the preferred method to begin component operation.
  55:.\Generated_Source\PSoC5/UART_1.c **** *  UART_1_Start() sets the initVar variable, calls the
  56:.\Generated_Source\PSoC5/UART_1.c **** *  UART_1_Init() function, and then calls the
  57:.\Generated_Source\PSoC5/UART_1.c **** *  UART_1_Enable() function.
  58:.\Generated_Source\PSoC5/UART_1.c **** *
  59:.\Generated_Source\PSoC5/UART_1.c **** * Parameters:
  60:.\Generated_Source\PSoC5/UART_1.c **** *  None.
  61:.\Generated_Source\PSoC5/UART_1.c **** *
  62:.\Generated_Source\PSoC5/UART_1.c **** * Return:
  63:.\Generated_Source\PSoC5/UART_1.c **** *  None.
  64:.\Generated_Source\PSoC5/UART_1.c **** *
  65:.\Generated_Source\PSoC5/UART_1.c **** * Global variables:
  66:.\Generated_Source\PSoC5/UART_1.c **** *  The UART_1_intiVar variable is used to indicate initial
  67:.\Generated_Source\PSoC5/UART_1.c **** *  configuration of this component. The variable is initialized to zero (0u)
  68:.\Generated_Source\PSoC5/UART_1.c **** *  and set to one (1u) the first time UART_1_Start() is called. This
  69:.\Generated_Source\PSoC5/UART_1.c **** *  allows for component initialization without re-initialization in all
  70:.\Generated_Source\PSoC5/UART_1.c **** *  subsequent calls to the UART_1_Start() routine.
  71:.\Generated_Source\PSoC5/UART_1.c **** *
  72:.\Generated_Source\PSoC5/UART_1.c **** * Reentrant:
  73:.\Generated_Source\PSoC5/UART_1.c **** *  No.
  74:.\Generated_Source\PSoC5/UART_1.c **** *
  75:.\Generated_Source\PSoC5/UART_1.c **** *******************************************************************************/
  76:.\Generated_Source\PSoC5/UART_1.c **** void UART_1_Start(void) 
  77:.\Generated_Source\PSoC5/UART_1.c **** {
  33              		.loc 1 77 0
  34              		.cfi_startproc
  35              		@ args = 0, pretend = 0, frame = 0
  36              		@ frame_needed = 1, uses_anonymous_args = 0
  37 0000 80B5     		push	{r7, lr}
ARM GAS  C:\Users\Charlie\AppData\Local\Temp\cc6egklb.s 			page 3


  38              		.cfi_def_cfa_offset 8
  39              		.cfi_offset 7, -8
  40              		.cfi_offset 14, -4
  41 0002 00AF     		add	r7, sp, #0
  42              		.cfi_def_cfa_register 7
  78:.\Generated_Source\PSoC5/UART_1.c ****     /* If not initialized then initialize all required hardware and software */
  79:.\Generated_Source\PSoC5/UART_1.c ****     if(UART_1_initVar == 0u)
  43              		.loc 1 79 0
  44 0004 054B     		ldr	r3, .L3
  45 0006 1B78     		ldrb	r3, [r3]	@ zero_extendqisi2
  46 0008 002B     		cmp	r3, #0
  47 000a 04D1     		bne	.L2
  80:.\Generated_Source\PSoC5/UART_1.c ****     {
  81:.\Generated_Source\PSoC5/UART_1.c ****         UART_1_Init();
  48              		.loc 1 81 0
  49 000c FFF7FEFF 		bl	UART_1_Init
  82:.\Generated_Source\PSoC5/UART_1.c ****         UART_1_initVar = 1u;
  50              		.loc 1 82 0
  51 0010 024B     		ldr	r3, .L3
  52 0012 0122     		movs	r2, #1
  53 0014 1A70     		strb	r2, [r3]
  54              	.L2:
  83:.\Generated_Source\PSoC5/UART_1.c ****     }
  84:.\Generated_Source\PSoC5/UART_1.c **** 
  85:.\Generated_Source\PSoC5/UART_1.c ****     UART_1_Enable();
  55              		.loc 1 85 0
  56 0016 FFF7FEFF 		bl	UART_1_Enable
  86:.\Generated_Source\PSoC5/UART_1.c **** }
  57              		.loc 1 86 0
  58 001a 80BD     		pop	{r7, pc}
  59              	.L4:
  60              		.align	2
  61              	.L3:
  62 001c 00000000 		.word	UART_1_initVar
  63              		.cfi_endproc
  64              	.LFE0:
  65              		.size	UART_1_Start, .-UART_1_Start
  66              		.section	.text.UART_1_Init,"ax",%progbits
  67              		.align	2
  68              		.global	UART_1_Init
  69              		.thumb
  70              		.thumb_func
  71              		.type	UART_1_Init, %function
  72              	UART_1_Init:
  73              	.LFB1:
  87:.\Generated_Source\PSoC5/UART_1.c **** 
  88:.\Generated_Source\PSoC5/UART_1.c **** 
  89:.\Generated_Source\PSoC5/UART_1.c **** /*******************************************************************************
  90:.\Generated_Source\PSoC5/UART_1.c **** * Function Name: UART_1_Init
  91:.\Generated_Source\PSoC5/UART_1.c **** ********************************************************************************
  92:.\Generated_Source\PSoC5/UART_1.c **** *
  93:.\Generated_Source\PSoC5/UART_1.c **** * Summary:
  94:.\Generated_Source\PSoC5/UART_1.c **** *  Initializes or restores the component according to the customizer Configure
  95:.\Generated_Source\PSoC5/UART_1.c **** *  dialog settings. It is not necessary to call UART_1_Init() because
  96:.\Generated_Source\PSoC5/UART_1.c **** *  the UART_1_Start() API calls this function and is the preferred
  97:.\Generated_Source\PSoC5/UART_1.c **** *  method to begin component operation.
  98:.\Generated_Source\PSoC5/UART_1.c **** *
ARM GAS  C:\Users\Charlie\AppData\Local\Temp\cc6egklb.s 			page 4


  99:.\Generated_Source\PSoC5/UART_1.c **** * Parameters:
 100:.\Generated_Source\PSoC5/UART_1.c **** *  None.
 101:.\Generated_Source\PSoC5/UART_1.c **** *
 102:.\Generated_Source\PSoC5/UART_1.c **** * Return:
 103:.\Generated_Source\PSoC5/UART_1.c **** *  None.
 104:.\Generated_Source\PSoC5/UART_1.c **** *
 105:.\Generated_Source\PSoC5/UART_1.c **** *******************************************************************************/
 106:.\Generated_Source\PSoC5/UART_1.c **** void UART_1_Init(void) 
 107:.\Generated_Source\PSoC5/UART_1.c **** {
  74              		.loc 1 107 0
  75              		.cfi_startproc
  76              		@ args = 0, pretend = 0, frame = 0
  77              		@ frame_needed = 1, uses_anonymous_args = 0
  78              		@ link register save eliminated.
  79 0000 80B4     		push	{r7}
  80              		.cfi_def_cfa_offset 4
  81              		.cfi_offset 7, -4
  82 0002 00AF     		add	r7, sp, #0
  83              		.cfi_def_cfa_register 7
 108:.\Generated_Source\PSoC5/UART_1.c ****     #if(UART_1_RX_ENABLED || UART_1_HD_ENABLED)
 109:.\Generated_Source\PSoC5/UART_1.c **** 
 110:.\Generated_Source\PSoC5/UART_1.c ****         #if (UART_1_RX_INTERRUPT_ENABLED)
 111:.\Generated_Source\PSoC5/UART_1.c ****             /* Set RX interrupt vector and priority */
 112:.\Generated_Source\PSoC5/UART_1.c ****             (void) CyIntSetVector(UART_1_RX_VECT_NUM, &UART_1_RXISR);
 113:.\Generated_Source\PSoC5/UART_1.c ****             CyIntSetPriority(UART_1_RX_VECT_NUM, UART_1_RX_PRIOR_NUM);
 114:.\Generated_Source\PSoC5/UART_1.c ****             UART_1_errorStatus = 0u;
 115:.\Generated_Source\PSoC5/UART_1.c ****         #endif /* (UART_1_RX_INTERRUPT_ENABLED) */
 116:.\Generated_Source\PSoC5/UART_1.c **** 
 117:.\Generated_Source\PSoC5/UART_1.c ****         #if (UART_1_RXHW_ADDRESS_ENABLED)
 118:.\Generated_Source\PSoC5/UART_1.c ****             UART_1_SetRxAddressMode(UART_1_RX_ADDRESS_MODE);
 119:.\Generated_Source\PSoC5/UART_1.c ****             UART_1_SetRxAddress1(UART_1_RX_HW_ADDRESS1);
 120:.\Generated_Source\PSoC5/UART_1.c ****             UART_1_SetRxAddress2(UART_1_RX_HW_ADDRESS2);
 121:.\Generated_Source\PSoC5/UART_1.c ****         #endif /* End UART_1_RXHW_ADDRESS_ENABLED */
 122:.\Generated_Source\PSoC5/UART_1.c **** 
 123:.\Generated_Source\PSoC5/UART_1.c ****         /* Init Count7 period */
 124:.\Generated_Source\PSoC5/UART_1.c ****         UART_1_RXBITCTR_PERIOD_REG = UART_1_RXBITCTR_INIT;
  84              		.loc 1 124 0
  85 0004 094B     		ldr	r3, .L6
  86 0006 7222     		movs	r2, #114
  87 0008 1A70     		strb	r2, [r3]
 125:.\Generated_Source\PSoC5/UART_1.c ****         /* Configure the Initial RX interrupt mask */
 126:.\Generated_Source\PSoC5/UART_1.c ****         UART_1_RXSTATUS_MASK_REG  = UART_1_INIT_RX_INTERRUPTS_MASK;
  88              		.loc 1 126 0
  89 000a 094B     		ldr	r3, .L6+4
  90 000c 2022     		movs	r2, #32
  91 000e 1A70     		strb	r2, [r3]
 127:.\Generated_Source\PSoC5/UART_1.c ****     #endif /* End UART_1_RX_ENABLED || UART_1_HD_ENABLED*/
 128:.\Generated_Source\PSoC5/UART_1.c **** 
 129:.\Generated_Source\PSoC5/UART_1.c ****     #if(UART_1_TX_ENABLED)
 130:.\Generated_Source\PSoC5/UART_1.c ****         #if (UART_1_TX_INTERRUPT_ENABLED)
 131:.\Generated_Source\PSoC5/UART_1.c ****             /* Set TX interrupt vector and priority */
 132:.\Generated_Source\PSoC5/UART_1.c ****             (void) CyIntSetVector(UART_1_TX_VECT_NUM, &UART_1_TXISR);
 133:.\Generated_Source\PSoC5/UART_1.c ****             CyIntSetPriority(UART_1_TX_VECT_NUM, UART_1_TX_PRIOR_NUM);
 134:.\Generated_Source\PSoC5/UART_1.c ****         #endif /* (UART_1_TX_INTERRUPT_ENABLED) */
 135:.\Generated_Source\PSoC5/UART_1.c **** 
 136:.\Generated_Source\PSoC5/UART_1.c ****         /* Write Counter Value for TX Bit Clk Generator*/
 137:.\Generated_Source\PSoC5/UART_1.c ****         #if (UART_1_TXCLKGEN_DP)
ARM GAS  C:\Users\Charlie\AppData\Local\Temp\cc6egklb.s 			page 5


 138:.\Generated_Source\PSoC5/UART_1.c ****             UART_1_TXBITCLKGEN_CTR_REG = UART_1_BIT_CENTER;
  92              		.loc 1 138 0
  93 0010 084B     		ldr	r3, .L6+8
  94 0012 0622     		movs	r2, #6
  95 0014 1A70     		strb	r2, [r3]
 139:.\Generated_Source\PSoC5/UART_1.c ****             UART_1_TXBITCLKTX_COMPLETE_REG = ((UART_1_NUMBER_OF_DATA_BITS +
  96              		.loc 1 139 0
  97 0016 084B     		ldr	r3, .L6+12
  98 0018 4722     		movs	r2, #71
  99 001a 1A70     		strb	r2, [r3]
 140:.\Generated_Source\PSoC5/UART_1.c ****                         UART_1_NUMBER_OF_START_BIT) * UART_1_OVER_SAMPLE_COUNT) - 1u;
 141:.\Generated_Source\PSoC5/UART_1.c ****         #else
 142:.\Generated_Source\PSoC5/UART_1.c ****             UART_1_TXBITCTR_PERIOD_REG = ((UART_1_NUMBER_OF_DATA_BITS +
 143:.\Generated_Source\PSoC5/UART_1.c ****                         UART_1_NUMBER_OF_START_BIT) * UART_1_OVER_SAMPLE_8) - 1u;
 144:.\Generated_Source\PSoC5/UART_1.c ****         #endif /* End UART_1_TXCLKGEN_DP */
 145:.\Generated_Source\PSoC5/UART_1.c **** 
 146:.\Generated_Source\PSoC5/UART_1.c ****         /* Configure the Initial TX interrupt mask */
 147:.\Generated_Source\PSoC5/UART_1.c ****         #if (UART_1_TX_INTERRUPT_ENABLED)
 148:.\Generated_Source\PSoC5/UART_1.c ****             UART_1_TXSTATUS_MASK_REG = UART_1_TX_STS_FIFO_EMPTY;
 149:.\Generated_Source\PSoC5/UART_1.c ****         #else
 150:.\Generated_Source\PSoC5/UART_1.c ****             UART_1_TXSTATUS_MASK_REG = UART_1_INIT_TX_INTERRUPTS_MASK;
 100              		.loc 1 150 0
 101 001c 074B     		ldr	r3, .L6+16
 102 001e 0022     		movs	r2, #0
 103 0020 1A70     		strb	r2, [r3]
 151:.\Generated_Source\PSoC5/UART_1.c ****         #endif /*End UART_1_TX_INTERRUPT_ENABLED*/
 152:.\Generated_Source\PSoC5/UART_1.c **** 
 153:.\Generated_Source\PSoC5/UART_1.c ****     #endif /* End UART_1_TX_ENABLED */
 154:.\Generated_Source\PSoC5/UART_1.c **** 
 155:.\Generated_Source\PSoC5/UART_1.c ****     #if(UART_1_PARITY_TYPE_SW)  /* Write Parity to Control Register */
 156:.\Generated_Source\PSoC5/UART_1.c ****         UART_1_WriteControlRegister( \
 157:.\Generated_Source\PSoC5/UART_1.c ****             (UART_1_ReadControlRegister() & (uint8)~UART_1_CTRL_PARITY_TYPE_MASK) | \
 158:.\Generated_Source\PSoC5/UART_1.c ****             (uint8)(UART_1_PARITY_TYPE << UART_1_CTRL_PARITY_TYPE0_SHIFT) );
 159:.\Generated_Source\PSoC5/UART_1.c ****     #endif /* End UART_1_PARITY_TYPE_SW */
 160:.\Generated_Source\PSoC5/UART_1.c **** }
 104              		.loc 1 160 0
 105 0022 BD46     		mov	sp, r7
 106              		@ sp needed
 107 0024 5DF8047B 		ldr	r7, [sp], #4
 108 0028 7047     		bx	lr
 109              	.L7:
 110 002a 00BF     		.align	2
 111              	.L6:
 112 002c 89650040 		.word	1073767817
 113 0030 88640040 		.word	1073767560
 114 0034 27650040 		.word	1073767719
 115 0038 37650040 		.word	1073767735
 116 003c 84650040 		.word	1073767812
 117              		.cfi_endproc
 118              	.LFE1:
 119              		.size	UART_1_Init, .-UART_1_Init
 120              		.section	.text.UART_1_Enable,"ax",%progbits
 121              		.align	2
 122              		.global	UART_1_Enable
 123              		.thumb
 124              		.thumb_func
 125              		.type	UART_1_Enable, %function
ARM GAS  C:\Users\Charlie\AppData\Local\Temp\cc6egklb.s 			page 6


 126              	UART_1_Enable:
 127              	.LFB2:
 161:.\Generated_Source\PSoC5/UART_1.c **** 
 162:.\Generated_Source\PSoC5/UART_1.c **** 
 163:.\Generated_Source\PSoC5/UART_1.c **** /*******************************************************************************
 164:.\Generated_Source\PSoC5/UART_1.c **** * Function Name: UART_1_Enable
 165:.\Generated_Source\PSoC5/UART_1.c **** ********************************************************************************
 166:.\Generated_Source\PSoC5/UART_1.c **** *
 167:.\Generated_Source\PSoC5/UART_1.c **** * Summary:
 168:.\Generated_Source\PSoC5/UART_1.c **** *  Activates the hardware and begins component operation. It is not necessary
 169:.\Generated_Source\PSoC5/UART_1.c **** *  to call UART_1_Enable() because the UART_1_Start() API
 170:.\Generated_Source\PSoC5/UART_1.c **** *  calls this function, which is the preferred method to begin component
 171:.\Generated_Source\PSoC5/UART_1.c **** *  operation.
 172:.\Generated_Source\PSoC5/UART_1.c **** 
 173:.\Generated_Source\PSoC5/UART_1.c **** * Parameters:
 174:.\Generated_Source\PSoC5/UART_1.c **** *  None.
 175:.\Generated_Source\PSoC5/UART_1.c **** *
 176:.\Generated_Source\PSoC5/UART_1.c **** * Return:
 177:.\Generated_Source\PSoC5/UART_1.c **** *  None.
 178:.\Generated_Source\PSoC5/UART_1.c **** *
 179:.\Generated_Source\PSoC5/UART_1.c **** * Global Variables:
 180:.\Generated_Source\PSoC5/UART_1.c **** *  UART_1_rxAddressDetected - set to initial state (0).
 181:.\Generated_Source\PSoC5/UART_1.c **** *
 182:.\Generated_Source\PSoC5/UART_1.c **** *******************************************************************************/
 183:.\Generated_Source\PSoC5/UART_1.c **** void UART_1_Enable(void) 
 184:.\Generated_Source\PSoC5/UART_1.c **** {
 128              		.loc 1 184 0
 129              		.cfi_startproc
 130              		@ args = 0, pretend = 0, frame = 8
 131              		@ frame_needed = 1, uses_anonymous_args = 0
 132 0000 80B5     		push	{r7, lr}
 133              		.cfi_def_cfa_offset 8
 134              		.cfi_offset 7, -8
 135              		.cfi_offset 14, -4
 136 0002 82B0     		sub	sp, sp, #8
 137              		.cfi_def_cfa_offset 16
 138 0004 00AF     		add	r7, sp, #0
 139              		.cfi_def_cfa_register 7
 185:.\Generated_Source\PSoC5/UART_1.c ****     uint8 enableInterrupts;
 186:.\Generated_Source\PSoC5/UART_1.c ****     enableInterrupts = CyEnterCriticalSection();
 140              		.loc 1 186 0
 141 0006 FFF7FEFF 		bl	CyEnterCriticalSection
 142 000a 0346     		mov	r3, r0
 143 000c FB71     		strb	r3, [r7, #7]
 187:.\Generated_Source\PSoC5/UART_1.c **** 
 188:.\Generated_Source\PSoC5/UART_1.c ****     #if (UART_1_RX_ENABLED || UART_1_HD_ENABLED)
 189:.\Generated_Source\PSoC5/UART_1.c ****         /* RX Counter (Count7) Enable */
 190:.\Generated_Source\PSoC5/UART_1.c ****         UART_1_RXBITCTR_CONTROL_REG |= UART_1_CNTR_ENABLE;
 144              		.loc 1 190 0
 145 000e 104B     		ldr	r3, .L9
 146 0010 0F4A     		ldr	r2, .L9
 147 0012 1278     		ldrb	r2, [r2]
 148 0014 D2B2     		uxtb	r2, r2
 149 0016 42F02002 		orr	r2, r2, #32
 150 001a D2B2     		uxtb	r2, r2
 151 001c 1A70     		strb	r2, [r3]
 191:.\Generated_Source\PSoC5/UART_1.c **** 
ARM GAS  C:\Users\Charlie\AppData\Local\Temp\cc6egklb.s 			page 7


 192:.\Generated_Source\PSoC5/UART_1.c ****         /* Enable the RX Interrupt */
 193:.\Generated_Source\PSoC5/UART_1.c ****         UART_1_RXSTATUS_ACTL_REG  |= UART_1_INT_ENABLE;
 152              		.loc 1 193 0
 153 001e 0D4B     		ldr	r3, .L9+4
 154 0020 0C4A     		ldr	r2, .L9+4
 155 0022 1278     		ldrb	r2, [r2]
 156 0024 D2B2     		uxtb	r2, r2
 157 0026 42F01002 		orr	r2, r2, #16
 158 002a D2B2     		uxtb	r2, r2
 159 002c 1A70     		strb	r2, [r3]
 194:.\Generated_Source\PSoC5/UART_1.c **** 
 195:.\Generated_Source\PSoC5/UART_1.c ****         #if (UART_1_RX_INTERRUPT_ENABLED)
 196:.\Generated_Source\PSoC5/UART_1.c ****             UART_1_EnableRxInt();
 197:.\Generated_Source\PSoC5/UART_1.c **** 
 198:.\Generated_Source\PSoC5/UART_1.c ****             #if (UART_1_RXHW_ADDRESS_ENABLED)
 199:.\Generated_Source\PSoC5/UART_1.c ****                 UART_1_rxAddressDetected = 0u;
 200:.\Generated_Source\PSoC5/UART_1.c ****             #endif /* (UART_1_RXHW_ADDRESS_ENABLED) */
 201:.\Generated_Source\PSoC5/UART_1.c ****         #endif /* (UART_1_RX_INTERRUPT_ENABLED) */
 202:.\Generated_Source\PSoC5/UART_1.c ****     #endif /* (UART_1_RX_ENABLED || UART_1_HD_ENABLED) */
 203:.\Generated_Source\PSoC5/UART_1.c **** 
 204:.\Generated_Source\PSoC5/UART_1.c ****     #if(UART_1_TX_ENABLED)
 205:.\Generated_Source\PSoC5/UART_1.c ****         /* TX Counter (DP/Count7) Enable */
 206:.\Generated_Source\PSoC5/UART_1.c ****         #if(!UART_1_TXCLKGEN_DP)
 207:.\Generated_Source\PSoC5/UART_1.c ****             UART_1_TXBITCTR_CONTROL_REG |= UART_1_CNTR_ENABLE;
 208:.\Generated_Source\PSoC5/UART_1.c ****         #endif /* End UART_1_TXCLKGEN_DP */
 209:.\Generated_Source\PSoC5/UART_1.c **** 
 210:.\Generated_Source\PSoC5/UART_1.c ****         /* Enable the TX Interrupt */
 211:.\Generated_Source\PSoC5/UART_1.c ****         UART_1_TXSTATUS_ACTL_REG |= UART_1_INT_ENABLE;
 160              		.loc 1 211 0
 161 002e 0A4B     		ldr	r3, .L9+8
 162 0030 094A     		ldr	r2, .L9+8
 163 0032 1278     		ldrb	r2, [r2]
 164 0034 D2B2     		uxtb	r2, r2
 165 0036 42F01002 		orr	r2, r2, #16
 166 003a D2B2     		uxtb	r2, r2
 167 003c 1A70     		strb	r2, [r3]
 212:.\Generated_Source\PSoC5/UART_1.c ****         #if (UART_1_TX_INTERRUPT_ENABLED)
 213:.\Generated_Source\PSoC5/UART_1.c ****             UART_1_ClearPendingTxInt(); /* Clear history of TX_NOT_EMPTY */
 214:.\Generated_Source\PSoC5/UART_1.c ****             UART_1_EnableTxInt();
 215:.\Generated_Source\PSoC5/UART_1.c ****         #endif /* (UART_1_TX_INTERRUPT_ENABLED) */
 216:.\Generated_Source\PSoC5/UART_1.c ****      #endif /* (UART_1_TX_INTERRUPT_ENABLED) */
 217:.\Generated_Source\PSoC5/UART_1.c **** 
 218:.\Generated_Source\PSoC5/UART_1.c ****     #if (UART_1_INTERNAL_CLOCK_USED)
 219:.\Generated_Source\PSoC5/UART_1.c ****         UART_1_IntClock_Start();  /* Enable the clock */
 168              		.loc 1 219 0
 169 003e FFF7FEFF 		bl	UART_1_IntClock_Start
 220:.\Generated_Source\PSoC5/UART_1.c ****     #endif /* (UART_1_INTERNAL_CLOCK_USED) */
 221:.\Generated_Source\PSoC5/UART_1.c **** 
 222:.\Generated_Source\PSoC5/UART_1.c ****     CyExitCriticalSection(enableInterrupts);
 170              		.loc 1 222 0
 171 0042 FB79     		ldrb	r3, [r7, #7]	@ zero_extendqisi2
 172 0044 1846     		mov	r0, r3
 173 0046 FFF7FEFF 		bl	CyExitCriticalSection
 223:.\Generated_Source\PSoC5/UART_1.c **** }
 174              		.loc 1 223 0
 175 004a 0837     		adds	r7, r7, #8
 176 004c BD46     		mov	sp, r7
ARM GAS  C:\Users\Charlie\AppData\Local\Temp\cc6egklb.s 			page 8


 177              		@ sp needed
 178 004e 80BD     		pop	{r7, pc}
 179              	.L10:
 180              		.align	2
 181              	.L9:
 182 0050 99650040 		.word	1073767833
 183 0054 98640040 		.word	1073767576
 184 0058 94650040 		.word	1073767828
 185              		.cfi_endproc
 186              	.LFE2:
 187              		.size	UART_1_Enable, .-UART_1_Enable
 188              		.section	.text.UART_1_Stop,"ax",%progbits
 189              		.align	2
 190              		.global	UART_1_Stop
 191              		.thumb
 192              		.thumb_func
 193              		.type	UART_1_Stop, %function
 194              	UART_1_Stop:
 195              	.LFB3:
 224:.\Generated_Source\PSoC5/UART_1.c **** 
 225:.\Generated_Source\PSoC5/UART_1.c **** 
 226:.\Generated_Source\PSoC5/UART_1.c **** /*******************************************************************************
 227:.\Generated_Source\PSoC5/UART_1.c **** * Function Name: UART_1_Stop
 228:.\Generated_Source\PSoC5/UART_1.c **** ********************************************************************************
 229:.\Generated_Source\PSoC5/UART_1.c **** *
 230:.\Generated_Source\PSoC5/UART_1.c **** * Summary:
 231:.\Generated_Source\PSoC5/UART_1.c **** *  Disables the UART operation.
 232:.\Generated_Source\PSoC5/UART_1.c **** *
 233:.\Generated_Source\PSoC5/UART_1.c **** * Parameters:
 234:.\Generated_Source\PSoC5/UART_1.c **** *  None.
 235:.\Generated_Source\PSoC5/UART_1.c **** *
 236:.\Generated_Source\PSoC5/UART_1.c **** * Return:
 237:.\Generated_Source\PSoC5/UART_1.c **** *  None.
 238:.\Generated_Source\PSoC5/UART_1.c **** *
 239:.\Generated_Source\PSoC5/UART_1.c **** *******************************************************************************/
 240:.\Generated_Source\PSoC5/UART_1.c **** void UART_1_Stop(void) 
 241:.\Generated_Source\PSoC5/UART_1.c **** {
 196              		.loc 1 241 0
 197              		.cfi_startproc
 198              		@ args = 0, pretend = 0, frame = 8
 199              		@ frame_needed = 1, uses_anonymous_args = 0
 200 0000 80B5     		push	{r7, lr}
 201              		.cfi_def_cfa_offset 8
 202              		.cfi_offset 7, -8
 203              		.cfi_offset 14, -4
 204 0002 82B0     		sub	sp, sp, #8
 205              		.cfi_def_cfa_offset 16
 206 0004 00AF     		add	r7, sp, #0
 207              		.cfi_def_cfa_register 7
 242:.\Generated_Source\PSoC5/UART_1.c ****     uint8 enableInterrupts;
 243:.\Generated_Source\PSoC5/UART_1.c ****     enableInterrupts = CyEnterCriticalSection();
 208              		.loc 1 243 0
 209 0006 FFF7FEFF 		bl	CyEnterCriticalSection
 210 000a 0346     		mov	r3, r0
 211 000c FB71     		strb	r3, [r7, #7]
 244:.\Generated_Source\PSoC5/UART_1.c **** 
 245:.\Generated_Source\PSoC5/UART_1.c ****     /* Write Bit Counter Disable */
ARM GAS  C:\Users\Charlie\AppData\Local\Temp\cc6egklb.s 			page 9


 246:.\Generated_Source\PSoC5/UART_1.c ****     #if (UART_1_RX_ENABLED || UART_1_HD_ENABLED)
 247:.\Generated_Source\PSoC5/UART_1.c ****         UART_1_RXBITCTR_CONTROL_REG &= (uint8) ~UART_1_CNTR_ENABLE;
 212              		.loc 1 247 0
 213 000e 104B     		ldr	r3, .L12
 214 0010 0F4A     		ldr	r2, .L12
 215 0012 1278     		ldrb	r2, [r2]
 216 0014 D2B2     		uxtb	r2, r2
 217 0016 22F02002 		bic	r2, r2, #32
 218 001a D2B2     		uxtb	r2, r2
 219 001c 1A70     		strb	r2, [r3]
 248:.\Generated_Source\PSoC5/UART_1.c ****     #endif /* (UART_1_RX_ENABLED || UART_1_HD_ENABLED) */
 249:.\Generated_Source\PSoC5/UART_1.c **** 
 250:.\Generated_Source\PSoC5/UART_1.c ****     #if (UART_1_TX_ENABLED)
 251:.\Generated_Source\PSoC5/UART_1.c ****         #if(!UART_1_TXCLKGEN_DP)
 252:.\Generated_Source\PSoC5/UART_1.c ****             UART_1_TXBITCTR_CONTROL_REG &= (uint8) ~UART_1_CNTR_ENABLE;
 253:.\Generated_Source\PSoC5/UART_1.c ****         #endif /* (!UART_1_TXCLKGEN_DP) */
 254:.\Generated_Source\PSoC5/UART_1.c ****     #endif /* (UART_1_TX_ENABLED) */
 255:.\Generated_Source\PSoC5/UART_1.c **** 
 256:.\Generated_Source\PSoC5/UART_1.c ****     #if (UART_1_INTERNAL_CLOCK_USED)
 257:.\Generated_Source\PSoC5/UART_1.c ****         UART_1_IntClock_Stop();   /* Disable the clock */
 220              		.loc 1 257 0
 221 001e FFF7FEFF 		bl	UART_1_IntClock_Stop
 258:.\Generated_Source\PSoC5/UART_1.c ****     #endif /* (UART_1_INTERNAL_CLOCK_USED) */
 259:.\Generated_Source\PSoC5/UART_1.c **** 
 260:.\Generated_Source\PSoC5/UART_1.c ****     /* Disable internal interrupt component */
 261:.\Generated_Source\PSoC5/UART_1.c ****     #if (UART_1_RX_ENABLED || UART_1_HD_ENABLED)
 262:.\Generated_Source\PSoC5/UART_1.c ****         UART_1_RXSTATUS_ACTL_REG  &= (uint8) ~UART_1_INT_ENABLE;
 222              		.loc 1 262 0
 223 0022 0C4B     		ldr	r3, .L12+4
 224 0024 0B4A     		ldr	r2, .L12+4
 225 0026 1278     		ldrb	r2, [r2]
 226 0028 D2B2     		uxtb	r2, r2
 227 002a 22F01002 		bic	r2, r2, #16
 228 002e D2B2     		uxtb	r2, r2
 229 0030 1A70     		strb	r2, [r3]
 263:.\Generated_Source\PSoC5/UART_1.c **** 
 264:.\Generated_Source\PSoC5/UART_1.c ****         #if (UART_1_RX_INTERRUPT_ENABLED)
 265:.\Generated_Source\PSoC5/UART_1.c ****             UART_1_DisableRxInt();
 266:.\Generated_Source\PSoC5/UART_1.c ****         #endif /* (UART_1_RX_INTERRUPT_ENABLED) */
 267:.\Generated_Source\PSoC5/UART_1.c ****     #endif /* (UART_1_RX_ENABLED || UART_1_HD_ENABLED) */
 268:.\Generated_Source\PSoC5/UART_1.c **** 
 269:.\Generated_Source\PSoC5/UART_1.c ****     #if (UART_1_TX_ENABLED)
 270:.\Generated_Source\PSoC5/UART_1.c ****         UART_1_TXSTATUS_ACTL_REG &= (uint8) ~UART_1_INT_ENABLE;
 230              		.loc 1 270 0
 231 0032 094B     		ldr	r3, .L12+8
 232 0034 084A     		ldr	r2, .L12+8
 233 0036 1278     		ldrb	r2, [r2]
 234 0038 D2B2     		uxtb	r2, r2
 235 003a 22F01002 		bic	r2, r2, #16
 236 003e D2B2     		uxtb	r2, r2
 237 0040 1A70     		strb	r2, [r3]
 271:.\Generated_Source\PSoC5/UART_1.c **** 
 272:.\Generated_Source\PSoC5/UART_1.c ****         #if (UART_1_TX_INTERRUPT_ENABLED)
 273:.\Generated_Source\PSoC5/UART_1.c ****             UART_1_DisableTxInt();
 274:.\Generated_Source\PSoC5/UART_1.c ****         #endif /* (UART_1_TX_INTERRUPT_ENABLED) */
 275:.\Generated_Source\PSoC5/UART_1.c ****     #endif /* (UART_1_TX_ENABLED) */
 276:.\Generated_Source\PSoC5/UART_1.c **** 
ARM GAS  C:\Users\Charlie\AppData\Local\Temp\cc6egklb.s 			page 10


 277:.\Generated_Source\PSoC5/UART_1.c ****     CyExitCriticalSection(enableInterrupts);
 238              		.loc 1 277 0
 239 0042 FB79     		ldrb	r3, [r7, #7]	@ zero_extendqisi2
 240 0044 1846     		mov	r0, r3
 241 0046 FFF7FEFF 		bl	CyExitCriticalSection
 278:.\Generated_Source\PSoC5/UART_1.c **** }
 242              		.loc 1 278 0
 243 004a 0837     		adds	r7, r7, #8
 244 004c BD46     		mov	sp, r7
 245              		@ sp needed
 246 004e 80BD     		pop	{r7, pc}
 247              	.L13:
 248              		.align	2
 249              	.L12:
 250 0050 99650040 		.word	1073767833
 251 0054 98640040 		.word	1073767576
 252 0058 94650040 		.word	1073767828
 253              		.cfi_endproc
 254              	.LFE3:
 255              		.size	UART_1_Stop, .-UART_1_Stop
 256              		.section	.text.UART_1_ReadControlRegister,"ax",%progbits
 257              		.align	2
 258              		.global	UART_1_ReadControlRegister
 259              		.thumb
 260              		.thumb_func
 261              		.type	UART_1_ReadControlRegister, %function
 262              	UART_1_ReadControlRegister:
 263              	.LFB4:
 279:.\Generated_Source\PSoC5/UART_1.c **** 
 280:.\Generated_Source\PSoC5/UART_1.c **** 
 281:.\Generated_Source\PSoC5/UART_1.c **** /*******************************************************************************
 282:.\Generated_Source\PSoC5/UART_1.c **** * Function Name: UART_1_ReadControlRegister
 283:.\Generated_Source\PSoC5/UART_1.c **** ********************************************************************************
 284:.\Generated_Source\PSoC5/UART_1.c **** *
 285:.\Generated_Source\PSoC5/UART_1.c **** * Summary:
 286:.\Generated_Source\PSoC5/UART_1.c **** *  Returns the current value of the control register.
 287:.\Generated_Source\PSoC5/UART_1.c **** *
 288:.\Generated_Source\PSoC5/UART_1.c **** * Parameters:
 289:.\Generated_Source\PSoC5/UART_1.c **** *  None.
 290:.\Generated_Source\PSoC5/UART_1.c **** *
 291:.\Generated_Source\PSoC5/UART_1.c **** * Return:
 292:.\Generated_Source\PSoC5/UART_1.c **** *  Contents of the control register.
 293:.\Generated_Source\PSoC5/UART_1.c **** *
 294:.\Generated_Source\PSoC5/UART_1.c **** *******************************************************************************/
 295:.\Generated_Source\PSoC5/UART_1.c **** uint8 UART_1_ReadControlRegister(void) 
 296:.\Generated_Source\PSoC5/UART_1.c **** {
 264              		.loc 1 296 0
 265              		.cfi_startproc
 266              		@ args = 0, pretend = 0, frame = 0
 267              		@ frame_needed = 1, uses_anonymous_args = 0
 268              		@ link register save eliminated.
 269 0000 80B4     		push	{r7}
 270              		.cfi_def_cfa_offset 4
 271              		.cfi_offset 7, -4
 272 0002 00AF     		add	r7, sp, #0
 273              		.cfi_def_cfa_register 7
 297:.\Generated_Source\PSoC5/UART_1.c ****     #if (UART_1_CONTROL_REG_REMOVED)
ARM GAS  C:\Users\Charlie\AppData\Local\Temp\cc6egklb.s 			page 11


 298:.\Generated_Source\PSoC5/UART_1.c ****         return(0u);
 274              		.loc 1 298 0
 275 0004 0023     		movs	r3, #0
 299:.\Generated_Source\PSoC5/UART_1.c ****     #else
 300:.\Generated_Source\PSoC5/UART_1.c ****         return(UART_1_CONTROL_REG);
 301:.\Generated_Source\PSoC5/UART_1.c ****     #endif /* (UART_1_CONTROL_REG_REMOVED) */
 302:.\Generated_Source\PSoC5/UART_1.c **** }
 276              		.loc 1 302 0
 277 0006 1846     		mov	r0, r3
 278 0008 BD46     		mov	sp, r7
 279              		@ sp needed
 280 000a 5DF8047B 		ldr	r7, [sp], #4
 281 000e 7047     		bx	lr
 282              		.cfi_endproc
 283              	.LFE4:
 284              		.size	UART_1_ReadControlRegister, .-UART_1_ReadControlRegister
 285              		.section	.text.UART_1_WriteControlRegister,"ax",%progbits
 286              		.align	2
 287              		.global	UART_1_WriteControlRegister
 288              		.thumb
 289              		.thumb_func
 290              		.type	UART_1_WriteControlRegister, %function
 291              	UART_1_WriteControlRegister:
 292              	.LFB5:
 303:.\Generated_Source\PSoC5/UART_1.c **** 
 304:.\Generated_Source\PSoC5/UART_1.c **** 
 305:.\Generated_Source\PSoC5/UART_1.c **** /*******************************************************************************
 306:.\Generated_Source\PSoC5/UART_1.c **** * Function Name: UART_1_WriteControlRegister
 307:.\Generated_Source\PSoC5/UART_1.c **** ********************************************************************************
 308:.\Generated_Source\PSoC5/UART_1.c **** *
 309:.\Generated_Source\PSoC5/UART_1.c **** * Summary:
 310:.\Generated_Source\PSoC5/UART_1.c **** *  Writes an 8-bit value into the control register
 311:.\Generated_Source\PSoC5/UART_1.c **** *
 312:.\Generated_Source\PSoC5/UART_1.c **** * Parameters:
 313:.\Generated_Source\PSoC5/UART_1.c **** *  control:  control register value
 314:.\Generated_Source\PSoC5/UART_1.c **** *
 315:.\Generated_Source\PSoC5/UART_1.c **** * Return:
 316:.\Generated_Source\PSoC5/UART_1.c **** *  None.
 317:.\Generated_Source\PSoC5/UART_1.c **** *
 318:.\Generated_Source\PSoC5/UART_1.c **** *******************************************************************************/
 319:.\Generated_Source\PSoC5/UART_1.c **** void  UART_1_WriteControlRegister(uint8 control) 
 320:.\Generated_Source\PSoC5/UART_1.c **** {
 293              		.loc 1 320 0
 294              		.cfi_startproc
 295              		@ args = 0, pretend = 0, frame = 8
 296              		@ frame_needed = 1, uses_anonymous_args = 0
 297              		@ link register save eliminated.
 298 0000 80B4     		push	{r7}
 299              		.cfi_def_cfa_offset 4
 300              		.cfi_offset 7, -4
 301 0002 83B0     		sub	sp, sp, #12
 302              		.cfi_def_cfa_offset 16
 303 0004 00AF     		add	r7, sp, #0
 304              		.cfi_def_cfa_register 7
 305 0006 0346     		mov	r3, r0
 306 0008 FB71     		strb	r3, [r7, #7]
 321:.\Generated_Source\PSoC5/UART_1.c ****     #if (UART_1_CONTROL_REG_REMOVED)
ARM GAS  C:\Users\Charlie\AppData\Local\Temp\cc6egklb.s 			page 12


 322:.\Generated_Source\PSoC5/UART_1.c ****         if(0u != control)
 323:.\Generated_Source\PSoC5/UART_1.c ****         {
 324:.\Generated_Source\PSoC5/UART_1.c ****             /* Suppress compiler warning */
 325:.\Generated_Source\PSoC5/UART_1.c ****         }
 326:.\Generated_Source\PSoC5/UART_1.c ****     #else
 327:.\Generated_Source\PSoC5/UART_1.c ****        UART_1_CONTROL_REG = control;
 328:.\Generated_Source\PSoC5/UART_1.c ****     #endif /* (UART_1_CONTROL_REG_REMOVED) */
 329:.\Generated_Source\PSoC5/UART_1.c **** }
 307              		.loc 1 329 0
 308 000a 0C37     		adds	r7, r7, #12
 309 000c BD46     		mov	sp, r7
 310              		@ sp needed
 311 000e 5DF8047B 		ldr	r7, [sp], #4
 312 0012 7047     		bx	lr
 313              		.cfi_endproc
 314              	.LFE5:
 315              		.size	UART_1_WriteControlRegister, .-UART_1_WriteControlRegister
 316              		.section	.text.UART_1_SetRxInterruptMode,"ax",%progbits
 317              		.align	2
 318              		.global	UART_1_SetRxInterruptMode
 319              		.thumb
 320              		.thumb_func
 321              		.type	UART_1_SetRxInterruptMode, %function
 322              	UART_1_SetRxInterruptMode:
 323              	.LFB6:
 330:.\Generated_Source\PSoC5/UART_1.c **** 
 331:.\Generated_Source\PSoC5/UART_1.c **** 
 332:.\Generated_Source\PSoC5/UART_1.c **** #if(UART_1_RX_ENABLED || UART_1_HD_ENABLED)
 333:.\Generated_Source\PSoC5/UART_1.c ****     /*******************************************************************************
 334:.\Generated_Source\PSoC5/UART_1.c ****     * Function Name: UART_1_SetRxInterruptMode
 335:.\Generated_Source\PSoC5/UART_1.c ****     ********************************************************************************
 336:.\Generated_Source\PSoC5/UART_1.c ****     *
 337:.\Generated_Source\PSoC5/UART_1.c ****     * Summary:
 338:.\Generated_Source\PSoC5/UART_1.c ****     *  Configures the RX interrupt sources enabled.
 339:.\Generated_Source\PSoC5/UART_1.c ****     *
 340:.\Generated_Source\PSoC5/UART_1.c ****     * Parameters:
 341:.\Generated_Source\PSoC5/UART_1.c ****     *  IntSrc:  Bit field containing the RX interrupts to enable. Based on the 
 342:.\Generated_Source\PSoC5/UART_1.c ****     *  bit-field arrangement of the status register. This value must be a 
 343:.\Generated_Source\PSoC5/UART_1.c ****     *  combination of status register bit-masks shown below:
 344:.\Generated_Source\PSoC5/UART_1.c ****     *      UART_1_RX_STS_FIFO_NOTEMPTY    Interrupt on byte received.
 345:.\Generated_Source\PSoC5/UART_1.c ****     *      UART_1_RX_STS_PAR_ERROR        Interrupt on parity error.
 346:.\Generated_Source\PSoC5/UART_1.c ****     *      UART_1_RX_STS_STOP_ERROR       Interrupt on stop error.
 347:.\Generated_Source\PSoC5/UART_1.c ****     *      UART_1_RX_STS_BREAK            Interrupt on break.
 348:.\Generated_Source\PSoC5/UART_1.c ****     *      UART_1_RX_STS_OVERRUN          Interrupt on overrun error.
 349:.\Generated_Source\PSoC5/UART_1.c ****     *      UART_1_RX_STS_ADDR_MATCH       Interrupt on address match.
 350:.\Generated_Source\PSoC5/UART_1.c ****     *      UART_1_RX_STS_MRKSPC           Interrupt on address detect.
 351:.\Generated_Source\PSoC5/UART_1.c ****     *
 352:.\Generated_Source\PSoC5/UART_1.c ****     * Return:
 353:.\Generated_Source\PSoC5/UART_1.c ****     *  None.
 354:.\Generated_Source\PSoC5/UART_1.c ****     *
 355:.\Generated_Source\PSoC5/UART_1.c ****     * Theory:
 356:.\Generated_Source\PSoC5/UART_1.c ****     *  Enables the output of specific status bits to the interrupt controller
 357:.\Generated_Source\PSoC5/UART_1.c ****     *
 358:.\Generated_Source\PSoC5/UART_1.c ****     *******************************************************************************/
 359:.\Generated_Source\PSoC5/UART_1.c ****     void UART_1_SetRxInterruptMode(uint8 intSrc) 
 360:.\Generated_Source\PSoC5/UART_1.c ****     {
 324              		.loc 1 360 0
ARM GAS  C:\Users\Charlie\AppData\Local\Temp\cc6egklb.s 			page 13


 325              		.cfi_startproc
 326              		@ args = 0, pretend = 0, frame = 8
 327              		@ frame_needed = 1, uses_anonymous_args = 0
 328              		@ link register save eliminated.
 329 0000 80B4     		push	{r7}
 330              		.cfi_def_cfa_offset 4
 331              		.cfi_offset 7, -4
 332 0002 83B0     		sub	sp, sp, #12
 333              		.cfi_def_cfa_offset 16
 334 0004 00AF     		add	r7, sp, #0
 335              		.cfi_def_cfa_register 7
 336 0006 0346     		mov	r3, r0
 337 0008 FB71     		strb	r3, [r7, #7]
 361:.\Generated_Source\PSoC5/UART_1.c ****         UART_1_RXSTATUS_MASK_REG  = intSrc;
 338              		.loc 1 361 0
 339 000a 044B     		ldr	r3, .L18
 340 000c FA79     		ldrb	r2, [r7, #7]
 341 000e 1A70     		strb	r2, [r3]
 362:.\Generated_Source\PSoC5/UART_1.c ****     }
 342              		.loc 1 362 0
 343 0010 0C37     		adds	r7, r7, #12
 344 0012 BD46     		mov	sp, r7
 345              		@ sp needed
 346 0014 5DF8047B 		ldr	r7, [sp], #4
 347 0018 7047     		bx	lr
 348              	.L19:
 349 001a 00BF     		.align	2
 350              	.L18:
 351 001c 88640040 		.word	1073767560
 352              		.cfi_endproc
 353              	.LFE6:
 354              		.size	UART_1_SetRxInterruptMode, .-UART_1_SetRxInterruptMode
 355              		.section	.text.UART_1_ReadRxData,"ax",%progbits
 356              		.align	2
 357              		.global	UART_1_ReadRxData
 358              		.thumb
 359              		.thumb_func
 360              		.type	UART_1_ReadRxData, %function
 361              	UART_1_ReadRxData:
 362              	.LFB7:
 363:.\Generated_Source\PSoC5/UART_1.c **** 
 364:.\Generated_Source\PSoC5/UART_1.c **** 
 365:.\Generated_Source\PSoC5/UART_1.c ****     /*******************************************************************************
 366:.\Generated_Source\PSoC5/UART_1.c ****     * Function Name: UART_1_ReadRxData
 367:.\Generated_Source\PSoC5/UART_1.c ****     ********************************************************************************
 368:.\Generated_Source\PSoC5/UART_1.c ****     *
 369:.\Generated_Source\PSoC5/UART_1.c ****     * Summary:
 370:.\Generated_Source\PSoC5/UART_1.c ****     *  Returns the next byte of received data. This function returns data without
 371:.\Generated_Source\PSoC5/UART_1.c ****     *  checking the status. You must check the status separately.
 372:.\Generated_Source\PSoC5/UART_1.c ****     *
 373:.\Generated_Source\PSoC5/UART_1.c ****     * Parameters:
 374:.\Generated_Source\PSoC5/UART_1.c ****     *  None.
 375:.\Generated_Source\PSoC5/UART_1.c ****     *
 376:.\Generated_Source\PSoC5/UART_1.c ****     * Return:
 377:.\Generated_Source\PSoC5/UART_1.c ****     *  Received data from RX register
 378:.\Generated_Source\PSoC5/UART_1.c ****     *
 379:.\Generated_Source\PSoC5/UART_1.c ****     * Global Variables:
ARM GAS  C:\Users\Charlie\AppData\Local\Temp\cc6egklb.s 			page 14


 380:.\Generated_Source\PSoC5/UART_1.c ****     *  UART_1_rxBuffer - RAM buffer pointer for save received data.
 381:.\Generated_Source\PSoC5/UART_1.c ****     *  UART_1_rxBufferWrite - cyclic index for write to rxBuffer,
 382:.\Generated_Source\PSoC5/UART_1.c ****     *     checked to identify new data.
 383:.\Generated_Source\PSoC5/UART_1.c ****     *  UART_1_rxBufferRead - cyclic index for read from rxBuffer,
 384:.\Generated_Source\PSoC5/UART_1.c ****     *     incremented after each byte has been read from buffer.
 385:.\Generated_Source\PSoC5/UART_1.c ****     *  UART_1_rxBufferLoopDetect - cleared if loop condition was detected
 386:.\Generated_Source\PSoC5/UART_1.c ****     *     in RX ISR.
 387:.\Generated_Source\PSoC5/UART_1.c ****     *
 388:.\Generated_Source\PSoC5/UART_1.c ****     * Reentrant:
 389:.\Generated_Source\PSoC5/UART_1.c ****     *  No.
 390:.\Generated_Source\PSoC5/UART_1.c ****     *
 391:.\Generated_Source\PSoC5/UART_1.c ****     *******************************************************************************/
 392:.\Generated_Source\PSoC5/UART_1.c ****     uint8 UART_1_ReadRxData(void) 
 393:.\Generated_Source\PSoC5/UART_1.c ****     {
 363              		.loc 1 393 0
 364              		.cfi_startproc
 365              		@ args = 0, pretend = 0, frame = 8
 366              		@ frame_needed = 1, uses_anonymous_args = 0
 367              		@ link register save eliminated.
 368 0000 80B4     		push	{r7}
 369              		.cfi_def_cfa_offset 4
 370              		.cfi_offset 7, -4
 371 0002 83B0     		sub	sp, sp, #12
 372              		.cfi_def_cfa_offset 16
 373 0004 00AF     		add	r7, sp, #0
 374              		.cfi_def_cfa_register 7
 394:.\Generated_Source\PSoC5/UART_1.c ****         uint8 rxData;
 395:.\Generated_Source\PSoC5/UART_1.c **** 
 396:.\Generated_Source\PSoC5/UART_1.c ****     #if (UART_1_RX_INTERRUPT_ENABLED)
 397:.\Generated_Source\PSoC5/UART_1.c **** 
 398:.\Generated_Source\PSoC5/UART_1.c ****         uint8 locRxBufferRead;
 399:.\Generated_Source\PSoC5/UART_1.c ****         uint8 locRxBufferWrite;
 400:.\Generated_Source\PSoC5/UART_1.c **** 
 401:.\Generated_Source\PSoC5/UART_1.c ****         /* Protect variables that could change on interrupt */
 402:.\Generated_Source\PSoC5/UART_1.c ****         UART_1_DisableRxInt();
 403:.\Generated_Source\PSoC5/UART_1.c **** 
 404:.\Generated_Source\PSoC5/UART_1.c ****         locRxBufferRead  = UART_1_rxBufferRead;
 405:.\Generated_Source\PSoC5/UART_1.c ****         locRxBufferWrite = UART_1_rxBufferWrite;
 406:.\Generated_Source\PSoC5/UART_1.c **** 
 407:.\Generated_Source\PSoC5/UART_1.c ****         if( (UART_1_rxBufferLoopDetect != 0u) || (locRxBufferRead != locRxBufferWrite) )
 408:.\Generated_Source\PSoC5/UART_1.c ****         {
 409:.\Generated_Source\PSoC5/UART_1.c ****             rxData = UART_1_rxBuffer[locRxBufferRead];
 410:.\Generated_Source\PSoC5/UART_1.c ****             locRxBufferRead++;
 411:.\Generated_Source\PSoC5/UART_1.c **** 
 412:.\Generated_Source\PSoC5/UART_1.c ****             if(locRxBufferRead >= UART_1_RX_BUFFER_SIZE)
 413:.\Generated_Source\PSoC5/UART_1.c ****             {
 414:.\Generated_Source\PSoC5/UART_1.c ****                 locRxBufferRead = 0u;
 415:.\Generated_Source\PSoC5/UART_1.c ****             }
 416:.\Generated_Source\PSoC5/UART_1.c ****             /* Update the real pointer */
 417:.\Generated_Source\PSoC5/UART_1.c ****             UART_1_rxBufferRead = locRxBufferRead;
 418:.\Generated_Source\PSoC5/UART_1.c **** 
 419:.\Generated_Source\PSoC5/UART_1.c ****             if(UART_1_rxBufferLoopDetect != 0u)
 420:.\Generated_Source\PSoC5/UART_1.c ****             {
 421:.\Generated_Source\PSoC5/UART_1.c ****                 UART_1_rxBufferLoopDetect = 0u;
 422:.\Generated_Source\PSoC5/UART_1.c ****                 #if ((UART_1_RX_INTERRUPT_ENABLED) && (UART_1_FLOW_CONTROL != 0u))
 423:.\Generated_Source\PSoC5/UART_1.c ****                     /* When Hardware Flow Control selected - return RX mask */
 424:.\Generated_Source\PSoC5/UART_1.c ****                     #if( UART_1_HD_ENABLED )
ARM GAS  C:\Users\Charlie\AppData\Local\Temp\cc6egklb.s 			page 15


 425:.\Generated_Source\PSoC5/UART_1.c ****                         if((UART_1_CONTROL_REG & UART_1_CTRL_HD_SEND) == 0u)
 426:.\Generated_Source\PSoC5/UART_1.c ****                         {   /* In Half duplex mode return RX mask only in RX
 427:.\Generated_Source\PSoC5/UART_1.c ****                             *  configuration set, otherwise
 428:.\Generated_Source\PSoC5/UART_1.c ****                             *  mask will be returned in LoadRxConfig() API.
 429:.\Generated_Source\PSoC5/UART_1.c ****                             */
 430:.\Generated_Source\PSoC5/UART_1.c ****                             UART_1_RXSTATUS_MASK_REG  |= UART_1_RX_STS_FIFO_NOTEMPTY;
 431:.\Generated_Source\PSoC5/UART_1.c ****                         }
 432:.\Generated_Source\PSoC5/UART_1.c ****                     #else
 433:.\Generated_Source\PSoC5/UART_1.c ****                         UART_1_RXSTATUS_MASK_REG  |= UART_1_RX_STS_FIFO_NOTEMPTY;
 434:.\Generated_Source\PSoC5/UART_1.c ****                     #endif /* end UART_1_HD_ENABLED */
 435:.\Generated_Source\PSoC5/UART_1.c ****                 #endif /* ((UART_1_RX_INTERRUPT_ENABLED) && (UART_1_FLOW_CONTROL != 0u)) */
 436:.\Generated_Source\PSoC5/UART_1.c ****             }
 437:.\Generated_Source\PSoC5/UART_1.c ****         }
 438:.\Generated_Source\PSoC5/UART_1.c ****         else
 439:.\Generated_Source\PSoC5/UART_1.c ****         {   /* Needs to check status for RX_STS_FIFO_NOTEMPTY bit */
 440:.\Generated_Source\PSoC5/UART_1.c ****             rxData = UART_1_RXDATA_REG;
 441:.\Generated_Source\PSoC5/UART_1.c ****         }
 442:.\Generated_Source\PSoC5/UART_1.c **** 
 443:.\Generated_Source\PSoC5/UART_1.c ****         UART_1_EnableRxInt();
 444:.\Generated_Source\PSoC5/UART_1.c **** 
 445:.\Generated_Source\PSoC5/UART_1.c ****     #else
 446:.\Generated_Source\PSoC5/UART_1.c **** 
 447:.\Generated_Source\PSoC5/UART_1.c ****         /* Needs to check status for RX_STS_FIFO_NOTEMPTY bit */
 448:.\Generated_Source\PSoC5/UART_1.c ****         rxData = UART_1_RXDATA_REG;
 375              		.loc 1 448 0
 376 0006 054B     		ldr	r3, .L22
 377 0008 1B78     		ldrb	r3, [r3]
 378 000a FB71     		strb	r3, [r7, #7]
 449:.\Generated_Source\PSoC5/UART_1.c **** 
 450:.\Generated_Source\PSoC5/UART_1.c ****     #endif /* (UART_1_RX_INTERRUPT_ENABLED) */
 451:.\Generated_Source\PSoC5/UART_1.c **** 
 452:.\Generated_Source\PSoC5/UART_1.c ****         return(rxData);
 379              		.loc 1 452 0
 380 000c FB79     		ldrb	r3, [r7, #7]	@ zero_extendqisi2
 453:.\Generated_Source\PSoC5/UART_1.c ****     }
 381              		.loc 1 453 0
 382 000e 1846     		mov	r0, r3
 383 0010 0C37     		adds	r7, r7, #12
 384 0012 BD46     		mov	sp, r7
 385              		@ sp needed
 386 0014 5DF8047B 		ldr	r7, [sp], #4
 387 0018 7047     		bx	lr
 388              	.L23:
 389 001a 00BF     		.align	2
 390              	.L22:
 391 001c 49650040 		.word	1073767753
 392              		.cfi_endproc
 393              	.LFE7:
 394              		.size	UART_1_ReadRxData, .-UART_1_ReadRxData
 395              		.section	.text.UART_1_ReadRxStatus,"ax",%progbits
 396              		.align	2
 397              		.global	UART_1_ReadRxStatus
 398              		.thumb
 399              		.thumb_func
 400              		.type	UART_1_ReadRxStatus, %function
 401              	UART_1_ReadRxStatus:
 402              	.LFB8:
ARM GAS  C:\Users\Charlie\AppData\Local\Temp\cc6egklb.s 			page 16


 454:.\Generated_Source\PSoC5/UART_1.c **** 
 455:.\Generated_Source\PSoC5/UART_1.c **** 
 456:.\Generated_Source\PSoC5/UART_1.c ****     /*******************************************************************************
 457:.\Generated_Source\PSoC5/UART_1.c ****     * Function Name: UART_1_ReadRxStatus
 458:.\Generated_Source\PSoC5/UART_1.c ****     ********************************************************************************
 459:.\Generated_Source\PSoC5/UART_1.c ****     *
 460:.\Generated_Source\PSoC5/UART_1.c ****     * Summary:
 461:.\Generated_Source\PSoC5/UART_1.c ****     *  Returns the current state of the receiver status register and the software
 462:.\Generated_Source\PSoC5/UART_1.c ****     *  buffer overflow status.
 463:.\Generated_Source\PSoC5/UART_1.c ****     *
 464:.\Generated_Source\PSoC5/UART_1.c ****     * Parameters:
 465:.\Generated_Source\PSoC5/UART_1.c ****     *  None.
 466:.\Generated_Source\PSoC5/UART_1.c ****     *
 467:.\Generated_Source\PSoC5/UART_1.c ****     * Return:
 468:.\Generated_Source\PSoC5/UART_1.c ****     *  Current state of the status register.
 469:.\Generated_Source\PSoC5/UART_1.c ****     *
 470:.\Generated_Source\PSoC5/UART_1.c ****     * Side Effect:
 471:.\Generated_Source\PSoC5/UART_1.c ****     *  All status register bits are clear-on-read except
 472:.\Generated_Source\PSoC5/UART_1.c ****     *  UART_1_RX_STS_FIFO_NOTEMPTY.
 473:.\Generated_Source\PSoC5/UART_1.c ****     *  UART_1_RX_STS_FIFO_NOTEMPTY clears immediately after RX data
 474:.\Generated_Source\PSoC5/UART_1.c ****     *  register read.
 475:.\Generated_Source\PSoC5/UART_1.c ****     *
 476:.\Generated_Source\PSoC5/UART_1.c ****     * Global Variables:
 477:.\Generated_Source\PSoC5/UART_1.c ****     *  UART_1_rxBufferOverflow - used to indicate overload condition.
 478:.\Generated_Source\PSoC5/UART_1.c ****     *   It set to one in RX interrupt when there isn't free space in
 479:.\Generated_Source\PSoC5/UART_1.c ****     *   UART_1_rxBufferRead to write new data. This condition returned
 480:.\Generated_Source\PSoC5/UART_1.c ****     *   and cleared to zero by this API as an
 481:.\Generated_Source\PSoC5/UART_1.c ****     *   UART_1_RX_STS_SOFT_BUFF_OVER bit along with RX Status register
 482:.\Generated_Source\PSoC5/UART_1.c ****     *   bits.
 483:.\Generated_Source\PSoC5/UART_1.c ****     *
 484:.\Generated_Source\PSoC5/UART_1.c ****     *******************************************************************************/
 485:.\Generated_Source\PSoC5/UART_1.c ****     uint8 UART_1_ReadRxStatus(void) 
 486:.\Generated_Source\PSoC5/UART_1.c ****     {
 403              		.loc 1 486 0
 404              		.cfi_startproc
 405              		@ args = 0, pretend = 0, frame = 8
 406              		@ frame_needed = 1, uses_anonymous_args = 0
 407              		@ link register save eliminated.
 408 0000 80B4     		push	{r7}
 409              		.cfi_def_cfa_offset 4
 410              		.cfi_offset 7, -4
 411 0002 83B0     		sub	sp, sp, #12
 412              		.cfi_def_cfa_offset 16
 413 0004 00AF     		add	r7, sp, #0
 414              		.cfi_def_cfa_register 7
 487:.\Generated_Source\PSoC5/UART_1.c ****         uint8 status;
 488:.\Generated_Source\PSoC5/UART_1.c **** 
 489:.\Generated_Source\PSoC5/UART_1.c ****         status = UART_1_RXSTATUS_REG & UART_1_RX_HW_MASK;
 415              		.loc 1 489 0
 416 0006 064B     		ldr	r3, .L26
 417 0008 1B78     		ldrb	r3, [r3]
 418 000a DBB2     		uxtb	r3, r3
 419 000c 03F07F03 		and	r3, r3, #127
 420 0010 FB71     		strb	r3, [r7, #7]
 490:.\Generated_Source\PSoC5/UART_1.c **** 
 491:.\Generated_Source\PSoC5/UART_1.c ****     #if (UART_1_RX_INTERRUPT_ENABLED)
 492:.\Generated_Source\PSoC5/UART_1.c ****         if(UART_1_rxBufferOverflow != 0u)
ARM GAS  C:\Users\Charlie\AppData\Local\Temp\cc6egklb.s 			page 17


 493:.\Generated_Source\PSoC5/UART_1.c ****         {
 494:.\Generated_Source\PSoC5/UART_1.c ****             status |= UART_1_RX_STS_SOFT_BUFF_OVER;
 495:.\Generated_Source\PSoC5/UART_1.c ****             UART_1_rxBufferOverflow = 0u;
 496:.\Generated_Source\PSoC5/UART_1.c ****         }
 497:.\Generated_Source\PSoC5/UART_1.c ****     #endif /* (UART_1_RX_INTERRUPT_ENABLED) */
 498:.\Generated_Source\PSoC5/UART_1.c **** 
 499:.\Generated_Source\PSoC5/UART_1.c ****         return(status);
 421              		.loc 1 499 0
 422 0012 FB79     		ldrb	r3, [r7, #7]	@ zero_extendqisi2
 500:.\Generated_Source\PSoC5/UART_1.c ****     }
 423              		.loc 1 500 0
 424 0014 1846     		mov	r0, r3
 425 0016 0C37     		adds	r7, r7, #12
 426 0018 BD46     		mov	sp, r7
 427              		@ sp needed
 428 001a 5DF8047B 		ldr	r7, [sp], #4
 429 001e 7047     		bx	lr
 430              	.L27:
 431              		.align	2
 432              	.L26:
 433 0020 68640040 		.word	1073767528
 434              		.cfi_endproc
 435              	.LFE8:
 436              		.size	UART_1_ReadRxStatus, .-UART_1_ReadRxStatus
 437              		.section	.text.UART_1_GetChar,"ax",%progbits
 438              		.align	2
 439              		.global	UART_1_GetChar
 440              		.thumb
 441              		.thumb_func
 442              		.type	UART_1_GetChar, %function
 443              	UART_1_GetChar:
 444              	.LFB9:
 501:.\Generated_Source\PSoC5/UART_1.c **** 
 502:.\Generated_Source\PSoC5/UART_1.c **** 
 503:.\Generated_Source\PSoC5/UART_1.c ****     /*******************************************************************************
 504:.\Generated_Source\PSoC5/UART_1.c ****     * Function Name: UART_1_GetChar
 505:.\Generated_Source\PSoC5/UART_1.c ****     ********************************************************************************
 506:.\Generated_Source\PSoC5/UART_1.c ****     *
 507:.\Generated_Source\PSoC5/UART_1.c ****     * Summary:
 508:.\Generated_Source\PSoC5/UART_1.c ****     *  Returns the last received byte of data. UART_1_GetChar() is
 509:.\Generated_Source\PSoC5/UART_1.c ****     *  designed for ASCII characters and returns a uint8 where 1 to 255 are values
 510:.\Generated_Source\PSoC5/UART_1.c ****     *  for valid characters and 0 indicates an error occurred or no data is present.
 511:.\Generated_Source\PSoC5/UART_1.c ****     *
 512:.\Generated_Source\PSoC5/UART_1.c ****     * Parameters:
 513:.\Generated_Source\PSoC5/UART_1.c ****     *  None.
 514:.\Generated_Source\PSoC5/UART_1.c ****     *
 515:.\Generated_Source\PSoC5/UART_1.c ****     * Return:
 516:.\Generated_Source\PSoC5/UART_1.c ****     *  Character read from UART RX buffer. ASCII characters from 1 to 255 are valid.
 517:.\Generated_Source\PSoC5/UART_1.c ****     *  A returned zero signifies an error condition or no data available.
 518:.\Generated_Source\PSoC5/UART_1.c ****     *
 519:.\Generated_Source\PSoC5/UART_1.c ****     * Global Variables:
 520:.\Generated_Source\PSoC5/UART_1.c ****     *  UART_1_rxBuffer - RAM buffer pointer for save received data.
 521:.\Generated_Source\PSoC5/UART_1.c ****     *  UART_1_rxBufferWrite - cyclic index for write to rxBuffer,
 522:.\Generated_Source\PSoC5/UART_1.c ****     *     checked to identify new data.
 523:.\Generated_Source\PSoC5/UART_1.c ****     *  UART_1_rxBufferRead - cyclic index for read from rxBuffer,
 524:.\Generated_Source\PSoC5/UART_1.c ****     *     incremented after each byte has been read from buffer.
 525:.\Generated_Source\PSoC5/UART_1.c ****     *  UART_1_rxBufferLoopDetect - cleared if loop condition was detected
ARM GAS  C:\Users\Charlie\AppData\Local\Temp\cc6egklb.s 			page 18


 526:.\Generated_Source\PSoC5/UART_1.c ****     *     in RX ISR.
 527:.\Generated_Source\PSoC5/UART_1.c ****     *
 528:.\Generated_Source\PSoC5/UART_1.c ****     * Reentrant:
 529:.\Generated_Source\PSoC5/UART_1.c ****     *  No.
 530:.\Generated_Source\PSoC5/UART_1.c ****     *
 531:.\Generated_Source\PSoC5/UART_1.c ****     *******************************************************************************/
 532:.\Generated_Source\PSoC5/UART_1.c ****     uint8 UART_1_GetChar(void) 
 533:.\Generated_Source\PSoC5/UART_1.c ****     {
 445              		.loc 1 533 0
 446              		.cfi_startproc
 447              		@ args = 0, pretend = 0, frame = 8
 448              		@ frame_needed = 1, uses_anonymous_args = 0
 449              		@ link register save eliminated.
 450 0000 80B4     		push	{r7}
 451              		.cfi_def_cfa_offset 4
 452              		.cfi_offset 7, -4
 453 0002 83B0     		sub	sp, sp, #12
 454              		.cfi_def_cfa_offset 16
 455 0004 00AF     		add	r7, sp, #0
 456              		.cfi_def_cfa_register 7
 534:.\Generated_Source\PSoC5/UART_1.c ****         uint8 rxData = 0u;
 457              		.loc 1 534 0
 458 0006 0023     		movs	r3, #0
 459 0008 FB71     		strb	r3, [r7, #7]
 535:.\Generated_Source\PSoC5/UART_1.c ****         uint8 rxStatus;
 536:.\Generated_Source\PSoC5/UART_1.c **** 
 537:.\Generated_Source\PSoC5/UART_1.c ****     #if (UART_1_RX_INTERRUPT_ENABLED)
 538:.\Generated_Source\PSoC5/UART_1.c ****         uint8 locRxBufferRead;
 539:.\Generated_Source\PSoC5/UART_1.c ****         uint8 locRxBufferWrite;
 540:.\Generated_Source\PSoC5/UART_1.c **** 
 541:.\Generated_Source\PSoC5/UART_1.c ****         /* Protect variables that could change on interrupt */
 542:.\Generated_Source\PSoC5/UART_1.c ****         UART_1_DisableRxInt();
 543:.\Generated_Source\PSoC5/UART_1.c **** 
 544:.\Generated_Source\PSoC5/UART_1.c ****         locRxBufferRead  = UART_1_rxBufferRead;
 545:.\Generated_Source\PSoC5/UART_1.c ****         locRxBufferWrite = UART_1_rxBufferWrite;
 546:.\Generated_Source\PSoC5/UART_1.c **** 
 547:.\Generated_Source\PSoC5/UART_1.c ****         if( (UART_1_rxBufferLoopDetect != 0u) || (locRxBufferRead != locRxBufferWrite) )
 548:.\Generated_Source\PSoC5/UART_1.c ****         {
 549:.\Generated_Source\PSoC5/UART_1.c ****             rxData = UART_1_rxBuffer[locRxBufferRead];
 550:.\Generated_Source\PSoC5/UART_1.c ****             locRxBufferRead++;
 551:.\Generated_Source\PSoC5/UART_1.c ****             if(locRxBufferRead >= UART_1_RX_BUFFER_SIZE)
 552:.\Generated_Source\PSoC5/UART_1.c ****             {
 553:.\Generated_Source\PSoC5/UART_1.c ****                 locRxBufferRead = 0u;
 554:.\Generated_Source\PSoC5/UART_1.c ****             }
 555:.\Generated_Source\PSoC5/UART_1.c ****             /* Update the real pointer */
 556:.\Generated_Source\PSoC5/UART_1.c ****             UART_1_rxBufferRead = locRxBufferRead;
 557:.\Generated_Source\PSoC5/UART_1.c **** 
 558:.\Generated_Source\PSoC5/UART_1.c ****             if(UART_1_rxBufferLoopDetect != 0u)
 559:.\Generated_Source\PSoC5/UART_1.c ****             {
 560:.\Generated_Source\PSoC5/UART_1.c ****                 UART_1_rxBufferLoopDetect = 0u;
 561:.\Generated_Source\PSoC5/UART_1.c ****                 #if( (UART_1_RX_INTERRUPT_ENABLED) && (UART_1_FLOW_CONTROL != 0u) )
 562:.\Generated_Source\PSoC5/UART_1.c ****                     /* When Hardware Flow Control selected - return RX mask */
 563:.\Generated_Source\PSoC5/UART_1.c ****                     #if( UART_1_HD_ENABLED )
 564:.\Generated_Source\PSoC5/UART_1.c ****                         if((UART_1_CONTROL_REG & UART_1_CTRL_HD_SEND) == 0u)
 565:.\Generated_Source\PSoC5/UART_1.c ****                         {   /* In Half duplex mode return RX mask only if
 566:.\Generated_Source\PSoC5/UART_1.c ****                             *  RX configuration set, otherwise
 567:.\Generated_Source\PSoC5/UART_1.c ****                             *  mask will be returned in LoadRxConfig() API.
ARM GAS  C:\Users\Charlie\AppData\Local\Temp\cc6egklb.s 			page 19


 568:.\Generated_Source\PSoC5/UART_1.c ****                             */
 569:.\Generated_Source\PSoC5/UART_1.c ****                             UART_1_RXSTATUS_MASK_REG |= UART_1_RX_STS_FIFO_NOTEMPTY;
 570:.\Generated_Source\PSoC5/UART_1.c ****                         }
 571:.\Generated_Source\PSoC5/UART_1.c ****                     #else
 572:.\Generated_Source\PSoC5/UART_1.c ****                         UART_1_RXSTATUS_MASK_REG |= UART_1_RX_STS_FIFO_NOTEMPTY;
 573:.\Generated_Source\PSoC5/UART_1.c ****                     #endif /* end UART_1_HD_ENABLED */
 574:.\Generated_Source\PSoC5/UART_1.c ****                 #endif /* UART_1_RX_INTERRUPT_ENABLED and Hardware flow control*/
 575:.\Generated_Source\PSoC5/UART_1.c ****             }
 576:.\Generated_Source\PSoC5/UART_1.c **** 
 577:.\Generated_Source\PSoC5/UART_1.c ****         }
 578:.\Generated_Source\PSoC5/UART_1.c ****         else
 579:.\Generated_Source\PSoC5/UART_1.c ****         {   rxStatus = UART_1_RXSTATUS_REG;
 580:.\Generated_Source\PSoC5/UART_1.c ****             if((rxStatus & UART_1_RX_STS_FIFO_NOTEMPTY) != 0u)
 581:.\Generated_Source\PSoC5/UART_1.c ****             {   /* Read received data from FIFO */
 582:.\Generated_Source\PSoC5/UART_1.c ****                 rxData = UART_1_RXDATA_REG;
 583:.\Generated_Source\PSoC5/UART_1.c ****                 /*Check status on error*/
 584:.\Generated_Source\PSoC5/UART_1.c ****                 if((rxStatus & (UART_1_RX_STS_BREAK | UART_1_RX_STS_PAR_ERROR |
 585:.\Generated_Source\PSoC5/UART_1.c ****                                 UART_1_RX_STS_STOP_ERROR | UART_1_RX_STS_OVERRUN)) != 0u)
 586:.\Generated_Source\PSoC5/UART_1.c ****                 {
 587:.\Generated_Source\PSoC5/UART_1.c ****                     rxData = 0u;
 588:.\Generated_Source\PSoC5/UART_1.c ****                 }
 589:.\Generated_Source\PSoC5/UART_1.c ****             }
 590:.\Generated_Source\PSoC5/UART_1.c ****         }
 591:.\Generated_Source\PSoC5/UART_1.c **** 
 592:.\Generated_Source\PSoC5/UART_1.c ****         UART_1_EnableRxInt();
 593:.\Generated_Source\PSoC5/UART_1.c **** 
 594:.\Generated_Source\PSoC5/UART_1.c ****     #else
 595:.\Generated_Source\PSoC5/UART_1.c **** 
 596:.\Generated_Source\PSoC5/UART_1.c ****         rxStatus =UART_1_RXSTATUS_REG;
 460              		.loc 1 596 0
 461 000a 0C4B     		ldr	r3, .L31
 462 000c 1B78     		ldrb	r3, [r3]
 463 000e BB71     		strb	r3, [r7, #6]
 597:.\Generated_Source\PSoC5/UART_1.c ****         if((rxStatus & UART_1_RX_STS_FIFO_NOTEMPTY) != 0u)
 464              		.loc 1 597 0
 465 0010 BB79     		ldrb	r3, [r7, #6]	@ zero_extendqisi2
 466 0012 03F02003 		and	r3, r3, #32
 467 0016 002B     		cmp	r3, #0
 468 0018 09D0     		beq	.L29
 598:.\Generated_Source\PSoC5/UART_1.c ****         {
 599:.\Generated_Source\PSoC5/UART_1.c ****             /* Read received data from FIFO */
 600:.\Generated_Source\PSoC5/UART_1.c ****             rxData = UART_1_RXDATA_REG;
 469              		.loc 1 600 0
 470 001a 094B     		ldr	r3, .L31+4
 471 001c 1B78     		ldrb	r3, [r3]
 472 001e FB71     		strb	r3, [r7, #7]
 601:.\Generated_Source\PSoC5/UART_1.c **** 
 602:.\Generated_Source\PSoC5/UART_1.c ****             /*Check status on error*/
 603:.\Generated_Source\PSoC5/UART_1.c ****             if((rxStatus & (UART_1_RX_STS_BREAK | UART_1_RX_STS_PAR_ERROR |
 604:.\Generated_Source\PSoC5/UART_1.c ****                             UART_1_RX_STS_STOP_ERROR | UART_1_RX_STS_OVERRUN)) != 0u)
 473              		.loc 1 604 0
 474 0020 BB79     		ldrb	r3, [r7, #6]	@ zero_extendqisi2
 475 0022 03F01E03 		and	r3, r3, #30
 603:.\Generated_Source\PSoC5/UART_1.c ****             if((rxStatus & (UART_1_RX_STS_BREAK | UART_1_RX_STS_PAR_ERROR |
 476              		.loc 1 603 0
 477 0026 002B     		cmp	r3, #0
 478 0028 01D0     		beq	.L29
ARM GAS  C:\Users\Charlie\AppData\Local\Temp\cc6egklb.s 			page 20


 605:.\Generated_Source\PSoC5/UART_1.c ****             {
 606:.\Generated_Source\PSoC5/UART_1.c ****                 rxData = 0u;
 479              		.loc 1 606 0
 480 002a 0023     		movs	r3, #0
 481 002c FB71     		strb	r3, [r7, #7]
 482              	.L29:
 607:.\Generated_Source\PSoC5/UART_1.c ****             }
 608:.\Generated_Source\PSoC5/UART_1.c ****         }
 609:.\Generated_Source\PSoC5/UART_1.c ****     #endif /* (UART_1_RX_INTERRUPT_ENABLED) */
 610:.\Generated_Source\PSoC5/UART_1.c **** 
 611:.\Generated_Source\PSoC5/UART_1.c ****         return(rxData);
 483              		.loc 1 611 0
 484 002e FB79     		ldrb	r3, [r7, #7]	@ zero_extendqisi2
 612:.\Generated_Source\PSoC5/UART_1.c ****     }
 485              		.loc 1 612 0
 486 0030 1846     		mov	r0, r3
 487 0032 0C37     		adds	r7, r7, #12
 488 0034 BD46     		mov	sp, r7
 489              		@ sp needed
 490 0036 5DF8047B 		ldr	r7, [sp], #4
 491 003a 7047     		bx	lr
 492              	.L32:
 493              		.align	2
 494              	.L31:
 495 003c 68640040 		.word	1073767528
 496 0040 49650040 		.word	1073767753
 497              		.cfi_endproc
 498              	.LFE9:
 499              		.size	UART_1_GetChar, .-UART_1_GetChar
 500              		.section	.text.UART_1_GetByte,"ax",%progbits
 501              		.align	2
 502              		.global	UART_1_GetByte
 503              		.thumb
 504              		.thumb_func
 505              		.type	UART_1_GetByte, %function
 506              	UART_1_GetByte:
 507              	.LFB10:
 613:.\Generated_Source\PSoC5/UART_1.c **** 
 614:.\Generated_Source\PSoC5/UART_1.c **** 
 615:.\Generated_Source\PSoC5/UART_1.c ****     /*******************************************************************************
 616:.\Generated_Source\PSoC5/UART_1.c ****     * Function Name: UART_1_GetByte
 617:.\Generated_Source\PSoC5/UART_1.c ****     ********************************************************************************
 618:.\Generated_Source\PSoC5/UART_1.c ****     *
 619:.\Generated_Source\PSoC5/UART_1.c ****     * Summary:
 620:.\Generated_Source\PSoC5/UART_1.c ****     *  Reads UART RX buffer immediately, returns received character and error
 621:.\Generated_Source\PSoC5/UART_1.c ****     *  condition.
 622:.\Generated_Source\PSoC5/UART_1.c ****     *
 623:.\Generated_Source\PSoC5/UART_1.c ****     * Parameters:
 624:.\Generated_Source\PSoC5/UART_1.c ****     *  None.
 625:.\Generated_Source\PSoC5/UART_1.c ****     *
 626:.\Generated_Source\PSoC5/UART_1.c ****     * Return:
 627:.\Generated_Source\PSoC5/UART_1.c ****     *  MSB contains status and LSB contains UART RX data. If the MSB is nonzero,
 628:.\Generated_Source\PSoC5/UART_1.c ****     *  an error has occurred.
 629:.\Generated_Source\PSoC5/UART_1.c ****     *
 630:.\Generated_Source\PSoC5/UART_1.c ****     * Reentrant:
 631:.\Generated_Source\PSoC5/UART_1.c ****     *  No.
 632:.\Generated_Source\PSoC5/UART_1.c ****     *
ARM GAS  C:\Users\Charlie\AppData\Local\Temp\cc6egklb.s 			page 21


 633:.\Generated_Source\PSoC5/UART_1.c ****     *******************************************************************************/
 634:.\Generated_Source\PSoC5/UART_1.c ****     uint16 UART_1_GetByte(void) 
 635:.\Generated_Source\PSoC5/UART_1.c ****     {
 508              		.loc 1 635 0
 509              		.cfi_startproc
 510              		@ args = 0, pretend = 0, frame = 0
 511              		@ frame_needed = 1, uses_anonymous_args = 0
 512 0000 98B5     		push	{r3, r4, r7, lr}
 513              		.cfi_def_cfa_offset 16
 514              		.cfi_offset 3, -16
 515              		.cfi_offset 4, -12
 516              		.cfi_offset 7, -8
 517              		.cfi_offset 14, -4
 518 0002 00AF     		add	r7, sp, #0
 519              		.cfi_def_cfa_register 7
 636:.\Generated_Source\PSoC5/UART_1.c ****         
 637:.\Generated_Source\PSoC5/UART_1.c ****     #if (UART_1_RX_INTERRUPT_ENABLED)
 638:.\Generated_Source\PSoC5/UART_1.c ****         uint16 locErrorStatus;
 639:.\Generated_Source\PSoC5/UART_1.c ****         /* Protect variables that could change on interrupt */
 640:.\Generated_Source\PSoC5/UART_1.c ****         UART_1_DisableRxInt();
 641:.\Generated_Source\PSoC5/UART_1.c ****         locErrorStatus = (uint16)UART_1_errorStatus;
 642:.\Generated_Source\PSoC5/UART_1.c ****         UART_1_errorStatus = 0u;
 643:.\Generated_Source\PSoC5/UART_1.c ****         UART_1_EnableRxInt();
 644:.\Generated_Source\PSoC5/UART_1.c ****         return ( (uint16)(locErrorStatus << 8u) | UART_1_ReadRxData() );
 645:.\Generated_Source\PSoC5/UART_1.c ****     #else
 646:.\Generated_Source\PSoC5/UART_1.c ****         return ( ((uint16)UART_1_ReadRxStatus() << 8u) | UART_1_ReadRxData() );
 520              		.loc 1 646 0
 521 0004 FFF7FEFF 		bl	UART_1_ReadRxStatus
 522 0008 0346     		mov	r3, r0
 523 000a 1B02     		lsls	r3, r3, #8
 524 000c 9CB2     		uxth	r4, r3
 525 000e FFF7FEFF 		bl	UART_1_ReadRxData
 526 0012 0346     		mov	r3, r0
 527 0014 2246     		mov	r2, r4	@ movhi
 528 0016 1343     		orrs	r3, r3, r2
 529 0018 9BB2     		uxth	r3, r3
 530 001a 9BB2     		uxth	r3, r3
 647:.\Generated_Source\PSoC5/UART_1.c ****     #endif /* UART_1_RX_INTERRUPT_ENABLED */
 648:.\Generated_Source\PSoC5/UART_1.c ****         
 649:.\Generated_Source\PSoC5/UART_1.c ****     }
 531              		.loc 1 649 0
 532 001c 1846     		mov	r0, r3
 533 001e 98BD     		pop	{r3, r4, r7, pc}
 534              		.cfi_endproc
 535              	.LFE10:
 536              		.size	UART_1_GetByte, .-UART_1_GetByte
 537              		.section	.text.UART_1_GetRxBufferSize,"ax",%progbits
 538              		.align	2
 539              		.global	UART_1_GetRxBufferSize
 540              		.thumb
 541              		.thumb_func
 542              		.type	UART_1_GetRxBufferSize, %function
 543              	UART_1_GetRxBufferSize:
 544              	.LFB11:
 650:.\Generated_Source\PSoC5/UART_1.c **** 
 651:.\Generated_Source\PSoC5/UART_1.c **** 
 652:.\Generated_Source\PSoC5/UART_1.c ****     /*******************************************************************************
ARM GAS  C:\Users\Charlie\AppData\Local\Temp\cc6egklb.s 			page 22


 653:.\Generated_Source\PSoC5/UART_1.c ****     * Function Name: UART_1_GetRxBufferSize
 654:.\Generated_Source\PSoC5/UART_1.c ****     ********************************************************************************
 655:.\Generated_Source\PSoC5/UART_1.c ****     *
 656:.\Generated_Source\PSoC5/UART_1.c ****     * Summary:
 657:.\Generated_Source\PSoC5/UART_1.c ****     *  Returns the number of received bytes available in the RX buffer.
 658:.\Generated_Source\PSoC5/UART_1.c ****     *  * RX software buffer is disabled (RX Buffer Size parameter is equal to 4): 
 659:.\Generated_Source\PSoC5/UART_1.c ****     *    returns 0 for empty RX FIFO or 1 for not empty RX FIFO.
 660:.\Generated_Source\PSoC5/UART_1.c ****     *  * RX software buffer is enabled: returns the number of bytes available in 
 661:.\Generated_Source\PSoC5/UART_1.c ****     *    the RX software buffer. Bytes available in the RX FIFO do not take to 
 662:.\Generated_Source\PSoC5/UART_1.c ****     *    account.
 663:.\Generated_Source\PSoC5/UART_1.c ****     *
 664:.\Generated_Source\PSoC5/UART_1.c ****     * Parameters:
 665:.\Generated_Source\PSoC5/UART_1.c ****     *  None.
 666:.\Generated_Source\PSoC5/UART_1.c ****     *
 667:.\Generated_Source\PSoC5/UART_1.c ****     * Return:
 668:.\Generated_Source\PSoC5/UART_1.c ****     *  uint8: Number of bytes in the RX buffer. 
 669:.\Generated_Source\PSoC5/UART_1.c ****     *    Return value type depends on RX Buffer Size parameter.
 670:.\Generated_Source\PSoC5/UART_1.c ****     *
 671:.\Generated_Source\PSoC5/UART_1.c ****     * Global Variables:
 672:.\Generated_Source\PSoC5/UART_1.c ****     *  UART_1_rxBufferWrite - used to calculate left bytes.
 673:.\Generated_Source\PSoC5/UART_1.c ****     *  UART_1_rxBufferRead - used to calculate left bytes.
 674:.\Generated_Source\PSoC5/UART_1.c ****     *  UART_1_rxBufferLoopDetect - checked to decide left bytes amount.
 675:.\Generated_Source\PSoC5/UART_1.c ****     *
 676:.\Generated_Source\PSoC5/UART_1.c ****     * Reentrant:
 677:.\Generated_Source\PSoC5/UART_1.c ****     *  No.
 678:.\Generated_Source\PSoC5/UART_1.c ****     *
 679:.\Generated_Source\PSoC5/UART_1.c ****     * Theory:
 680:.\Generated_Source\PSoC5/UART_1.c ****     *  Allows the user to find out how full the RX Buffer is.
 681:.\Generated_Source\PSoC5/UART_1.c ****     *
 682:.\Generated_Source\PSoC5/UART_1.c ****     *******************************************************************************/
 683:.\Generated_Source\PSoC5/UART_1.c ****     uint8 UART_1_GetRxBufferSize(void)
 684:.\Generated_Source\PSoC5/UART_1.c ****                                                             
 685:.\Generated_Source\PSoC5/UART_1.c ****     {
 545              		.loc 1 685 0
 546              		.cfi_startproc
 547              		@ args = 0, pretend = 0, frame = 8
 548              		@ frame_needed = 1, uses_anonymous_args = 0
 549              		@ link register save eliminated.
 550 0000 80B4     		push	{r7}
 551              		.cfi_def_cfa_offset 4
 552              		.cfi_offset 7, -4
 553 0002 83B0     		sub	sp, sp, #12
 554              		.cfi_def_cfa_offset 16
 555 0004 00AF     		add	r7, sp, #0
 556              		.cfi_def_cfa_register 7
 686:.\Generated_Source\PSoC5/UART_1.c ****         uint8 size;
 687:.\Generated_Source\PSoC5/UART_1.c **** 
 688:.\Generated_Source\PSoC5/UART_1.c ****     #if (UART_1_RX_INTERRUPT_ENABLED)
 689:.\Generated_Source\PSoC5/UART_1.c **** 
 690:.\Generated_Source\PSoC5/UART_1.c ****         /* Protect variables that could change on interrupt */
 691:.\Generated_Source\PSoC5/UART_1.c ****         UART_1_DisableRxInt();
 692:.\Generated_Source\PSoC5/UART_1.c **** 
 693:.\Generated_Source\PSoC5/UART_1.c ****         if(UART_1_rxBufferRead == UART_1_rxBufferWrite)
 694:.\Generated_Source\PSoC5/UART_1.c ****         {
 695:.\Generated_Source\PSoC5/UART_1.c ****             if(UART_1_rxBufferLoopDetect != 0u)
 696:.\Generated_Source\PSoC5/UART_1.c ****             {
 697:.\Generated_Source\PSoC5/UART_1.c ****                 size = UART_1_RX_BUFFER_SIZE;
ARM GAS  C:\Users\Charlie\AppData\Local\Temp\cc6egklb.s 			page 23


 698:.\Generated_Source\PSoC5/UART_1.c ****             }
 699:.\Generated_Source\PSoC5/UART_1.c ****             else
 700:.\Generated_Source\PSoC5/UART_1.c ****             {
 701:.\Generated_Source\PSoC5/UART_1.c ****                 size = 0u;
 702:.\Generated_Source\PSoC5/UART_1.c ****             }
 703:.\Generated_Source\PSoC5/UART_1.c ****         }
 704:.\Generated_Source\PSoC5/UART_1.c ****         else if(UART_1_rxBufferRead < UART_1_rxBufferWrite)
 705:.\Generated_Source\PSoC5/UART_1.c ****         {
 706:.\Generated_Source\PSoC5/UART_1.c ****             size = (UART_1_rxBufferWrite - UART_1_rxBufferRead);
 707:.\Generated_Source\PSoC5/UART_1.c ****         }
 708:.\Generated_Source\PSoC5/UART_1.c ****         else
 709:.\Generated_Source\PSoC5/UART_1.c ****         {
 710:.\Generated_Source\PSoC5/UART_1.c ****             size = (UART_1_RX_BUFFER_SIZE - UART_1_rxBufferRead) + UART_1_rxBufferWrite;
 711:.\Generated_Source\PSoC5/UART_1.c ****         }
 712:.\Generated_Source\PSoC5/UART_1.c **** 
 713:.\Generated_Source\PSoC5/UART_1.c ****         UART_1_EnableRxInt();
 714:.\Generated_Source\PSoC5/UART_1.c **** 
 715:.\Generated_Source\PSoC5/UART_1.c ****     #else
 716:.\Generated_Source\PSoC5/UART_1.c **** 
 717:.\Generated_Source\PSoC5/UART_1.c ****         /* We can only know if there is data in the fifo. */
 718:.\Generated_Source\PSoC5/UART_1.c ****         size = ((UART_1_RXSTATUS_REG & UART_1_RX_STS_FIFO_NOTEMPTY) != 0u) ? 1u : 0u;
 557              		.loc 1 718 0
 558 0006 094B     		ldr	r3, .L39
 559 0008 1B78     		ldrb	r3, [r3]
 560 000a DBB2     		uxtb	r3, r3
 561 000c 03F02003 		and	r3, r3, #32
 562 0010 002B     		cmp	r3, #0
 563 0012 01D0     		beq	.L36
 564              		.loc 1 718 0 is_stmt 0 discriminator 1
 565 0014 0123     		movs	r3, #1
 566 0016 00E0     		b	.L37
 567              	.L36:
 568              		.loc 1 718 0 discriminator 2
 569 0018 0023     		movs	r3, #0
 570              	.L37:
 571              		.loc 1 718 0 discriminator 3
 572 001a FB71     		strb	r3, [r7, #7]
 719:.\Generated_Source\PSoC5/UART_1.c **** 
 720:.\Generated_Source\PSoC5/UART_1.c ****     #endif /* (UART_1_RX_INTERRUPT_ENABLED) */
 721:.\Generated_Source\PSoC5/UART_1.c **** 
 722:.\Generated_Source\PSoC5/UART_1.c ****         return(size);
 573              		.loc 1 722 0 is_stmt 1 discriminator 3
 574 001c FB79     		ldrb	r3, [r7, #7]	@ zero_extendqisi2
 723:.\Generated_Source\PSoC5/UART_1.c ****     }
 575              		.loc 1 723 0 discriminator 3
 576 001e 1846     		mov	r0, r3
 577 0020 0C37     		adds	r7, r7, #12
 578 0022 BD46     		mov	sp, r7
 579              		@ sp needed
 580 0024 5DF8047B 		ldr	r7, [sp], #4
 581 0028 7047     		bx	lr
 582              	.L40:
 583 002a 00BF     		.align	2
 584              	.L39:
 585 002c 68640040 		.word	1073767528
 586              		.cfi_endproc
 587              	.LFE11:
ARM GAS  C:\Users\Charlie\AppData\Local\Temp\cc6egklb.s 			page 24


 588              		.size	UART_1_GetRxBufferSize, .-UART_1_GetRxBufferSize
 589              		.section	.text.UART_1_ClearRxBuffer,"ax",%progbits
 590              		.align	2
 591              		.global	UART_1_ClearRxBuffer
 592              		.thumb
 593              		.thumb_func
 594              		.type	UART_1_ClearRxBuffer, %function
 595              	UART_1_ClearRxBuffer:
 596              	.LFB12:
 724:.\Generated_Source\PSoC5/UART_1.c **** 
 725:.\Generated_Source\PSoC5/UART_1.c **** 
 726:.\Generated_Source\PSoC5/UART_1.c ****     /*******************************************************************************
 727:.\Generated_Source\PSoC5/UART_1.c ****     * Function Name: UART_1_ClearRxBuffer
 728:.\Generated_Source\PSoC5/UART_1.c ****     ********************************************************************************
 729:.\Generated_Source\PSoC5/UART_1.c ****     *
 730:.\Generated_Source\PSoC5/UART_1.c ****     * Summary:
 731:.\Generated_Source\PSoC5/UART_1.c ****     *  Clears the receiver memory buffer and hardware RX FIFO of all received data.
 732:.\Generated_Source\PSoC5/UART_1.c ****     *
 733:.\Generated_Source\PSoC5/UART_1.c ****     * Parameters:
 734:.\Generated_Source\PSoC5/UART_1.c ****     *  None.
 735:.\Generated_Source\PSoC5/UART_1.c ****     *
 736:.\Generated_Source\PSoC5/UART_1.c ****     * Return:
 737:.\Generated_Source\PSoC5/UART_1.c ****     *  None.
 738:.\Generated_Source\PSoC5/UART_1.c ****     *
 739:.\Generated_Source\PSoC5/UART_1.c ****     * Global Variables:
 740:.\Generated_Source\PSoC5/UART_1.c ****     *  UART_1_rxBufferWrite - cleared to zero.
 741:.\Generated_Source\PSoC5/UART_1.c ****     *  UART_1_rxBufferRead - cleared to zero.
 742:.\Generated_Source\PSoC5/UART_1.c ****     *  UART_1_rxBufferLoopDetect - cleared to zero.
 743:.\Generated_Source\PSoC5/UART_1.c ****     *  UART_1_rxBufferOverflow - cleared to zero.
 744:.\Generated_Source\PSoC5/UART_1.c ****     *
 745:.\Generated_Source\PSoC5/UART_1.c ****     * Reentrant:
 746:.\Generated_Source\PSoC5/UART_1.c ****     *  No.
 747:.\Generated_Source\PSoC5/UART_1.c ****     *
 748:.\Generated_Source\PSoC5/UART_1.c ****     * Theory:
 749:.\Generated_Source\PSoC5/UART_1.c ****     *  Setting the pointers to zero makes the system believe there is no data to
 750:.\Generated_Source\PSoC5/UART_1.c ****     *  read and writing will resume at address 0 overwriting any data that may
 751:.\Generated_Source\PSoC5/UART_1.c ****     *  have remained in the RAM.
 752:.\Generated_Source\PSoC5/UART_1.c ****     *
 753:.\Generated_Source\PSoC5/UART_1.c ****     * Side Effects:
 754:.\Generated_Source\PSoC5/UART_1.c ****     *  Any received data not read from the RAM or FIFO buffer will be lost.
 755:.\Generated_Source\PSoC5/UART_1.c ****     *
 756:.\Generated_Source\PSoC5/UART_1.c ****     *******************************************************************************/
 757:.\Generated_Source\PSoC5/UART_1.c ****     void UART_1_ClearRxBuffer(void) 
 758:.\Generated_Source\PSoC5/UART_1.c ****     {
 597              		.loc 1 758 0
 598              		.cfi_startproc
 599              		@ args = 0, pretend = 0, frame = 8
 600              		@ frame_needed = 1, uses_anonymous_args = 0
 601 0000 80B5     		push	{r7, lr}
 602              		.cfi_def_cfa_offset 8
 603              		.cfi_offset 7, -8
 604              		.cfi_offset 14, -4
 605 0002 82B0     		sub	sp, sp, #8
 606              		.cfi_def_cfa_offset 16
 607 0004 00AF     		add	r7, sp, #0
 608              		.cfi_def_cfa_register 7
 759:.\Generated_Source\PSoC5/UART_1.c ****         uint8 enableInterrupts;
ARM GAS  C:\Users\Charlie\AppData\Local\Temp\cc6egklb.s 			page 25


 760:.\Generated_Source\PSoC5/UART_1.c **** 
 761:.\Generated_Source\PSoC5/UART_1.c ****         /* Clear the HW FIFO */
 762:.\Generated_Source\PSoC5/UART_1.c ****         enableInterrupts = CyEnterCriticalSection();
 609              		.loc 1 762 0
 610 0006 FFF7FEFF 		bl	CyEnterCriticalSection
 611 000a 0346     		mov	r3, r0
 612 000c FB71     		strb	r3, [r7, #7]
 763:.\Generated_Source\PSoC5/UART_1.c ****         UART_1_RXDATA_AUX_CTL_REG |= (uint8)  UART_1_RX_FIFO_CLR;
 613              		.loc 1 763 0
 614 000e 0B4B     		ldr	r3, .L42
 615 0010 0A4A     		ldr	r2, .L42
 616 0012 1278     		ldrb	r2, [r2]
 617 0014 D2B2     		uxtb	r2, r2
 618 0016 42F00102 		orr	r2, r2, #1
 619 001a D2B2     		uxtb	r2, r2
 620 001c 1A70     		strb	r2, [r3]
 764:.\Generated_Source\PSoC5/UART_1.c ****         UART_1_RXDATA_AUX_CTL_REG &= (uint8) ~UART_1_RX_FIFO_CLR;
 621              		.loc 1 764 0
 622 001e 074B     		ldr	r3, .L42
 623 0020 064A     		ldr	r2, .L42
 624 0022 1278     		ldrb	r2, [r2]
 625 0024 D2B2     		uxtb	r2, r2
 626 0026 22F00102 		bic	r2, r2, #1
 627 002a D2B2     		uxtb	r2, r2
 628 002c 1A70     		strb	r2, [r3]
 765:.\Generated_Source\PSoC5/UART_1.c ****         CyExitCriticalSection(enableInterrupts);
 629              		.loc 1 765 0
 630 002e FB79     		ldrb	r3, [r7, #7]	@ zero_extendqisi2
 631 0030 1846     		mov	r0, r3
 632 0032 FFF7FEFF 		bl	CyExitCriticalSection
 766:.\Generated_Source\PSoC5/UART_1.c **** 
 767:.\Generated_Source\PSoC5/UART_1.c ****     #if (UART_1_RX_INTERRUPT_ENABLED)
 768:.\Generated_Source\PSoC5/UART_1.c **** 
 769:.\Generated_Source\PSoC5/UART_1.c ****         /* Protect variables that could change on interrupt. */
 770:.\Generated_Source\PSoC5/UART_1.c ****         UART_1_DisableRxInt();
 771:.\Generated_Source\PSoC5/UART_1.c **** 
 772:.\Generated_Source\PSoC5/UART_1.c ****         UART_1_rxBufferRead = 0u;
 773:.\Generated_Source\PSoC5/UART_1.c ****         UART_1_rxBufferWrite = 0u;
 774:.\Generated_Source\PSoC5/UART_1.c ****         UART_1_rxBufferLoopDetect = 0u;
 775:.\Generated_Source\PSoC5/UART_1.c ****         UART_1_rxBufferOverflow = 0u;
 776:.\Generated_Source\PSoC5/UART_1.c **** 
 777:.\Generated_Source\PSoC5/UART_1.c ****         UART_1_EnableRxInt();
 778:.\Generated_Source\PSoC5/UART_1.c **** 
 779:.\Generated_Source\PSoC5/UART_1.c ****     #endif /* (UART_1_RX_INTERRUPT_ENABLED) */
 780:.\Generated_Source\PSoC5/UART_1.c **** 
 781:.\Generated_Source\PSoC5/UART_1.c ****     }
 633              		.loc 1 781 0
 634 0036 0837     		adds	r7, r7, #8
 635 0038 BD46     		mov	sp, r7
 636              		@ sp needed
 637 003a 80BD     		pop	{r7, pc}
 638              	.L43:
 639              		.align	2
 640              	.L42:
 641 003c 99650040 		.word	1073767833
 642              		.cfi_endproc
 643              	.LFE12:
ARM GAS  C:\Users\Charlie\AppData\Local\Temp\cc6egklb.s 			page 26


 644              		.size	UART_1_ClearRxBuffer, .-UART_1_ClearRxBuffer
 645              		.section	.text.UART_1_SetRxAddressMode,"ax",%progbits
 646              		.align	2
 647              		.global	UART_1_SetRxAddressMode
 648              		.thumb
 649              		.thumb_func
 650              		.type	UART_1_SetRxAddressMode, %function
 651              	UART_1_SetRxAddressMode:
 652              	.LFB13:
 782:.\Generated_Source\PSoC5/UART_1.c **** 
 783:.\Generated_Source\PSoC5/UART_1.c **** 
 784:.\Generated_Source\PSoC5/UART_1.c ****     /*******************************************************************************
 785:.\Generated_Source\PSoC5/UART_1.c ****     * Function Name: UART_1_SetRxAddressMode
 786:.\Generated_Source\PSoC5/UART_1.c ****     ********************************************************************************
 787:.\Generated_Source\PSoC5/UART_1.c ****     *
 788:.\Generated_Source\PSoC5/UART_1.c ****     * Summary:
 789:.\Generated_Source\PSoC5/UART_1.c ****     *  Sets the software controlled Addressing mode used by the RX portion of the
 790:.\Generated_Source\PSoC5/UART_1.c ****     *  UART.
 791:.\Generated_Source\PSoC5/UART_1.c ****     *
 792:.\Generated_Source\PSoC5/UART_1.c ****     * Parameters:
 793:.\Generated_Source\PSoC5/UART_1.c ****     *  addressMode: Enumerated value indicating the mode of RX addressing
 794:.\Generated_Source\PSoC5/UART_1.c ****     *  UART_1__B_UART__AM_SW_BYTE_BYTE -  Software Byte-by-Byte address
 795:.\Generated_Source\PSoC5/UART_1.c ****     *                                               detection
 796:.\Generated_Source\PSoC5/UART_1.c ****     *  UART_1__B_UART__AM_SW_DETECT_TO_BUFFER - Software Detect to Buffer
 797:.\Generated_Source\PSoC5/UART_1.c ****     *                                               address detection
 798:.\Generated_Source\PSoC5/UART_1.c ****     *  UART_1__B_UART__AM_HW_BYTE_BY_BYTE - Hardware Byte-by-Byte address
 799:.\Generated_Source\PSoC5/UART_1.c ****     *                                               detection
 800:.\Generated_Source\PSoC5/UART_1.c ****     *  UART_1__B_UART__AM_HW_DETECT_TO_BUFFER - Hardware Detect to Buffer
 801:.\Generated_Source\PSoC5/UART_1.c ****     *                                               address detection
 802:.\Generated_Source\PSoC5/UART_1.c ****     *  UART_1__B_UART__AM_NONE - No address detection
 803:.\Generated_Source\PSoC5/UART_1.c ****     *
 804:.\Generated_Source\PSoC5/UART_1.c ****     * Return:
 805:.\Generated_Source\PSoC5/UART_1.c ****     *  None.
 806:.\Generated_Source\PSoC5/UART_1.c ****     *
 807:.\Generated_Source\PSoC5/UART_1.c ****     * Global Variables:
 808:.\Generated_Source\PSoC5/UART_1.c ****     *  UART_1_rxAddressMode - the parameter stored in this variable for
 809:.\Generated_Source\PSoC5/UART_1.c ****     *   the farther usage in RX ISR.
 810:.\Generated_Source\PSoC5/UART_1.c ****     *  UART_1_rxAddressDetected - set to initial state (0).
 811:.\Generated_Source\PSoC5/UART_1.c ****     *
 812:.\Generated_Source\PSoC5/UART_1.c ****     *******************************************************************************/
 813:.\Generated_Source\PSoC5/UART_1.c ****     void UART_1_SetRxAddressMode(uint8 addressMode)
 814:.\Generated_Source\PSoC5/UART_1.c ****                                                         
 815:.\Generated_Source\PSoC5/UART_1.c ****     {
 653              		.loc 1 815 0
 654              		.cfi_startproc
 655              		@ args = 0, pretend = 0, frame = 8
 656              		@ frame_needed = 1, uses_anonymous_args = 0
 657              		@ link register save eliminated.
 658 0000 80B4     		push	{r7}
 659              		.cfi_def_cfa_offset 4
 660              		.cfi_offset 7, -4
 661 0002 83B0     		sub	sp, sp, #12
 662              		.cfi_def_cfa_offset 16
 663 0004 00AF     		add	r7, sp, #0
 664              		.cfi_def_cfa_register 7
 665 0006 0346     		mov	r3, r0
 666 0008 FB71     		strb	r3, [r7, #7]
ARM GAS  C:\Users\Charlie\AppData\Local\Temp\cc6egklb.s 			page 27


 816:.\Generated_Source\PSoC5/UART_1.c ****         #if(UART_1_RXHW_ADDRESS_ENABLED)
 817:.\Generated_Source\PSoC5/UART_1.c ****             #if(UART_1_CONTROL_REG_REMOVED)
 818:.\Generated_Source\PSoC5/UART_1.c ****                 if(0u != addressMode)
 819:.\Generated_Source\PSoC5/UART_1.c ****                 {
 820:.\Generated_Source\PSoC5/UART_1.c ****                     /* Suppress compiler warning */
 821:.\Generated_Source\PSoC5/UART_1.c ****                 }
 822:.\Generated_Source\PSoC5/UART_1.c ****             #else /* UART_1_CONTROL_REG_REMOVED */
 823:.\Generated_Source\PSoC5/UART_1.c ****                 uint8 tmpCtrl;
 824:.\Generated_Source\PSoC5/UART_1.c ****                 tmpCtrl = UART_1_CONTROL_REG & (uint8)~UART_1_CTRL_RXADDR_MODE_MASK;
 825:.\Generated_Source\PSoC5/UART_1.c ****                 tmpCtrl |= (uint8)(addressMode << UART_1_CTRL_RXADDR_MODE0_SHIFT);
 826:.\Generated_Source\PSoC5/UART_1.c ****                 UART_1_CONTROL_REG = tmpCtrl;
 827:.\Generated_Source\PSoC5/UART_1.c **** 
 828:.\Generated_Source\PSoC5/UART_1.c ****                 #if(UART_1_RX_INTERRUPT_ENABLED && \
 829:.\Generated_Source\PSoC5/UART_1.c ****                    (UART_1_RXBUFFERSIZE > UART_1_FIFO_LENGTH) )
 830:.\Generated_Source\PSoC5/UART_1.c ****                     UART_1_rxAddressMode = addressMode;
 831:.\Generated_Source\PSoC5/UART_1.c ****                     UART_1_rxAddressDetected = 0u;
 832:.\Generated_Source\PSoC5/UART_1.c ****                 #endif /* End UART_1_RXBUFFERSIZE > UART_1_FIFO_LENGTH*/
 833:.\Generated_Source\PSoC5/UART_1.c ****             #endif /* End UART_1_CONTROL_REG_REMOVED */
 834:.\Generated_Source\PSoC5/UART_1.c ****         #else /* UART_1_RXHW_ADDRESS_ENABLED */
 835:.\Generated_Source\PSoC5/UART_1.c ****             if(0u != addressMode)
 836:.\Generated_Source\PSoC5/UART_1.c ****             {
 837:.\Generated_Source\PSoC5/UART_1.c ****                 /* Suppress compiler warning */
 838:.\Generated_Source\PSoC5/UART_1.c ****             }
 839:.\Generated_Source\PSoC5/UART_1.c ****         #endif /* End UART_1_RXHW_ADDRESS_ENABLED */
 840:.\Generated_Source\PSoC5/UART_1.c ****     }
 667              		.loc 1 840 0
 668 000a 0C37     		adds	r7, r7, #12
 669 000c BD46     		mov	sp, r7
 670              		@ sp needed
 671 000e 5DF8047B 		ldr	r7, [sp], #4
 672 0012 7047     		bx	lr
 673              		.cfi_endproc
 674              	.LFE13:
 675              		.size	UART_1_SetRxAddressMode, .-UART_1_SetRxAddressMode
 676              		.section	.text.UART_1_SetRxAddress1,"ax",%progbits
 677              		.align	2
 678              		.global	UART_1_SetRxAddress1
 679              		.thumb
 680              		.thumb_func
 681              		.type	UART_1_SetRxAddress1, %function
 682              	UART_1_SetRxAddress1:
 683              	.LFB14:
 841:.\Generated_Source\PSoC5/UART_1.c **** 
 842:.\Generated_Source\PSoC5/UART_1.c **** 
 843:.\Generated_Source\PSoC5/UART_1.c ****     /*******************************************************************************
 844:.\Generated_Source\PSoC5/UART_1.c ****     * Function Name: UART_1_SetRxAddress1
 845:.\Generated_Source\PSoC5/UART_1.c ****     ********************************************************************************
 846:.\Generated_Source\PSoC5/UART_1.c ****     *
 847:.\Generated_Source\PSoC5/UART_1.c ****     * Summary:
 848:.\Generated_Source\PSoC5/UART_1.c ****     *  Sets the first of two hardware-detectable receiver addresses.
 849:.\Generated_Source\PSoC5/UART_1.c ****     *
 850:.\Generated_Source\PSoC5/UART_1.c ****     * Parameters:
 851:.\Generated_Source\PSoC5/UART_1.c ****     *  address: Address #1 for hardware address detection.
 852:.\Generated_Source\PSoC5/UART_1.c ****     *
 853:.\Generated_Source\PSoC5/UART_1.c ****     * Return:
 854:.\Generated_Source\PSoC5/UART_1.c ****     *  None.
 855:.\Generated_Source\PSoC5/UART_1.c ****     *
ARM GAS  C:\Users\Charlie\AppData\Local\Temp\cc6egklb.s 			page 28


 856:.\Generated_Source\PSoC5/UART_1.c ****     *******************************************************************************/
 857:.\Generated_Source\PSoC5/UART_1.c ****     void UART_1_SetRxAddress1(uint8 address) 
 858:.\Generated_Source\PSoC5/UART_1.c ****     {
 684              		.loc 1 858 0
 685              		.cfi_startproc
 686              		@ args = 0, pretend = 0, frame = 8
 687              		@ frame_needed = 1, uses_anonymous_args = 0
 688              		@ link register save eliminated.
 689 0000 80B4     		push	{r7}
 690              		.cfi_def_cfa_offset 4
 691              		.cfi_offset 7, -4
 692 0002 83B0     		sub	sp, sp, #12
 693              		.cfi_def_cfa_offset 16
 694 0004 00AF     		add	r7, sp, #0
 695              		.cfi_def_cfa_register 7
 696 0006 0346     		mov	r3, r0
 697 0008 FB71     		strb	r3, [r7, #7]
 859:.\Generated_Source\PSoC5/UART_1.c ****         UART_1_RXADDRESS1_REG = address;
 698              		.loc 1 859 0
 699 000a 044B     		ldr	r3, .L46
 700 000c FA79     		ldrb	r2, [r7, #7]
 701 000e 1A70     		strb	r2, [r3]
 860:.\Generated_Source\PSoC5/UART_1.c ****     }
 702              		.loc 1 860 0
 703 0010 0C37     		adds	r7, r7, #12
 704 0012 BD46     		mov	sp, r7
 705              		@ sp needed
 706 0014 5DF8047B 		ldr	r7, [sp], #4
 707 0018 7047     		bx	lr
 708              	.L47:
 709 001a 00BF     		.align	2
 710              	.L46:
 711 001c 29650040 		.word	1073767721
 712              		.cfi_endproc
 713              	.LFE14:
 714              		.size	UART_1_SetRxAddress1, .-UART_1_SetRxAddress1
 715              		.section	.text.UART_1_SetRxAddress2,"ax",%progbits
 716              		.align	2
 717              		.global	UART_1_SetRxAddress2
 718              		.thumb
 719              		.thumb_func
 720              		.type	UART_1_SetRxAddress2, %function
 721              	UART_1_SetRxAddress2:
 722              	.LFB15:
 861:.\Generated_Source\PSoC5/UART_1.c **** 
 862:.\Generated_Source\PSoC5/UART_1.c **** 
 863:.\Generated_Source\PSoC5/UART_1.c ****     /*******************************************************************************
 864:.\Generated_Source\PSoC5/UART_1.c ****     * Function Name: UART_1_SetRxAddress2
 865:.\Generated_Source\PSoC5/UART_1.c ****     ********************************************************************************
 866:.\Generated_Source\PSoC5/UART_1.c ****     *
 867:.\Generated_Source\PSoC5/UART_1.c ****     * Summary:
 868:.\Generated_Source\PSoC5/UART_1.c ****     *  Sets the second of two hardware-detectable receiver addresses.
 869:.\Generated_Source\PSoC5/UART_1.c ****     *
 870:.\Generated_Source\PSoC5/UART_1.c ****     * Parameters:
 871:.\Generated_Source\PSoC5/UART_1.c ****     *  address: Address #2 for hardware address detection.
 872:.\Generated_Source\PSoC5/UART_1.c ****     *
 873:.\Generated_Source\PSoC5/UART_1.c ****     * Return:
ARM GAS  C:\Users\Charlie\AppData\Local\Temp\cc6egklb.s 			page 29


 874:.\Generated_Source\PSoC5/UART_1.c ****     *  None.
 875:.\Generated_Source\PSoC5/UART_1.c ****     *
 876:.\Generated_Source\PSoC5/UART_1.c ****     *******************************************************************************/
 877:.\Generated_Source\PSoC5/UART_1.c ****     void UART_1_SetRxAddress2(uint8 address) 
 878:.\Generated_Source\PSoC5/UART_1.c ****     {
 723              		.loc 1 878 0
 724              		.cfi_startproc
 725              		@ args = 0, pretend = 0, frame = 8
 726              		@ frame_needed = 1, uses_anonymous_args = 0
 727              		@ link register save eliminated.
 728 0000 80B4     		push	{r7}
 729              		.cfi_def_cfa_offset 4
 730              		.cfi_offset 7, -4
 731 0002 83B0     		sub	sp, sp, #12
 732              		.cfi_def_cfa_offset 16
 733 0004 00AF     		add	r7, sp, #0
 734              		.cfi_def_cfa_register 7
 735 0006 0346     		mov	r3, r0
 736 0008 FB71     		strb	r3, [r7, #7]
 879:.\Generated_Source\PSoC5/UART_1.c ****         UART_1_RXADDRESS2_REG = address;
 737              		.loc 1 879 0
 738 000a 044B     		ldr	r3, .L49
 739 000c FA79     		ldrb	r2, [r7, #7]
 740 000e 1A70     		strb	r2, [r3]
 880:.\Generated_Source\PSoC5/UART_1.c ****     }
 741              		.loc 1 880 0
 742 0010 0C37     		adds	r7, r7, #12
 743 0012 BD46     		mov	sp, r7
 744              		@ sp needed
 745 0014 5DF8047B 		ldr	r7, [sp], #4
 746 0018 7047     		bx	lr
 747              	.L50:
 748 001a 00BF     		.align	2
 749              	.L49:
 750 001c 39650040 		.word	1073767737
 751              		.cfi_endproc
 752              	.LFE15:
 753              		.size	UART_1_SetRxAddress2, .-UART_1_SetRxAddress2
 754              		.section	.text.UART_1_SetTxInterruptMode,"ax",%progbits
 755              		.align	2
 756              		.global	UART_1_SetTxInterruptMode
 757              		.thumb
 758              		.thumb_func
 759              		.type	UART_1_SetTxInterruptMode, %function
 760              	UART_1_SetTxInterruptMode:
 761              	.LFB16:
 881:.\Generated_Source\PSoC5/UART_1.c **** 
 882:.\Generated_Source\PSoC5/UART_1.c **** #endif  /* UART_1_RX_ENABLED || UART_1_HD_ENABLED*/
 883:.\Generated_Source\PSoC5/UART_1.c **** 
 884:.\Generated_Source\PSoC5/UART_1.c **** 
 885:.\Generated_Source\PSoC5/UART_1.c **** #if( (UART_1_TX_ENABLED) || (UART_1_HD_ENABLED) )
 886:.\Generated_Source\PSoC5/UART_1.c ****     /*******************************************************************************
 887:.\Generated_Source\PSoC5/UART_1.c ****     * Function Name: UART_1_SetTxInterruptMode
 888:.\Generated_Source\PSoC5/UART_1.c ****     ********************************************************************************
 889:.\Generated_Source\PSoC5/UART_1.c ****     *
 890:.\Generated_Source\PSoC5/UART_1.c ****     * Summary:
 891:.\Generated_Source\PSoC5/UART_1.c ****     *  Configures the TX interrupt sources to be enabled, but does not enable the
ARM GAS  C:\Users\Charlie\AppData\Local\Temp\cc6egklb.s 			page 30


 892:.\Generated_Source\PSoC5/UART_1.c ****     *  interrupt.
 893:.\Generated_Source\PSoC5/UART_1.c ****     *
 894:.\Generated_Source\PSoC5/UART_1.c ****     * Parameters:
 895:.\Generated_Source\PSoC5/UART_1.c ****     *  intSrc: Bit field containing the TX interrupt sources to enable
 896:.\Generated_Source\PSoC5/UART_1.c ****     *   UART_1_TX_STS_COMPLETE        Interrupt on TX byte complete
 897:.\Generated_Source\PSoC5/UART_1.c ****     *   UART_1_TX_STS_FIFO_EMPTY      Interrupt when TX FIFO is empty
 898:.\Generated_Source\PSoC5/UART_1.c ****     *   UART_1_TX_STS_FIFO_FULL       Interrupt when TX FIFO is full
 899:.\Generated_Source\PSoC5/UART_1.c ****     *   UART_1_TX_STS_FIFO_NOT_FULL   Interrupt when TX FIFO is not full
 900:.\Generated_Source\PSoC5/UART_1.c ****     *
 901:.\Generated_Source\PSoC5/UART_1.c ****     * Return:
 902:.\Generated_Source\PSoC5/UART_1.c ****     *  None.
 903:.\Generated_Source\PSoC5/UART_1.c ****     *
 904:.\Generated_Source\PSoC5/UART_1.c ****     * Theory:
 905:.\Generated_Source\PSoC5/UART_1.c ****     *  Enables the output of specific status bits to the interrupt controller
 906:.\Generated_Source\PSoC5/UART_1.c ****     *
 907:.\Generated_Source\PSoC5/UART_1.c ****     *******************************************************************************/
 908:.\Generated_Source\PSoC5/UART_1.c ****     void UART_1_SetTxInterruptMode(uint8 intSrc) 
 909:.\Generated_Source\PSoC5/UART_1.c ****     {
 762              		.loc 1 909 0
 763              		.cfi_startproc
 764              		@ args = 0, pretend = 0, frame = 8
 765              		@ frame_needed = 1, uses_anonymous_args = 0
 766              		@ link register save eliminated.
 767 0000 80B4     		push	{r7}
 768              		.cfi_def_cfa_offset 4
 769              		.cfi_offset 7, -4
 770 0002 83B0     		sub	sp, sp, #12
 771              		.cfi_def_cfa_offset 16
 772 0004 00AF     		add	r7, sp, #0
 773              		.cfi_def_cfa_register 7
 774 0006 0346     		mov	r3, r0
 775 0008 FB71     		strb	r3, [r7, #7]
 910:.\Generated_Source\PSoC5/UART_1.c ****         UART_1_TXSTATUS_MASK_REG = intSrc;
 776              		.loc 1 910 0
 777 000a 044B     		ldr	r3, .L52
 778 000c FA79     		ldrb	r2, [r7, #7]
 779 000e 1A70     		strb	r2, [r3]
 911:.\Generated_Source\PSoC5/UART_1.c ****     }
 780              		.loc 1 911 0
 781 0010 0C37     		adds	r7, r7, #12
 782 0012 BD46     		mov	sp, r7
 783              		@ sp needed
 784 0014 5DF8047B 		ldr	r7, [sp], #4
 785 0018 7047     		bx	lr
 786              	.L53:
 787 001a 00BF     		.align	2
 788              	.L52:
 789 001c 84650040 		.word	1073767812
 790              		.cfi_endproc
 791              	.LFE16:
 792              		.size	UART_1_SetTxInterruptMode, .-UART_1_SetTxInterruptMode
 793              		.section	.text.UART_1_WriteTxData,"ax",%progbits
 794              		.align	2
 795              		.global	UART_1_WriteTxData
 796              		.thumb
 797              		.thumb_func
 798              		.type	UART_1_WriteTxData, %function
ARM GAS  C:\Users\Charlie\AppData\Local\Temp\cc6egklb.s 			page 31


 799              	UART_1_WriteTxData:
 800              	.LFB17:
 912:.\Generated_Source\PSoC5/UART_1.c **** 
 913:.\Generated_Source\PSoC5/UART_1.c **** 
 914:.\Generated_Source\PSoC5/UART_1.c ****     /*******************************************************************************
 915:.\Generated_Source\PSoC5/UART_1.c ****     * Function Name: UART_1_WriteTxData
 916:.\Generated_Source\PSoC5/UART_1.c ****     ********************************************************************************
 917:.\Generated_Source\PSoC5/UART_1.c ****     *
 918:.\Generated_Source\PSoC5/UART_1.c ****     * Summary:
 919:.\Generated_Source\PSoC5/UART_1.c ****     *  Places a byte of data into the transmit buffer to be sent when the bus is
 920:.\Generated_Source\PSoC5/UART_1.c ****     *  available without checking the TX status register. You must check status
 921:.\Generated_Source\PSoC5/UART_1.c ****     *  separately.
 922:.\Generated_Source\PSoC5/UART_1.c ****     *
 923:.\Generated_Source\PSoC5/UART_1.c ****     * Parameters:
 924:.\Generated_Source\PSoC5/UART_1.c ****     *  txDataByte: data byte
 925:.\Generated_Source\PSoC5/UART_1.c ****     *
 926:.\Generated_Source\PSoC5/UART_1.c ****     * Return:
 927:.\Generated_Source\PSoC5/UART_1.c ****     * None.
 928:.\Generated_Source\PSoC5/UART_1.c ****     *
 929:.\Generated_Source\PSoC5/UART_1.c ****     * Global Variables:
 930:.\Generated_Source\PSoC5/UART_1.c ****     *  UART_1_txBuffer - RAM buffer pointer for save data for transmission
 931:.\Generated_Source\PSoC5/UART_1.c ****     *  UART_1_txBufferWrite - cyclic index for write to txBuffer,
 932:.\Generated_Source\PSoC5/UART_1.c ****     *    incremented after each byte saved to buffer.
 933:.\Generated_Source\PSoC5/UART_1.c ****     *  UART_1_txBufferRead - cyclic index for read from txBuffer,
 934:.\Generated_Source\PSoC5/UART_1.c ****     *    checked to identify the condition to write to FIFO directly or to TX buffer
 935:.\Generated_Source\PSoC5/UART_1.c ****     *  UART_1_initVar - checked to identify that the component has been
 936:.\Generated_Source\PSoC5/UART_1.c ****     *    initialized.
 937:.\Generated_Source\PSoC5/UART_1.c ****     *
 938:.\Generated_Source\PSoC5/UART_1.c ****     * Reentrant:
 939:.\Generated_Source\PSoC5/UART_1.c ****     *  No.
 940:.\Generated_Source\PSoC5/UART_1.c ****     *
 941:.\Generated_Source\PSoC5/UART_1.c ****     *******************************************************************************/
 942:.\Generated_Source\PSoC5/UART_1.c ****     void UART_1_WriteTxData(uint8 txDataByte) 
 943:.\Generated_Source\PSoC5/UART_1.c ****     {
 801              		.loc 1 943 0
 802              		.cfi_startproc
 803              		@ args = 0, pretend = 0, frame = 8
 804              		@ frame_needed = 1, uses_anonymous_args = 0
 805              		@ link register save eliminated.
 806 0000 80B4     		push	{r7}
 807              		.cfi_def_cfa_offset 4
 808              		.cfi_offset 7, -4
 809 0002 83B0     		sub	sp, sp, #12
 810              		.cfi_def_cfa_offset 16
 811 0004 00AF     		add	r7, sp, #0
 812              		.cfi_def_cfa_register 7
 813 0006 0346     		mov	r3, r0
 814 0008 FB71     		strb	r3, [r7, #7]
 944:.\Generated_Source\PSoC5/UART_1.c ****         /* If not Initialized then skip this function*/
 945:.\Generated_Source\PSoC5/UART_1.c ****         if(UART_1_initVar != 0u)
 815              		.loc 1 945 0
 816 000a 064B     		ldr	r3, .L56
 817 000c 1B78     		ldrb	r3, [r3]	@ zero_extendqisi2
 818 000e 002B     		cmp	r3, #0
 819 0010 02D0     		beq	.L54
 946:.\Generated_Source\PSoC5/UART_1.c ****         {
 947:.\Generated_Source\PSoC5/UART_1.c ****         #if (UART_1_TX_INTERRUPT_ENABLED)
ARM GAS  C:\Users\Charlie\AppData\Local\Temp\cc6egklb.s 			page 32


 948:.\Generated_Source\PSoC5/UART_1.c **** 
 949:.\Generated_Source\PSoC5/UART_1.c ****             /* Protect variables that could change on interrupt. */
 950:.\Generated_Source\PSoC5/UART_1.c ****             UART_1_DisableTxInt();
 951:.\Generated_Source\PSoC5/UART_1.c **** 
 952:.\Generated_Source\PSoC5/UART_1.c ****             if( (UART_1_txBufferRead == UART_1_txBufferWrite) &&
 953:.\Generated_Source\PSoC5/UART_1.c ****                 ((UART_1_TXSTATUS_REG & UART_1_TX_STS_FIFO_FULL) == 0u) )
 954:.\Generated_Source\PSoC5/UART_1.c ****             {
 955:.\Generated_Source\PSoC5/UART_1.c ****                 /* Add directly to the FIFO. */
 956:.\Generated_Source\PSoC5/UART_1.c ****                 UART_1_TXDATA_REG = txDataByte;
 957:.\Generated_Source\PSoC5/UART_1.c ****             }
 958:.\Generated_Source\PSoC5/UART_1.c ****             else
 959:.\Generated_Source\PSoC5/UART_1.c ****             {
 960:.\Generated_Source\PSoC5/UART_1.c ****                 if(UART_1_txBufferWrite >= UART_1_TX_BUFFER_SIZE)
 961:.\Generated_Source\PSoC5/UART_1.c ****                 {
 962:.\Generated_Source\PSoC5/UART_1.c ****                     UART_1_txBufferWrite = 0u;
 963:.\Generated_Source\PSoC5/UART_1.c ****                 }
 964:.\Generated_Source\PSoC5/UART_1.c **** 
 965:.\Generated_Source\PSoC5/UART_1.c ****                 UART_1_txBuffer[UART_1_txBufferWrite] = txDataByte;
 966:.\Generated_Source\PSoC5/UART_1.c **** 
 967:.\Generated_Source\PSoC5/UART_1.c ****                 /* Add to the software buffer. */
 968:.\Generated_Source\PSoC5/UART_1.c ****                 UART_1_txBufferWrite++;
 969:.\Generated_Source\PSoC5/UART_1.c ****             }
 970:.\Generated_Source\PSoC5/UART_1.c **** 
 971:.\Generated_Source\PSoC5/UART_1.c ****             UART_1_EnableTxInt();
 972:.\Generated_Source\PSoC5/UART_1.c **** 
 973:.\Generated_Source\PSoC5/UART_1.c ****         #else
 974:.\Generated_Source\PSoC5/UART_1.c **** 
 975:.\Generated_Source\PSoC5/UART_1.c ****             /* Add directly to the FIFO. */
 976:.\Generated_Source\PSoC5/UART_1.c ****             UART_1_TXDATA_REG = txDataByte;
 820              		.loc 1 976 0
 821 0012 054B     		ldr	r3, .L56+4
 822 0014 FA79     		ldrb	r2, [r7, #7]
 823 0016 1A70     		strb	r2, [r3]
 824              	.L54:
 977:.\Generated_Source\PSoC5/UART_1.c **** 
 978:.\Generated_Source\PSoC5/UART_1.c ****         #endif /*(UART_1_TX_INTERRUPT_ENABLED) */
 979:.\Generated_Source\PSoC5/UART_1.c ****         }
 980:.\Generated_Source\PSoC5/UART_1.c ****     }
 825              		.loc 1 980 0
 826 0018 0C37     		adds	r7, r7, #12
 827 001a BD46     		mov	sp, r7
 828              		@ sp needed
 829 001c 5DF8047B 		ldr	r7, [sp], #4
 830 0020 7047     		bx	lr
 831              	.L57:
 832 0022 00BF     		.align	2
 833              	.L56:
 834 0024 00000000 		.word	UART_1_initVar
 835 0028 44650040 		.word	1073767748
 836              		.cfi_endproc
 837              	.LFE17:
 838              		.size	UART_1_WriteTxData, .-UART_1_WriteTxData
 839              		.section	.text.UART_1_ReadTxStatus,"ax",%progbits
 840              		.align	2
 841              		.global	UART_1_ReadTxStatus
 842              		.thumb
 843              		.thumb_func
ARM GAS  C:\Users\Charlie\AppData\Local\Temp\cc6egklb.s 			page 33


 844              		.type	UART_1_ReadTxStatus, %function
 845              	UART_1_ReadTxStatus:
 846              	.LFB18:
 981:.\Generated_Source\PSoC5/UART_1.c **** 
 982:.\Generated_Source\PSoC5/UART_1.c **** 
 983:.\Generated_Source\PSoC5/UART_1.c ****     /*******************************************************************************
 984:.\Generated_Source\PSoC5/UART_1.c ****     * Function Name: UART_1_ReadTxStatus
 985:.\Generated_Source\PSoC5/UART_1.c ****     ********************************************************************************
 986:.\Generated_Source\PSoC5/UART_1.c ****     *
 987:.\Generated_Source\PSoC5/UART_1.c ****     * Summary:
 988:.\Generated_Source\PSoC5/UART_1.c ****     *  Reads the status register for the TX portion of the UART.
 989:.\Generated_Source\PSoC5/UART_1.c ****     *
 990:.\Generated_Source\PSoC5/UART_1.c ****     * Parameters:
 991:.\Generated_Source\PSoC5/UART_1.c ****     *  None.
 992:.\Generated_Source\PSoC5/UART_1.c ****     *
 993:.\Generated_Source\PSoC5/UART_1.c ****     * Return:
 994:.\Generated_Source\PSoC5/UART_1.c ****     *  Contents of the status register
 995:.\Generated_Source\PSoC5/UART_1.c ****     *
 996:.\Generated_Source\PSoC5/UART_1.c ****     * Theory:
 997:.\Generated_Source\PSoC5/UART_1.c ****     *  This function reads the TX status register, which is cleared on read.
 998:.\Generated_Source\PSoC5/UART_1.c ****     *  It is up to the user to handle all bits in this return value accordingly,
 999:.\Generated_Source\PSoC5/UART_1.c ****     *  even if the bit was not enabled as an interrupt source the event happened
1000:.\Generated_Source\PSoC5/UART_1.c ****     *  and must be handled accordingly.
1001:.\Generated_Source\PSoC5/UART_1.c ****     *
1002:.\Generated_Source\PSoC5/UART_1.c ****     *******************************************************************************/
1003:.\Generated_Source\PSoC5/UART_1.c ****     uint8 UART_1_ReadTxStatus(void) 
1004:.\Generated_Source\PSoC5/UART_1.c ****     {
 847              		.loc 1 1004 0
 848              		.cfi_startproc
 849              		@ args = 0, pretend = 0, frame = 0
 850              		@ frame_needed = 1, uses_anonymous_args = 0
 851              		@ link register save eliminated.
 852 0000 80B4     		push	{r7}
 853              		.cfi_def_cfa_offset 4
 854              		.cfi_offset 7, -4
 855 0002 00AF     		add	r7, sp, #0
 856              		.cfi_def_cfa_register 7
1005:.\Generated_Source\PSoC5/UART_1.c ****         return(UART_1_TXSTATUS_REG);
 857              		.loc 1 1005 0
 858 0004 034B     		ldr	r3, .L60
 859 0006 1B78     		ldrb	r3, [r3]
 860 0008 DBB2     		uxtb	r3, r3
1006:.\Generated_Source\PSoC5/UART_1.c ****     }
 861              		.loc 1 1006 0
 862 000a 1846     		mov	r0, r3
 863 000c BD46     		mov	sp, r7
 864              		@ sp needed
 865 000e 5DF8047B 		ldr	r7, [sp], #4
 866 0012 7047     		bx	lr
 867              	.L61:
 868              		.align	2
 869              	.L60:
 870 0014 64650040 		.word	1073767780
 871              		.cfi_endproc
 872              	.LFE18:
 873              		.size	UART_1_ReadTxStatus, .-UART_1_ReadTxStatus
 874              		.section	.text.UART_1_PutChar,"ax",%progbits
ARM GAS  C:\Users\Charlie\AppData\Local\Temp\cc6egklb.s 			page 34


 875              		.align	2
 876              		.global	UART_1_PutChar
 877              		.thumb
 878              		.thumb_func
 879              		.type	UART_1_PutChar, %function
 880              	UART_1_PutChar:
 881              	.LFB19:
1007:.\Generated_Source\PSoC5/UART_1.c **** 
1008:.\Generated_Source\PSoC5/UART_1.c **** 
1009:.\Generated_Source\PSoC5/UART_1.c ****     /*******************************************************************************
1010:.\Generated_Source\PSoC5/UART_1.c ****     * Function Name: UART_1_PutChar
1011:.\Generated_Source\PSoC5/UART_1.c ****     ********************************************************************************
1012:.\Generated_Source\PSoC5/UART_1.c ****     *
1013:.\Generated_Source\PSoC5/UART_1.c ****     * Summary:
1014:.\Generated_Source\PSoC5/UART_1.c ****     *  Puts a byte of data into the transmit buffer to be sent when the bus is
1015:.\Generated_Source\PSoC5/UART_1.c ****     *  available. This is a blocking API that waits until the TX buffer has room to
1016:.\Generated_Source\PSoC5/UART_1.c ****     *  hold the data.
1017:.\Generated_Source\PSoC5/UART_1.c ****     *
1018:.\Generated_Source\PSoC5/UART_1.c ****     * Parameters:
1019:.\Generated_Source\PSoC5/UART_1.c ****     *  txDataByte: Byte containing the data to transmit
1020:.\Generated_Source\PSoC5/UART_1.c ****     *
1021:.\Generated_Source\PSoC5/UART_1.c ****     * Return:
1022:.\Generated_Source\PSoC5/UART_1.c ****     *  None.
1023:.\Generated_Source\PSoC5/UART_1.c ****     *
1024:.\Generated_Source\PSoC5/UART_1.c ****     * Global Variables:
1025:.\Generated_Source\PSoC5/UART_1.c ****     *  UART_1_txBuffer - RAM buffer pointer for save data for transmission
1026:.\Generated_Source\PSoC5/UART_1.c ****     *  UART_1_txBufferWrite - cyclic index for write to txBuffer,
1027:.\Generated_Source\PSoC5/UART_1.c ****     *     checked to identify free space in txBuffer and incremented after each byte
1028:.\Generated_Source\PSoC5/UART_1.c ****     *     saved to buffer.
1029:.\Generated_Source\PSoC5/UART_1.c ****     *  UART_1_txBufferRead - cyclic index for read from txBuffer,
1030:.\Generated_Source\PSoC5/UART_1.c ****     *     checked to identify free space in txBuffer.
1031:.\Generated_Source\PSoC5/UART_1.c ****     *  UART_1_initVar - checked to identify that the component has been
1032:.\Generated_Source\PSoC5/UART_1.c ****     *     initialized.
1033:.\Generated_Source\PSoC5/UART_1.c ****     *
1034:.\Generated_Source\PSoC5/UART_1.c ****     * Reentrant:
1035:.\Generated_Source\PSoC5/UART_1.c ****     *  No.
1036:.\Generated_Source\PSoC5/UART_1.c ****     *
1037:.\Generated_Source\PSoC5/UART_1.c ****     * Theory:
1038:.\Generated_Source\PSoC5/UART_1.c ****     *  Allows the user to transmit any byte of data in a single transfer
1039:.\Generated_Source\PSoC5/UART_1.c ****     *
1040:.\Generated_Source\PSoC5/UART_1.c ****     *******************************************************************************/
1041:.\Generated_Source\PSoC5/UART_1.c ****     void UART_1_PutChar(uint8 txDataByte) 
1042:.\Generated_Source\PSoC5/UART_1.c ****     {
 882              		.loc 1 1042 0
 883              		.cfi_startproc
 884              		@ args = 0, pretend = 0, frame = 8
 885              		@ frame_needed = 1, uses_anonymous_args = 0
 886              		@ link register save eliminated.
 887 0000 80B4     		push	{r7}
 888              		.cfi_def_cfa_offset 4
 889              		.cfi_offset 7, -4
 890 0002 83B0     		sub	sp, sp, #12
 891              		.cfi_def_cfa_offset 16
 892 0004 00AF     		add	r7, sp, #0
 893              		.cfi_def_cfa_register 7
 894 0006 0346     		mov	r3, r0
 895 0008 FB71     		strb	r3, [r7, #7]
ARM GAS  C:\Users\Charlie\AppData\Local\Temp\cc6egklb.s 			page 35


1043:.\Generated_Source\PSoC5/UART_1.c ****     #if (UART_1_TX_INTERRUPT_ENABLED)
1044:.\Generated_Source\PSoC5/UART_1.c ****         /* The temporary output pointer is used since it takes two instructions
1045:.\Generated_Source\PSoC5/UART_1.c ****         *  to increment with a wrap, and we can't risk doing that with the real
1046:.\Generated_Source\PSoC5/UART_1.c ****         *  pointer and getting an interrupt in between instructions.
1047:.\Generated_Source\PSoC5/UART_1.c ****         */
1048:.\Generated_Source\PSoC5/UART_1.c ****         uint8 locTxBufferWrite;
1049:.\Generated_Source\PSoC5/UART_1.c ****         uint8 locTxBufferRead;
1050:.\Generated_Source\PSoC5/UART_1.c **** 
1051:.\Generated_Source\PSoC5/UART_1.c ****         do
1052:.\Generated_Source\PSoC5/UART_1.c ****         { /* Block if software buffer is full, so we don't overwrite. */
1053:.\Generated_Source\PSoC5/UART_1.c **** 
1054:.\Generated_Source\PSoC5/UART_1.c ****         #if ((UART_1_TX_BUFFER_SIZE > UART_1_MAX_BYTE_VALUE) && (CY_PSOC3))
1055:.\Generated_Source\PSoC5/UART_1.c ****             /* Disable TX interrupt to protect variables from modification */
1056:.\Generated_Source\PSoC5/UART_1.c ****             UART_1_DisableTxInt();
1057:.\Generated_Source\PSoC5/UART_1.c ****         #endif /* (UART_1_TX_BUFFER_SIZE > 255) */
1058:.\Generated_Source\PSoC5/UART_1.c **** 
1059:.\Generated_Source\PSoC5/UART_1.c ****             locTxBufferWrite = UART_1_txBufferWrite;
1060:.\Generated_Source\PSoC5/UART_1.c ****             locTxBufferRead  = UART_1_txBufferRead;
1061:.\Generated_Source\PSoC5/UART_1.c **** 
1062:.\Generated_Source\PSoC5/UART_1.c ****         #if ((UART_1_TX_BUFFER_SIZE > UART_1_MAX_BYTE_VALUE) && (CY_PSOC3))
1063:.\Generated_Source\PSoC5/UART_1.c ****             /* Enable interrupt to continue transmission */
1064:.\Generated_Source\PSoC5/UART_1.c ****             UART_1_EnableTxInt();
1065:.\Generated_Source\PSoC5/UART_1.c ****         #endif /* (UART_1_TX_BUFFER_SIZE > 255) */
1066:.\Generated_Source\PSoC5/UART_1.c ****         }
1067:.\Generated_Source\PSoC5/UART_1.c ****         while( (locTxBufferWrite < locTxBufferRead) ? (locTxBufferWrite == (locTxBufferRead - 1u)) 
1068:.\Generated_Source\PSoC5/UART_1.c ****                                 ((locTxBufferWrite - locTxBufferRead) ==
1069:.\Generated_Source\PSoC5/UART_1.c ****                                 (uint8)(UART_1_TX_BUFFER_SIZE - 1u)) );
1070:.\Generated_Source\PSoC5/UART_1.c **** 
1071:.\Generated_Source\PSoC5/UART_1.c ****         if( (locTxBufferRead == locTxBufferWrite) &&
1072:.\Generated_Source\PSoC5/UART_1.c ****             ((UART_1_TXSTATUS_REG & UART_1_TX_STS_FIFO_FULL) == 0u) )
1073:.\Generated_Source\PSoC5/UART_1.c ****         {
1074:.\Generated_Source\PSoC5/UART_1.c ****             /* Add directly to the FIFO */
1075:.\Generated_Source\PSoC5/UART_1.c ****             UART_1_TXDATA_REG = txDataByte;
1076:.\Generated_Source\PSoC5/UART_1.c ****         }
1077:.\Generated_Source\PSoC5/UART_1.c ****         else
1078:.\Generated_Source\PSoC5/UART_1.c ****         {
1079:.\Generated_Source\PSoC5/UART_1.c ****             if(locTxBufferWrite >= UART_1_TX_BUFFER_SIZE)
1080:.\Generated_Source\PSoC5/UART_1.c ****             {
1081:.\Generated_Source\PSoC5/UART_1.c ****                 locTxBufferWrite = 0u;
1082:.\Generated_Source\PSoC5/UART_1.c ****             }
1083:.\Generated_Source\PSoC5/UART_1.c ****             /* Add to the software buffer. */
1084:.\Generated_Source\PSoC5/UART_1.c ****             UART_1_txBuffer[locTxBufferWrite] = txDataByte;
1085:.\Generated_Source\PSoC5/UART_1.c ****             locTxBufferWrite++;
1086:.\Generated_Source\PSoC5/UART_1.c **** 
1087:.\Generated_Source\PSoC5/UART_1.c ****             /* Finally, update the real output pointer */
1088:.\Generated_Source\PSoC5/UART_1.c ****         #if ((UART_1_TX_BUFFER_SIZE > UART_1_MAX_BYTE_VALUE) && (CY_PSOC3))
1089:.\Generated_Source\PSoC5/UART_1.c ****             UART_1_DisableTxInt();
1090:.\Generated_Source\PSoC5/UART_1.c ****         #endif /* (UART_1_TX_BUFFER_SIZE > 255) */
1091:.\Generated_Source\PSoC5/UART_1.c **** 
1092:.\Generated_Source\PSoC5/UART_1.c ****             UART_1_txBufferWrite = locTxBufferWrite;
1093:.\Generated_Source\PSoC5/UART_1.c **** 
1094:.\Generated_Source\PSoC5/UART_1.c ****         #if ((UART_1_TX_BUFFER_SIZE > UART_1_MAX_BYTE_VALUE) && (CY_PSOC3))
1095:.\Generated_Source\PSoC5/UART_1.c ****             UART_1_EnableTxInt();
1096:.\Generated_Source\PSoC5/UART_1.c ****         #endif /* (UART_1_TX_BUFFER_SIZE > 255) */
1097:.\Generated_Source\PSoC5/UART_1.c **** 
1098:.\Generated_Source\PSoC5/UART_1.c ****             if(0u != (UART_1_TXSTATUS_REG & UART_1_TX_STS_FIFO_EMPTY))
1099:.\Generated_Source\PSoC5/UART_1.c ****             {
ARM GAS  C:\Users\Charlie\AppData\Local\Temp\cc6egklb.s 			page 36


1100:.\Generated_Source\PSoC5/UART_1.c ****                 /* Trigger TX interrupt to send software buffer */
1101:.\Generated_Source\PSoC5/UART_1.c ****                 UART_1_SetPendingTxInt();
1102:.\Generated_Source\PSoC5/UART_1.c ****             }
1103:.\Generated_Source\PSoC5/UART_1.c ****         }
1104:.\Generated_Source\PSoC5/UART_1.c **** 
1105:.\Generated_Source\PSoC5/UART_1.c ****     #else
1106:.\Generated_Source\PSoC5/UART_1.c **** 
1107:.\Generated_Source\PSoC5/UART_1.c ****         while((UART_1_TXSTATUS_REG & UART_1_TX_STS_FIFO_FULL) != 0u)
 896              		.loc 1 1107 0
 897 000a 00BF     		nop
 898              	.L63:
 899              		.loc 1 1107 0 is_stmt 0 discriminator 1
 900 000c 074B     		ldr	r3, .L64
 901 000e 1B78     		ldrb	r3, [r3]
 902 0010 DBB2     		uxtb	r3, r3
 903 0012 03F00403 		and	r3, r3, #4
 904 0016 002B     		cmp	r3, #0
 905 0018 F8D1     		bne	.L63
1108:.\Generated_Source\PSoC5/UART_1.c ****         {
1109:.\Generated_Source\PSoC5/UART_1.c ****             /* Wait for room in the FIFO */
1110:.\Generated_Source\PSoC5/UART_1.c ****         }
1111:.\Generated_Source\PSoC5/UART_1.c **** 
1112:.\Generated_Source\PSoC5/UART_1.c ****         /* Add directly to the FIFO */
1113:.\Generated_Source\PSoC5/UART_1.c ****         UART_1_TXDATA_REG = txDataByte;
 906              		.loc 1 1113 0 is_stmt 1
 907 001a 054B     		ldr	r3, .L64+4
 908 001c FA79     		ldrb	r2, [r7, #7]
 909 001e 1A70     		strb	r2, [r3]
1114:.\Generated_Source\PSoC5/UART_1.c **** 
1115:.\Generated_Source\PSoC5/UART_1.c ****     #endif /* End (UART_1_TX_INTERRUPT_ENABLED) */
1116:.\Generated_Source\PSoC5/UART_1.c ****     }
 910              		.loc 1 1116 0
 911 0020 0C37     		adds	r7, r7, #12
 912 0022 BD46     		mov	sp, r7
 913              		@ sp needed
 914 0024 5DF8047B 		ldr	r7, [sp], #4
 915 0028 7047     		bx	lr
 916              	.L65:
 917 002a 00BF     		.align	2
 918              	.L64:
 919 002c 64650040 		.word	1073767780
 920 0030 44650040 		.word	1073767748
 921              		.cfi_endproc
 922              	.LFE19:
 923              		.size	UART_1_PutChar, .-UART_1_PutChar
 924              		.section	.text.UART_1_PutString,"ax",%progbits
 925              		.align	2
 926              		.global	UART_1_PutString
 927              		.thumb
 928              		.thumb_func
 929              		.type	UART_1_PutString, %function
 930              	UART_1_PutString:
 931              	.LFB20:
1117:.\Generated_Source\PSoC5/UART_1.c **** 
1118:.\Generated_Source\PSoC5/UART_1.c **** 
1119:.\Generated_Source\PSoC5/UART_1.c ****     /*******************************************************************************
1120:.\Generated_Source\PSoC5/UART_1.c ****     * Function Name: UART_1_PutString
ARM GAS  C:\Users\Charlie\AppData\Local\Temp\cc6egklb.s 			page 37


1121:.\Generated_Source\PSoC5/UART_1.c ****     ********************************************************************************
1122:.\Generated_Source\PSoC5/UART_1.c ****     *
1123:.\Generated_Source\PSoC5/UART_1.c ****     * Summary:
1124:.\Generated_Source\PSoC5/UART_1.c ****     *  Sends a NULL terminated string to the TX buffer for transmission.
1125:.\Generated_Source\PSoC5/UART_1.c ****     *
1126:.\Generated_Source\PSoC5/UART_1.c ****     * Parameters:
1127:.\Generated_Source\PSoC5/UART_1.c ****     *  string[]: Pointer to the null terminated string array residing in RAM or ROM
1128:.\Generated_Source\PSoC5/UART_1.c ****     *
1129:.\Generated_Source\PSoC5/UART_1.c ****     * Return:
1130:.\Generated_Source\PSoC5/UART_1.c ****     *  None.
1131:.\Generated_Source\PSoC5/UART_1.c ****     *
1132:.\Generated_Source\PSoC5/UART_1.c ****     * Global Variables:
1133:.\Generated_Source\PSoC5/UART_1.c ****     *  UART_1_initVar - checked to identify that the component has been
1134:.\Generated_Source\PSoC5/UART_1.c ****     *     initialized.
1135:.\Generated_Source\PSoC5/UART_1.c ****     *
1136:.\Generated_Source\PSoC5/UART_1.c ****     * Reentrant:
1137:.\Generated_Source\PSoC5/UART_1.c ****     *  No.
1138:.\Generated_Source\PSoC5/UART_1.c ****     *
1139:.\Generated_Source\PSoC5/UART_1.c ****     * Theory:
1140:.\Generated_Source\PSoC5/UART_1.c ****     *  If there is not enough memory in the TX buffer for the entire string, this
1141:.\Generated_Source\PSoC5/UART_1.c ****     *  function blocks until the last character of the string is loaded into the
1142:.\Generated_Source\PSoC5/UART_1.c ****     *  TX buffer.
1143:.\Generated_Source\PSoC5/UART_1.c ****     *
1144:.\Generated_Source\PSoC5/UART_1.c ****     *******************************************************************************/
1145:.\Generated_Source\PSoC5/UART_1.c ****     void UART_1_PutString(const char8 string[]) 
1146:.\Generated_Source\PSoC5/UART_1.c ****     {
 932              		.loc 1 1146 0
 933              		.cfi_startproc
 934              		@ args = 0, pretend = 0, frame = 16
 935              		@ frame_needed = 1, uses_anonymous_args = 0
 936 0000 80B5     		push	{r7, lr}
 937              		.cfi_def_cfa_offset 8
 938              		.cfi_offset 7, -8
 939              		.cfi_offset 14, -4
 940 0002 84B0     		sub	sp, sp, #16
 941              		.cfi_def_cfa_offset 24
 942 0004 00AF     		add	r7, sp, #0
 943              		.cfi_def_cfa_register 7
 944 0006 7860     		str	r0, [r7, #4]
1147:.\Generated_Source\PSoC5/UART_1.c ****         uint16 bufIndex = 0u;
 945              		.loc 1 1147 0
 946 0008 0023     		movs	r3, #0
 947 000a FB81     		strh	r3, [r7, #14]	@ movhi
1148:.\Generated_Source\PSoC5/UART_1.c **** 
1149:.\Generated_Source\PSoC5/UART_1.c ****         /* If not Initialized then skip this function */
1150:.\Generated_Source\PSoC5/UART_1.c ****         if(UART_1_initVar != 0u)
 948              		.loc 1 1150 0
 949 000c 0B4B     		ldr	r3, .L70
 950 000e 1B78     		ldrb	r3, [r3]	@ zero_extendqisi2
 951 0010 002B     		cmp	r3, #0
 952 0012 10D0     		beq	.L66
1151:.\Generated_Source\PSoC5/UART_1.c ****         {
1152:.\Generated_Source\PSoC5/UART_1.c ****             /* This is a blocking function, it will not exit until all data is sent */
1153:.\Generated_Source\PSoC5/UART_1.c ****             while(string[bufIndex] != (char8) 0)
 953              		.loc 1 1153 0
 954 0014 09E0     		b	.L68
 955              	.L69:
ARM GAS  C:\Users\Charlie\AppData\Local\Temp\cc6egklb.s 			page 38


1154:.\Generated_Source\PSoC5/UART_1.c ****             {
1155:.\Generated_Source\PSoC5/UART_1.c ****                 UART_1_PutChar((uint8)string[bufIndex]);
 956              		.loc 1 1155 0
 957 0016 FB89     		ldrh	r3, [r7, #14]
 958 0018 7A68     		ldr	r2, [r7, #4]
 959 001a 1344     		add	r3, r3, r2
 960 001c 1B78     		ldrb	r3, [r3]	@ zero_extendqisi2
 961 001e 1846     		mov	r0, r3
 962 0020 FFF7FEFF 		bl	UART_1_PutChar
1156:.\Generated_Source\PSoC5/UART_1.c ****                 bufIndex++;
 963              		.loc 1 1156 0
 964 0024 FB89     		ldrh	r3, [r7, #14]
 965 0026 0133     		adds	r3, r3, #1
 966 0028 FB81     		strh	r3, [r7, #14]	@ movhi
 967              	.L68:
1153:.\Generated_Source\PSoC5/UART_1.c ****             while(string[bufIndex] != (char8) 0)
 968              		.loc 1 1153 0 discriminator 1
 969 002a FB89     		ldrh	r3, [r7, #14]
 970 002c 7A68     		ldr	r2, [r7, #4]
 971 002e 1344     		add	r3, r3, r2
 972 0030 1B78     		ldrb	r3, [r3]	@ zero_extendqisi2
 973 0032 002B     		cmp	r3, #0
 974 0034 EFD1     		bne	.L69
 975              	.L66:
1157:.\Generated_Source\PSoC5/UART_1.c ****             }
1158:.\Generated_Source\PSoC5/UART_1.c ****         }
1159:.\Generated_Source\PSoC5/UART_1.c ****     }
 976              		.loc 1 1159 0
 977 0036 1037     		adds	r7, r7, #16
 978 0038 BD46     		mov	sp, r7
 979              		@ sp needed
 980 003a 80BD     		pop	{r7, pc}
 981              	.L71:
 982              		.align	2
 983              	.L70:
 984 003c 00000000 		.word	UART_1_initVar
 985              		.cfi_endproc
 986              	.LFE20:
 987              		.size	UART_1_PutString, .-UART_1_PutString
 988              		.section	.text.UART_1_PutArray,"ax",%progbits
 989              		.align	2
 990              		.global	UART_1_PutArray
 991              		.thumb
 992              		.thumb_func
 993              		.type	UART_1_PutArray, %function
 994              	UART_1_PutArray:
 995              	.LFB21:
1160:.\Generated_Source\PSoC5/UART_1.c **** 
1161:.\Generated_Source\PSoC5/UART_1.c **** 
1162:.\Generated_Source\PSoC5/UART_1.c ****     /*******************************************************************************
1163:.\Generated_Source\PSoC5/UART_1.c ****     * Function Name: UART_1_PutArray
1164:.\Generated_Source\PSoC5/UART_1.c ****     ********************************************************************************
1165:.\Generated_Source\PSoC5/UART_1.c ****     *
1166:.\Generated_Source\PSoC5/UART_1.c ****     * Summary:
1167:.\Generated_Source\PSoC5/UART_1.c ****     *  Places N bytes of data from a memory array into the TX buffer for
1168:.\Generated_Source\PSoC5/UART_1.c ****     *  transmission.
1169:.\Generated_Source\PSoC5/UART_1.c ****     *
ARM GAS  C:\Users\Charlie\AppData\Local\Temp\cc6egklb.s 			page 39


1170:.\Generated_Source\PSoC5/UART_1.c ****     * Parameters:
1171:.\Generated_Source\PSoC5/UART_1.c ****     *  string[]: Address of the memory array residing in RAM or ROM.
1172:.\Generated_Source\PSoC5/UART_1.c ****     *  byteCount: Number of bytes to be transmitted. The type depends on TX Buffer
1173:.\Generated_Source\PSoC5/UART_1.c ****     *             Size parameter.
1174:.\Generated_Source\PSoC5/UART_1.c ****     *
1175:.\Generated_Source\PSoC5/UART_1.c ****     * Return:
1176:.\Generated_Source\PSoC5/UART_1.c ****     *  None.
1177:.\Generated_Source\PSoC5/UART_1.c ****     *
1178:.\Generated_Source\PSoC5/UART_1.c ****     * Global Variables:
1179:.\Generated_Source\PSoC5/UART_1.c ****     *  UART_1_initVar - checked to identify that the component has been
1180:.\Generated_Source\PSoC5/UART_1.c ****     *     initialized.
1181:.\Generated_Source\PSoC5/UART_1.c ****     *
1182:.\Generated_Source\PSoC5/UART_1.c ****     * Reentrant:
1183:.\Generated_Source\PSoC5/UART_1.c ****     *  No.
1184:.\Generated_Source\PSoC5/UART_1.c ****     *
1185:.\Generated_Source\PSoC5/UART_1.c ****     * Theory:
1186:.\Generated_Source\PSoC5/UART_1.c ****     *  If there is not enough memory in the TX buffer for the entire string, this
1187:.\Generated_Source\PSoC5/UART_1.c ****     *  function blocks until the last character of the string is loaded into the
1188:.\Generated_Source\PSoC5/UART_1.c ****     *  TX buffer.
1189:.\Generated_Source\PSoC5/UART_1.c ****     *
1190:.\Generated_Source\PSoC5/UART_1.c ****     *******************************************************************************/
1191:.\Generated_Source\PSoC5/UART_1.c ****     void UART_1_PutArray(const uint8 string[], uint8 byteCount)
1192:.\Generated_Source\PSoC5/UART_1.c ****                                                                     
1193:.\Generated_Source\PSoC5/UART_1.c ****     {
 996              		.loc 1 1193 0
 997              		.cfi_startproc
 998              		@ args = 0, pretend = 0, frame = 16
 999              		@ frame_needed = 1, uses_anonymous_args = 0
 1000 0000 80B5     		push	{r7, lr}
 1001              		.cfi_def_cfa_offset 8
 1002              		.cfi_offset 7, -8
 1003              		.cfi_offset 14, -4
 1004 0002 84B0     		sub	sp, sp, #16
 1005              		.cfi_def_cfa_offset 24
 1006 0004 00AF     		add	r7, sp, #0
 1007              		.cfi_def_cfa_register 7
 1008 0006 7860     		str	r0, [r7, #4]
 1009 0008 0B46     		mov	r3, r1
 1010 000a FB70     		strb	r3, [r7, #3]
1194:.\Generated_Source\PSoC5/UART_1.c ****         uint8 bufIndex = 0u;
 1011              		.loc 1 1194 0
 1012 000c 0023     		movs	r3, #0
 1013 000e FB73     		strb	r3, [r7, #15]
1195:.\Generated_Source\PSoC5/UART_1.c **** 
1196:.\Generated_Source\PSoC5/UART_1.c ****         /* If not Initialized then skip this function */
1197:.\Generated_Source\PSoC5/UART_1.c ****         if(UART_1_initVar != 0u)
 1014              		.loc 1 1197 0
 1015 0010 0A4B     		ldr	r3, .L76
 1016 0012 1B78     		ldrb	r3, [r3]	@ zero_extendqisi2
 1017 0014 002B     		cmp	r3, #0
 1018 0016 0ED0     		beq	.L72
1198:.\Generated_Source\PSoC5/UART_1.c ****         {
1199:.\Generated_Source\PSoC5/UART_1.c ****             while(bufIndex < byteCount)
 1019              		.loc 1 1199 0
 1020 0018 09E0     		b	.L74
 1021              	.L75:
1200:.\Generated_Source\PSoC5/UART_1.c ****             {
ARM GAS  C:\Users\Charlie\AppData\Local\Temp\cc6egklb.s 			page 40


1201:.\Generated_Source\PSoC5/UART_1.c ****                 UART_1_PutChar(string[bufIndex]);
 1022              		.loc 1 1201 0
 1023 001a FB7B     		ldrb	r3, [r7, #15]	@ zero_extendqisi2
 1024 001c 7A68     		ldr	r2, [r7, #4]
 1025 001e 1344     		add	r3, r3, r2
 1026 0020 1B78     		ldrb	r3, [r3]	@ zero_extendqisi2
 1027 0022 1846     		mov	r0, r3
 1028 0024 FFF7FEFF 		bl	UART_1_PutChar
1202:.\Generated_Source\PSoC5/UART_1.c ****                 bufIndex++;
 1029              		.loc 1 1202 0
 1030 0028 FB7B     		ldrb	r3, [r7, #15]	@ zero_extendqisi2
 1031 002a 0133     		adds	r3, r3, #1
 1032 002c FB73     		strb	r3, [r7, #15]
 1033              	.L74:
1199:.\Generated_Source\PSoC5/UART_1.c ****             while(bufIndex < byteCount)
 1034              		.loc 1 1199 0 discriminator 1
 1035 002e FA7B     		ldrb	r2, [r7, #15]	@ zero_extendqisi2
 1036 0030 FB78     		ldrb	r3, [r7, #3]	@ zero_extendqisi2
 1037 0032 9A42     		cmp	r2, r3
 1038 0034 F1D3     		bcc	.L75
 1039              	.L72:
1203:.\Generated_Source\PSoC5/UART_1.c ****             }
1204:.\Generated_Source\PSoC5/UART_1.c ****         }
1205:.\Generated_Source\PSoC5/UART_1.c ****     }
 1040              		.loc 1 1205 0
 1041 0036 1037     		adds	r7, r7, #16
 1042 0038 BD46     		mov	sp, r7
 1043              		@ sp needed
 1044 003a 80BD     		pop	{r7, pc}
 1045              	.L77:
 1046              		.align	2
 1047              	.L76:
 1048 003c 00000000 		.word	UART_1_initVar
 1049              		.cfi_endproc
 1050              	.LFE21:
 1051              		.size	UART_1_PutArray, .-UART_1_PutArray
 1052              		.section	.text.UART_1_PutCRLF,"ax",%progbits
 1053              		.align	2
 1054              		.global	UART_1_PutCRLF
 1055              		.thumb
 1056              		.thumb_func
 1057              		.type	UART_1_PutCRLF, %function
 1058              	UART_1_PutCRLF:
 1059              	.LFB22:
1206:.\Generated_Source\PSoC5/UART_1.c **** 
1207:.\Generated_Source\PSoC5/UART_1.c **** 
1208:.\Generated_Source\PSoC5/UART_1.c ****     /*******************************************************************************
1209:.\Generated_Source\PSoC5/UART_1.c ****     * Function Name: UART_1_PutCRLF
1210:.\Generated_Source\PSoC5/UART_1.c ****     ********************************************************************************
1211:.\Generated_Source\PSoC5/UART_1.c ****     *
1212:.\Generated_Source\PSoC5/UART_1.c ****     * Summary:
1213:.\Generated_Source\PSoC5/UART_1.c ****     *  Writes a byte of data followed by a carriage return (0x0D) and line feed
1214:.\Generated_Source\PSoC5/UART_1.c ****     *  (0x0A) to the transmit buffer.
1215:.\Generated_Source\PSoC5/UART_1.c ****     *
1216:.\Generated_Source\PSoC5/UART_1.c ****     * Parameters:
1217:.\Generated_Source\PSoC5/UART_1.c ****     *  txDataByte: Data byte to transmit before the carriage return and line feed.
1218:.\Generated_Source\PSoC5/UART_1.c ****     *
ARM GAS  C:\Users\Charlie\AppData\Local\Temp\cc6egklb.s 			page 41


1219:.\Generated_Source\PSoC5/UART_1.c ****     * Return:
1220:.\Generated_Source\PSoC5/UART_1.c ****     *  None.
1221:.\Generated_Source\PSoC5/UART_1.c ****     *
1222:.\Generated_Source\PSoC5/UART_1.c ****     * Global Variables:
1223:.\Generated_Source\PSoC5/UART_1.c ****     *  UART_1_initVar - checked to identify that the component has been
1224:.\Generated_Source\PSoC5/UART_1.c ****     *     initialized.
1225:.\Generated_Source\PSoC5/UART_1.c ****     *
1226:.\Generated_Source\PSoC5/UART_1.c ****     * Reentrant:
1227:.\Generated_Source\PSoC5/UART_1.c ****     *  No.
1228:.\Generated_Source\PSoC5/UART_1.c ****     *
1229:.\Generated_Source\PSoC5/UART_1.c ****     *******************************************************************************/
1230:.\Generated_Source\PSoC5/UART_1.c ****     void UART_1_PutCRLF(uint8 txDataByte) 
1231:.\Generated_Source\PSoC5/UART_1.c ****     {
 1060              		.loc 1 1231 0
 1061              		.cfi_startproc
 1062              		@ args = 0, pretend = 0, frame = 8
 1063              		@ frame_needed = 1, uses_anonymous_args = 0
 1064 0000 80B5     		push	{r7, lr}
 1065              		.cfi_def_cfa_offset 8
 1066              		.cfi_offset 7, -8
 1067              		.cfi_offset 14, -4
 1068 0002 82B0     		sub	sp, sp, #8
 1069              		.cfi_def_cfa_offset 16
 1070 0004 00AF     		add	r7, sp, #0
 1071              		.cfi_def_cfa_register 7
 1072 0006 0346     		mov	r3, r0
 1073 0008 FB71     		strb	r3, [r7, #7]
1232:.\Generated_Source\PSoC5/UART_1.c ****         /* If not Initialized then skip this function */
1233:.\Generated_Source\PSoC5/UART_1.c ****         if(UART_1_initVar != 0u)
 1074              		.loc 1 1233 0
 1075 000a 084B     		ldr	r3, .L80
 1076 000c 1B78     		ldrb	r3, [r3]	@ zero_extendqisi2
 1077 000e 002B     		cmp	r3, #0
 1078 0010 09D0     		beq	.L78
1234:.\Generated_Source\PSoC5/UART_1.c ****         {
1235:.\Generated_Source\PSoC5/UART_1.c ****             UART_1_PutChar(txDataByte);
 1079              		.loc 1 1235 0
 1080 0012 FB79     		ldrb	r3, [r7, #7]	@ zero_extendqisi2
 1081 0014 1846     		mov	r0, r3
 1082 0016 FFF7FEFF 		bl	UART_1_PutChar
1236:.\Generated_Source\PSoC5/UART_1.c ****             UART_1_PutChar(0x0Du);
 1083              		.loc 1 1236 0
 1084 001a 0D20     		movs	r0, #13
 1085 001c FFF7FEFF 		bl	UART_1_PutChar
1237:.\Generated_Source\PSoC5/UART_1.c ****             UART_1_PutChar(0x0Au);
 1086              		.loc 1 1237 0
 1087 0020 0A20     		movs	r0, #10
 1088 0022 FFF7FEFF 		bl	UART_1_PutChar
 1089              	.L78:
1238:.\Generated_Source\PSoC5/UART_1.c ****         }
1239:.\Generated_Source\PSoC5/UART_1.c ****     }
 1090              		.loc 1 1239 0
 1091 0026 0837     		adds	r7, r7, #8
 1092 0028 BD46     		mov	sp, r7
 1093              		@ sp needed
 1094 002a 80BD     		pop	{r7, pc}
 1095              	.L81:
ARM GAS  C:\Users\Charlie\AppData\Local\Temp\cc6egklb.s 			page 42


 1096              		.align	2
 1097              	.L80:
 1098 002c 00000000 		.word	UART_1_initVar
 1099              		.cfi_endproc
 1100              	.LFE22:
 1101              		.size	UART_1_PutCRLF, .-UART_1_PutCRLF
 1102              		.section	.text.UART_1_GetTxBufferSize,"ax",%progbits
 1103              		.align	2
 1104              		.global	UART_1_GetTxBufferSize
 1105              		.thumb
 1106              		.thumb_func
 1107              		.type	UART_1_GetTxBufferSize, %function
 1108              	UART_1_GetTxBufferSize:
 1109              	.LFB23:
1240:.\Generated_Source\PSoC5/UART_1.c **** 
1241:.\Generated_Source\PSoC5/UART_1.c **** 
1242:.\Generated_Source\PSoC5/UART_1.c ****     /*******************************************************************************
1243:.\Generated_Source\PSoC5/UART_1.c ****     * Function Name: UART_1_GetTxBufferSize
1244:.\Generated_Source\PSoC5/UART_1.c ****     ********************************************************************************
1245:.\Generated_Source\PSoC5/UART_1.c ****     *
1246:.\Generated_Source\PSoC5/UART_1.c ****     * Summary:
1247:.\Generated_Source\PSoC5/UART_1.c ****     *  Returns the number of bytes in the TX buffer which are waiting to be 
1248:.\Generated_Source\PSoC5/UART_1.c ****     *  transmitted.
1249:.\Generated_Source\PSoC5/UART_1.c ****     *  * TX software buffer is disabled (TX Buffer Size parameter is equal to 4): 
1250:.\Generated_Source\PSoC5/UART_1.c ****     *    returns 0 for empty TX FIFO, 1 for not full TX FIFO or 4 for full TX FIFO.
1251:.\Generated_Source\PSoC5/UART_1.c ****     *  * TX software buffer is enabled: returns the number of bytes in the TX 
1252:.\Generated_Source\PSoC5/UART_1.c ****     *    software buffer which are waiting to be transmitted. Bytes available in the
1253:.\Generated_Source\PSoC5/UART_1.c ****     *    TX FIFO do not take to account.
1254:.\Generated_Source\PSoC5/UART_1.c ****     *
1255:.\Generated_Source\PSoC5/UART_1.c ****     * Parameters:
1256:.\Generated_Source\PSoC5/UART_1.c ****     *  None.
1257:.\Generated_Source\PSoC5/UART_1.c ****     *
1258:.\Generated_Source\PSoC5/UART_1.c ****     * Return:
1259:.\Generated_Source\PSoC5/UART_1.c ****     *  Number of bytes used in the TX buffer. Return value type depends on the TX 
1260:.\Generated_Source\PSoC5/UART_1.c ****     *  Buffer Size parameter.
1261:.\Generated_Source\PSoC5/UART_1.c ****     *
1262:.\Generated_Source\PSoC5/UART_1.c ****     * Global Variables:
1263:.\Generated_Source\PSoC5/UART_1.c ****     *  UART_1_txBufferWrite - used to calculate left space.
1264:.\Generated_Source\PSoC5/UART_1.c ****     *  UART_1_txBufferRead - used to calculate left space.
1265:.\Generated_Source\PSoC5/UART_1.c ****     *
1266:.\Generated_Source\PSoC5/UART_1.c ****     * Reentrant:
1267:.\Generated_Source\PSoC5/UART_1.c ****     *  No.
1268:.\Generated_Source\PSoC5/UART_1.c ****     *
1269:.\Generated_Source\PSoC5/UART_1.c ****     * Theory:
1270:.\Generated_Source\PSoC5/UART_1.c ****     *  Allows the user to find out how full the TX Buffer is.
1271:.\Generated_Source\PSoC5/UART_1.c ****     *
1272:.\Generated_Source\PSoC5/UART_1.c ****     *******************************************************************************/
1273:.\Generated_Source\PSoC5/UART_1.c ****     uint8 UART_1_GetTxBufferSize(void)
1274:.\Generated_Source\PSoC5/UART_1.c ****                                                             
1275:.\Generated_Source\PSoC5/UART_1.c ****     {
 1110              		.loc 1 1275 0
 1111              		.cfi_startproc
 1112              		@ args = 0, pretend = 0, frame = 8
 1113              		@ frame_needed = 1, uses_anonymous_args = 0
 1114              		@ link register save eliminated.
 1115 0000 80B4     		push	{r7}
 1116              		.cfi_def_cfa_offset 4
ARM GAS  C:\Users\Charlie\AppData\Local\Temp\cc6egklb.s 			page 43


 1117              		.cfi_offset 7, -4
 1118 0002 83B0     		sub	sp, sp, #12
 1119              		.cfi_def_cfa_offset 16
 1120 0004 00AF     		add	r7, sp, #0
 1121              		.cfi_def_cfa_register 7
1276:.\Generated_Source\PSoC5/UART_1.c ****         uint8 size;
1277:.\Generated_Source\PSoC5/UART_1.c **** 
1278:.\Generated_Source\PSoC5/UART_1.c ****     #if (UART_1_TX_INTERRUPT_ENABLED)
1279:.\Generated_Source\PSoC5/UART_1.c **** 
1280:.\Generated_Source\PSoC5/UART_1.c ****         /* Protect variables that could change on interrupt. */
1281:.\Generated_Source\PSoC5/UART_1.c ****         UART_1_DisableTxInt();
1282:.\Generated_Source\PSoC5/UART_1.c **** 
1283:.\Generated_Source\PSoC5/UART_1.c ****         if(UART_1_txBufferRead == UART_1_txBufferWrite)
1284:.\Generated_Source\PSoC5/UART_1.c ****         {
1285:.\Generated_Source\PSoC5/UART_1.c ****             size = 0u;
1286:.\Generated_Source\PSoC5/UART_1.c ****         }
1287:.\Generated_Source\PSoC5/UART_1.c ****         else if(UART_1_txBufferRead < UART_1_txBufferWrite)
1288:.\Generated_Source\PSoC5/UART_1.c ****         {
1289:.\Generated_Source\PSoC5/UART_1.c ****             size = (UART_1_txBufferWrite - UART_1_txBufferRead);
1290:.\Generated_Source\PSoC5/UART_1.c ****         }
1291:.\Generated_Source\PSoC5/UART_1.c ****         else
1292:.\Generated_Source\PSoC5/UART_1.c ****         {
1293:.\Generated_Source\PSoC5/UART_1.c ****             size = (UART_1_TX_BUFFER_SIZE - UART_1_txBufferRead) +
1294:.\Generated_Source\PSoC5/UART_1.c ****                     UART_1_txBufferWrite;
1295:.\Generated_Source\PSoC5/UART_1.c ****         }
1296:.\Generated_Source\PSoC5/UART_1.c **** 
1297:.\Generated_Source\PSoC5/UART_1.c ****         UART_1_EnableTxInt();
1298:.\Generated_Source\PSoC5/UART_1.c **** 
1299:.\Generated_Source\PSoC5/UART_1.c ****     #else
1300:.\Generated_Source\PSoC5/UART_1.c **** 
1301:.\Generated_Source\PSoC5/UART_1.c ****         size = UART_1_TXSTATUS_REG;
 1122              		.loc 1 1301 0
 1123 0006 0E4B     		ldr	r3, .L87
 1124 0008 1B78     		ldrb	r3, [r3]
 1125 000a FB71     		strb	r3, [r7, #7]
1302:.\Generated_Source\PSoC5/UART_1.c **** 
1303:.\Generated_Source\PSoC5/UART_1.c ****         /* Is the fifo is full. */
1304:.\Generated_Source\PSoC5/UART_1.c ****         if((size & UART_1_TX_STS_FIFO_FULL) != 0u)
 1126              		.loc 1 1304 0
 1127 000c FB79     		ldrb	r3, [r7, #7]	@ zero_extendqisi2
 1128 000e 03F00403 		and	r3, r3, #4
 1129 0012 002B     		cmp	r3, #0
 1130 0014 02D0     		beq	.L83
1305:.\Generated_Source\PSoC5/UART_1.c ****         {
1306:.\Generated_Source\PSoC5/UART_1.c ****             size = UART_1_FIFO_LENGTH;
 1131              		.loc 1 1306 0
 1132 0016 0423     		movs	r3, #4
 1133 0018 FB71     		strb	r3, [r7, #7]
 1134 001a 09E0     		b	.L84
 1135              	.L83:
1307:.\Generated_Source\PSoC5/UART_1.c ****         }
1308:.\Generated_Source\PSoC5/UART_1.c ****         else if((size & UART_1_TX_STS_FIFO_EMPTY) != 0u)
 1136              		.loc 1 1308 0
 1137 001c FB79     		ldrb	r3, [r7, #7]	@ zero_extendqisi2
 1138 001e 03F00203 		and	r3, r3, #2
 1139 0022 002B     		cmp	r3, #0
 1140 0024 02D0     		beq	.L85
ARM GAS  C:\Users\Charlie\AppData\Local\Temp\cc6egklb.s 			page 44


1309:.\Generated_Source\PSoC5/UART_1.c ****         {
1310:.\Generated_Source\PSoC5/UART_1.c ****             size = 0u;
 1141              		.loc 1 1310 0
 1142 0026 0023     		movs	r3, #0
 1143 0028 FB71     		strb	r3, [r7, #7]
 1144 002a 01E0     		b	.L84
 1145              	.L85:
1311:.\Generated_Source\PSoC5/UART_1.c ****         }
1312:.\Generated_Source\PSoC5/UART_1.c ****         else
1313:.\Generated_Source\PSoC5/UART_1.c ****         {
1314:.\Generated_Source\PSoC5/UART_1.c ****             /* We only know there is data in the fifo. */
1315:.\Generated_Source\PSoC5/UART_1.c ****             size = 1u;
 1146              		.loc 1 1315 0
 1147 002c 0123     		movs	r3, #1
 1148 002e FB71     		strb	r3, [r7, #7]
 1149              	.L84:
1316:.\Generated_Source\PSoC5/UART_1.c ****         }
1317:.\Generated_Source\PSoC5/UART_1.c **** 
1318:.\Generated_Source\PSoC5/UART_1.c ****     #endif /* (UART_1_TX_INTERRUPT_ENABLED) */
1319:.\Generated_Source\PSoC5/UART_1.c **** 
1320:.\Generated_Source\PSoC5/UART_1.c ****     return(size);
 1150              		.loc 1 1320 0
 1151 0030 FB79     		ldrb	r3, [r7, #7]	@ zero_extendqisi2
1321:.\Generated_Source\PSoC5/UART_1.c ****     }
 1152              		.loc 1 1321 0
 1153 0032 1846     		mov	r0, r3
 1154 0034 0C37     		adds	r7, r7, #12
 1155 0036 BD46     		mov	sp, r7
 1156              		@ sp needed
 1157 0038 5DF8047B 		ldr	r7, [sp], #4
 1158 003c 7047     		bx	lr
 1159              	.L88:
 1160 003e 00BF     		.align	2
 1161              	.L87:
 1162 0040 64650040 		.word	1073767780
 1163              		.cfi_endproc
 1164              	.LFE23:
 1165              		.size	UART_1_GetTxBufferSize, .-UART_1_GetTxBufferSize
 1166              		.section	.text.UART_1_ClearTxBuffer,"ax",%progbits
 1167              		.align	2
 1168              		.global	UART_1_ClearTxBuffer
 1169              		.thumb
 1170              		.thumb_func
 1171              		.type	UART_1_ClearTxBuffer, %function
 1172              	UART_1_ClearTxBuffer:
 1173              	.LFB24:
1322:.\Generated_Source\PSoC5/UART_1.c **** 
1323:.\Generated_Source\PSoC5/UART_1.c **** 
1324:.\Generated_Source\PSoC5/UART_1.c ****     /*******************************************************************************
1325:.\Generated_Source\PSoC5/UART_1.c ****     * Function Name: UART_1_ClearTxBuffer
1326:.\Generated_Source\PSoC5/UART_1.c ****     ********************************************************************************
1327:.\Generated_Source\PSoC5/UART_1.c ****     *
1328:.\Generated_Source\PSoC5/UART_1.c ****     * Summary:
1329:.\Generated_Source\PSoC5/UART_1.c ****     *  Clears all data from the TX buffer and hardware TX FIFO.
1330:.\Generated_Source\PSoC5/UART_1.c ****     *
1331:.\Generated_Source\PSoC5/UART_1.c ****     * Parameters:
1332:.\Generated_Source\PSoC5/UART_1.c ****     *  None.
ARM GAS  C:\Users\Charlie\AppData\Local\Temp\cc6egklb.s 			page 45


1333:.\Generated_Source\PSoC5/UART_1.c ****     *
1334:.\Generated_Source\PSoC5/UART_1.c ****     * Return:
1335:.\Generated_Source\PSoC5/UART_1.c ****     *  None.
1336:.\Generated_Source\PSoC5/UART_1.c ****     *
1337:.\Generated_Source\PSoC5/UART_1.c ****     * Global Variables:
1338:.\Generated_Source\PSoC5/UART_1.c ****     *  UART_1_txBufferWrite - cleared to zero.
1339:.\Generated_Source\PSoC5/UART_1.c ****     *  UART_1_txBufferRead - cleared to zero.
1340:.\Generated_Source\PSoC5/UART_1.c ****     *
1341:.\Generated_Source\PSoC5/UART_1.c ****     * Reentrant:
1342:.\Generated_Source\PSoC5/UART_1.c ****     *  No.
1343:.\Generated_Source\PSoC5/UART_1.c ****     *
1344:.\Generated_Source\PSoC5/UART_1.c ****     * Theory:
1345:.\Generated_Source\PSoC5/UART_1.c ****     *  Setting the pointers to zero makes the system believe there is no data to
1346:.\Generated_Source\PSoC5/UART_1.c ****     *  read and writing will resume at address 0 overwriting any data that may have
1347:.\Generated_Source\PSoC5/UART_1.c ****     *  remained in the RAM.
1348:.\Generated_Source\PSoC5/UART_1.c ****     *
1349:.\Generated_Source\PSoC5/UART_1.c ****     * Side Effects:
1350:.\Generated_Source\PSoC5/UART_1.c ****     *  Data waiting in the transmit buffer is not sent; a byte that is currently
1351:.\Generated_Source\PSoC5/UART_1.c ****     *  transmitting finishes transmitting.
1352:.\Generated_Source\PSoC5/UART_1.c ****     *
1353:.\Generated_Source\PSoC5/UART_1.c ****     *******************************************************************************/
1354:.\Generated_Source\PSoC5/UART_1.c ****     void UART_1_ClearTxBuffer(void) 
1355:.\Generated_Source\PSoC5/UART_1.c ****     {
 1174              		.loc 1 1355 0
 1175              		.cfi_startproc
 1176              		@ args = 0, pretend = 0, frame = 8
 1177              		@ frame_needed = 1, uses_anonymous_args = 0
 1178 0000 80B5     		push	{r7, lr}
 1179              		.cfi_def_cfa_offset 8
 1180              		.cfi_offset 7, -8
 1181              		.cfi_offset 14, -4
 1182 0002 82B0     		sub	sp, sp, #8
 1183              		.cfi_def_cfa_offset 16
 1184 0004 00AF     		add	r7, sp, #0
 1185              		.cfi_def_cfa_register 7
1356:.\Generated_Source\PSoC5/UART_1.c ****         uint8 enableInterrupts;
1357:.\Generated_Source\PSoC5/UART_1.c **** 
1358:.\Generated_Source\PSoC5/UART_1.c ****         enableInterrupts = CyEnterCriticalSection();
 1186              		.loc 1 1358 0
 1187 0006 FFF7FEFF 		bl	CyEnterCriticalSection
 1188 000a 0346     		mov	r3, r0
 1189 000c FB71     		strb	r3, [r7, #7]
1359:.\Generated_Source\PSoC5/UART_1.c ****         /* Clear the HW FIFO */
1360:.\Generated_Source\PSoC5/UART_1.c ****         UART_1_TXDATA_AUX_CTL_REG |= (uint8)  UART_1_TX_FIFO_CLR;
 1190              		.loc 1 1360 0
 1191 000e 0B4B     		ldr	r3, .L90
 1192 0010 0A4A     		ldr	r2, .L90
 1193 0012 1278     		ldrb	r2, [r2]
 1194 0014 D2B2     		uxtb	r2, r2
 1195 0016 42F00102 		orr	r2, r2, #1
 1196 001a D2B2     		uxtb	r2, r2
 1197 001c 1A70     		strb	r2, [r3]
1361:.\Generated_Source\PSoC5/UART_1.c ****         UART_1_TXDATA_AUX_CTL_REG &= (uint8) ~UART_1_TX_FIFO_CLR;
 1198              		.loc 1 1361 0
 1199 001e 074B     		ldr	r3, .L90
 1200 0020 064A     		ldr	r2, .L90
 1201 0022 1278     		ldrb	r2, [r2]
ARM GAS  C:\Users\Charlie\AppData\Local\Temp\cc6egklb.s 			page 46


 1202 0024 D2B2     		uxtb	r2, r2
 1203 0026 22F00102 		bic	r2, r2, #1
 1204 002a D2B2     		uxtb	r2, r2
 1205 002c 1A70     		strb	r2, [r3]
1362:.\Generated_Source\PSoC5/UART_1.c ****         CyExitCriticalSection(enableInterrupts);
 1206              		.loc 1 1362 0
 1207 002e FB79     		ldrb	r3, [r7, #7]	@ zero_extendqisi2
 1208 0030 1846     		mov	r0, r3
 1209 0032 FFF7FEFF 		bl	CyExitCriticalSection
1363:.\Generated_Source\PSoC5/UART_1.c **** 
1364:.\Generated_Source\PSoC5/UART_1.c ****     #if (UART_1_TX_INTERRUPT_ENABLED)
1365:.\Generated_Source\PSoC5/UART_1.c **** 
1366:.\Generated_Source\PSoC5/UART_1.c ****         /* Protect variables that could change on interrupt. */
1367:.\Generated_Source\PSoC5/UART_1.c ****         UART_1_DisableTxInt();
1368:.\Generated_Source\PSoC5/UART_1.c **** 
1369:.\Generated_Source\PSoC5/UART_1.c ****         UART_1_txBufferRead = 0u;
1370:.\Generated_Source\PSoC5/UART_1.c ****         UART_1_txBufferWrite = 0u;
1371:.\Generated_Source\PSoC5/UART_1.c **** 
1372:.\Generated_Source\PSoC5/UART_1.c ****         /* Enable Tx interrupt. */
1373:.\Generated_Source\PSoC5/UART_1.c ****         UART_1_EnableTxInt();
1374:.\Generated_Source\PSoC5/UART_1.c **** 
1375:.\Generated_Source\PSoC5/UART_1.c ****     #endif /* (UART_1_TX_INTERRUPT_ENABLED) */
1376:.\Generated_Source\PSoC5/UART_1.c ****     }
 1210              		.loc 1 1376 0
 1211 0036 0837     		adds	r7, r7, #8
 1212 0038 BD46     		mov	sp, r7
 1213              		@ sp needed
 1214 003a 80BD     		pop	{r7, pc}
 1215              	.L91:
 1216              		.align	2
 1217              	.L90:
 1218 003c 94650040 		.word	1073767828
 1219              		.cfi_endproc
 1220              	.LFE24:
 1221              		.size	UART_1_ClearTxBuffer, .-UART_1_ClearTxBuffer
 1222              		.section	.text.UART_1_SendBreak,"ax",%progbits
 1223              		.align	2
 1224              		.global	UART_1_SendBreak
 1225              		.thumb
 1226              		.thumb_func
 1227              		.type	UART_1_SendBreak, %function
 1228              	UART_1_SendBreak:
 1229              	.LFB25:
1377:.\Generated_Source\PSoC5/UART_1.c **** 
1378:.\Generated_Source\PSoC5/UART_1.c **** 
1379:.\Generated_Source\PSoC5/UART_1.c ****     /*******************************************************************************
1380:.\Generated_Source\PSoC5/UART_1.c ****     * Function Name: UART_1_SendBreak
1381:.\Generated_Source\PSoC5/UART_1.c ****     ********************************************************************************
1382:.\Generated_Source\PSoC5/UART_1.c ****     *
1383:.\Generated_Source\PSoC5/UART_1.c ****     * Summary:
1384:.\Generated_Source\PSoC5/UART_1.c ****     *  Transmits a break signal on the bus.
1385:.\Generated_Source\PSoC5/UART_1.c ****     *
1386:.\Generated_Source\PSoC5/UART_1.c ****     * Parameters:
1387:.\Generated_Source\PSoC5/UART_1.c ****     *  uint8 retMode:  Send Break return mode. See the following table for options.
1388:.\Generated_Source\PSoC5/UART_1.c ****     *   UART_1_SEND_BREAK - Initialize registers for break, send the Break
1389:.\Generated_Source\PSoC5/UART_1.c ****     *       signal and return immediately.
1390:.\Generated_Source\PSoC5/UART_1.c ****     *   UART_1_WAIT_FOR_COMPLETE_REINIT - Wait until break transmission is
ARM GAS  C:\Users\Charlie\AppData\Local\Temp\cc6egklb.s 			page 47


1391:.\Generated_Source\PSoC5/UART_1.c ****     *       complete, reinitialize registers to normal transmission mode then return
1392:.\Generated_Source\PSoC5/UART_1.c ****     *   UART_1_REINIT - Reinitialize registers to normal transmission mode
1393:.\Generated_Source\PSoC5/UART_1.c ****     *       then return.
1394:.\Generated_Source\PSoC5/UART_1.c ****     *   UART_1_SEND_WAIT_REINIT - Performs both options: 
1395:.\Generated_Source\PSoC5/UART_1.c ****     *      UART_1_SEND_BREAK and UART_1_WAIT_FOR_COMPLETE_REINIT.
1396:.\Generated_Source\PSoC5/UART_1.c ****     *      This option is recommended for most cases.
1397:.\Generated_Source\PSoC5/UART_1.c ****     *
1398:.\Generated_Source\PSoC5/UART_1.c ****     * Return:
1399:.\Generated_Source\PSoC5/UART_1.c ****     *  None.
1400:.\Generated_Source\PSoC5/UART_1.c ****     *
1401:.\Generated_Source\PSoC5/UART_1.c ****     * Global Variables:
1402:.\Generated_Source\PSoC5/UART_1.c ****     *  UART_1_initVar - checked to identify that the component has been
1403:.\Generated_Source\PSoC5/UART_1.c ****     *     initialized.
1404:.\Generated_Source\PSoC5/UART_1.c ****     *  txPeriod - static variable, used for keeping TX period configuration.
1405:.\Generated_Source\PSoC5/UART_1.c ****     *
1406:.\Generated_Source\PSoC5/UART_1.c ****     * Reentrant:
1407:.\Generated_Source\PSoC5/UART_1.c ****     *  No.
1408:.\Generated_Source\PSoC5/UART_1.c ****     *
1409:.\Generated_Source\PSoC5/UART_1.c ****     * Theory:
1410:.\Generated_Source\PSoC5/UART_1.c ****     *  SendBreak function initializes registers to send 13-bit break signal. It is
1411:.\Generated_Source\PSoC5/UART_1.c ****     *  important to return the registers configuration to normal for continue 8-bit
1412:.\Generated_Source\PSoC5/UART_1.c ****     *  operation.
1413:.\Generated_Source\PSoC5/UART_1.c ****     *  There are 3 variants for this API usage:
1414:.\Generated_Source\PSoC5/UART_1.c ****     *  1) SendBreak(3) - function will send the Break signal and take care on the
1415:.\Generated_Source\PSoC5/UART_1.c ****     *     configuration returning. Function will block CPU until transmission
1416:.\Generated_Source\PSoC5/UART_1.c ****     *     complete.
1417:.\Generated_Source\PSoC5/UART_1.c ****     *  2) User may want to use blocking time if UART configured to the low speed
1418:.\Generated_Source\PSoC5/UART_1.c ****     *     operation
1419:.\Generated_Source\PSoC5/UART_1.c ****     *     Example for this case:
1420:.\Generated_Source\PSoC5/UART_1.c ****     *     SendBreak(0);     - initialize Break signal transmission
1421:.\Generated_Source\PSoC5/UART_1.c ****     *         Add your code here to use CPU time
1422:.\Generated_Source\PSoC5/UART_1.c ****     *     SendBreak(1);     - complete Break operation
1423:.\Generated_Source\PSoC5/UART_1.c ****     *  3) Same to 2) but user may want to initialize and use the interrupt to
1424:.\Generated_Source\PSoC5/UART_1.c ****     *     complete break operation.
1425:.\Generated_Source\PSoC5/UART_1.c ****     *     Example for this case:
1426:.\Generated_Source\PSoC5/UART_1.c ****     *     Initialize TX interrupt with "TX - On TX Complete" parameter
1427:.\Generated_Source\PSoC5/UART_1.c ****     *     SendBreak(0);     - initialize Break signal transmission
1428:.\Generated_Source\PSoC5/UART_1.c ****     *         Add your code here to use CPU time
1429:.\Generated_Source\PSoC5/UART_1.c ****     *     When interrupt appear with UART_1_TX_STS_COMPLETE status:
1430:.\Generated_Source\PSoC5/UART_1.c ****     *     SendBreak(2);     - complete Break operation
1431:.\Generated_Source\PSoC5/UART_1.c ****     *
1432:.\Generated_Source\PSoC5/UART_1.c ****     * Side Effects:
1433:.\Generated_Source\PSoC5/UART_1.c ****     *  The UART_1_SendBreak() function initializes registers to send a
1434:.\Generated_Source\PSoC5/UART_1.c ****     *  break signal.
1435:.\Generated_Source\PSoC5/UART_1.c ****     *  Break signal length depends on the break signal bits configuration.
1436:.\Generated_Source\PSoC5/UART_1.c ****     *  The register configuration should be reinitialized before normal 8-bit
1437:.\Generated_Source\PSoC5/UART_1.c ****     *  communication can continue.
1438:.\Generated_Source\PSoC5/UART_1.c ****     *
1439:.\Generated_Source\PSoC5/UART_1.c ****     *******************************************************************************/
1440:.\Generated_Source\PSoC5/UART_1.c ****     void UART_1_SendBreak(uint8 retMode) 
1441:.\Generated_Source\PSoC5/UART_1.c ****     {
 1230              		.loc 1 1441 0
 1231              		.cfi_startproc
 1232              		@ args = 0, pretend = 0, frame = 16
 1233              		@ frame_needed = 1, uses_anonymous_args = 0
 1234              		@ link register save eliminated.
 1235 0000 80B4     		push	{r7}
ARM GAS  C:\Users\Charlie\AppData\Local\Temp\cc6egklb.s 			page 48


 1236              		.cfi_def_cfa_offset 4
 1237              		.cfi_offset 7, -4
 1238 0002 85B0     		sub	sp, sp, #20
 1239              		.cfi_def_cfa_offset 24
 1240 0004 00AF     		add	r7, sp, #0
 1241              		.cfi_def_cfa_register 7
 1242 0006 0346     		mov	r3, r0
 1243 0008 FB71     		strb	r3, [r7, #7]
1442:.\Generated_Source\PSoC5/UART_1.c **** 
1443:.\Generated_Source\PSoC5/UART_1.c ****         /* If not Initialized then skip this function*/
1444:.\Generated_Source\PSoC5/UART_1.c ****         if(UART_1_initVar != 0u)
 1244              		.loc 1 1444 0
 1245 000a 1F4B     		ldr	r3, .L100
 1246 000c 1B78     		ldrb	r3, [r3]	@ zero_extendqisi2
 1247 000e 002B     		cmp	r3, #0
 1248 0010 35D0     		beq	.L92
 1249              	.LBB2:
1445:.\Generated_Source\PSoC5/UART_1.c ****         {
1446:.\Generated_Source\PSoC5/UART_1.c ****             /* Set the Counter to 13-bits and transmit a 00 byte */
1447:.\Generated_Source\PSoC5/UART_1.c ****             /* When that is done then reset the counter value back */
1448:.\Generated_Source\PSoC5/UART_1.c ****             uint8 tmpStat;
1449:.\Generated_Source\PSoC5/UART_1.c **** 
1450:.\Generated_Source\PSoC5/UART_1.c ****         #if(UART_1_HD_ENABLED) /* Half Duplex mode*/
1451:.\Generated_Source\PSoC5/UART_1.c **** 
1452:.\Generated_Source\PSoC5/UART_1.c ****             if( (retMode == UART_1_SEND_BREAK) ||
1453:.\Generated_Source\PSoC5/UART_1.c ****                 (retMode == UART_1_SEND_WAIT_REINIT ) )
1454:.\Generated_Source\PSoC5/UART_1.c ****             {
1455:.\Generated_Source\PSoC5/UART_1.c ****                 /* CTRL_HD_SEND_BREAK - sends break bits in HD mode */
1456:.\Generated_Source\PSoC5/UART_1.c ****                 UART_1_WriteControlRegister(UART_1_ReadControlRegister() |
1457:.\Generated_Source\PSoC5/UART_1.c ****                                                       UART_1_CTRL_HD_SEND_BREAK);
1458:.\Generated_Source\PSoC5/UART_1.c ****                 /* Send zeros */
1459:.\Generated_Source\PSoC5/UART_1.c ****                 UART_1_TXDATA_REG = 0u;
1460:.\Generated_Source\PSoC5/UART_1.c **** 
1461:.\Generated_Source\PSoC5/UART_1.c ****                 do /* Wait until transmit starts */
1462:.\Generated_Source\PSoC5/UART_1.c ****                 {
1463:.\Generated_Source\PSoC5/UART_1.c ****                     tmpStat = UART_1_TXSTATUS_REG;
1464:.\Generated_Source\PSoC5/UART_1.c ****                 }
1465:.\Generated_Source\PSoC5/UART_1.c ****                 while((tmpStat & UART_1_TX_STS_FIFO_EMPTY) != 0u);
1466:.\Generated_Source\PSoC5/UART_1.c ****             }
1467:.\Generated_Source\PSoC5/UART_1.c **** 
1468:.\Generated_Source\PSoC5/UART_1.c ****             if( (retMode == UART_1_WAIT_FOR_COMPLETE_REINIT) ||
1469:.\Generated_Source\PSoC5/UART_1.c ****                 (retMode == UART_1_SEND_WAIT_REINIT) )
1470:.\Generated_Source\PSoC5/UART_1.c ****             {
1471:.\Generated_Source\PSoC5/UART_1.c ****                 do /* Wait until transmit complete */
1472:.\Generated_Source\PSoC5/UART_1.c ****                 {
1473:.\Generated_Source\PSoC5/UART_1.c ****                     tmpStat = UART_1_TXSTATUS_REG;
1474:.\Generated_Source\PSoC5/UART_1.c ****                 }
1475:.\Generated_Source\PSoC5/UART_1.c ****                 while(((uint8)~tmpStat & UART_1_TX_STS_COMPLETE) != 0u);
1476:.\Generated_Source\PSoC5/UART_1.c ****             }
1477:.\Generated_Source\PSoC5/UART_1.c **** 
1478:.\Generated_Source\PSoC5/UART_1.c ****             if( (retMode == UART_1_WAIT_FOR_COMPLETE_REINIT) ||
1479:.\Generated_Source\PSoC5/UART_1.c ****                 (retMode == UART_1_REINIT) ||
1480:.\Generated_Source\PSoC5/UART_1.c ****                 (retMode == UART_1_SEND_WAIT_REINIT) )
1481:.\Generated_Source\PSoC5/UART_1.c ****             {
1482:.\Generated_Source\PSoC5/UART_1.c ****                 UART_1_WriteControlRegister(UART_1_ReadControlRegister() &
1483:.\Generated_Source\PSoC5/UART_1.c ****                                               (uint8)~UART_1_CTRL_HD_SEND_BREAK);
1484:.\Generated_Source\PSoC5/UART_1.c ****             }
ARM GAS  C:\Users\Charlie\AppData\Local\Temp\cc6egklb.s 			page 49


1485:.\Generated_Source\PSoC5/UART_1.c **** 
1486:.\Generated_Source\PSoC5/UART_1.c ****         #else /* UART_1_HD_ENABLED Full Duplex mode */
1487:.\Generated_Source\PSoC5/UART_1.c **** 
1488:.\Generated_Source\PSoC5/UART_1.c ****             static uint8 txPeriod;
1489:.\Generated_Source\PSoC5/UART_1.c **** 
1490:.\Generated_Source\PSoC5/UART_1.c ****             if( (retMode == UART_1_SEND_BREAK) ||
 1250              		.loc 1 1490 0
 1251 0012 FB79     		ldrb	r3, [r7, #7]	@ zero_extendqisi2
 1252 0014 002B     		cmp	r3, #0
 1253 0016 02D0     		beq	.L94
 1254              		.loc 1 1490 0 is_stmt 0 discriminator 1
 1255 0018 FB79     		ldrb	r3, [r7, #7]	@ zero_extendqisi2
 1256 001a 032B     		cmp	r3, #3
 1257 001c 12D1     		bne	.L95
 1258              	.L94:
1491:.\Generated_Source\PSoC5/UART_1.c ****                 (retMode == UART_1_SEND_WAIT_REINIT) )
1492:.\Generated_Source\PSoC5/UART_1.c ****             {
1493:.\Generated_Source\PSoC5/UART_1.c ****                 /* CTRL_HD_SEND_BREAK - skip to send parity bit at Break signal in Full Duplex mode
1494:.\Generated_Source\PSoC5/UART_1.c ****                 #if( (UART_1_PARITY_TYPE != UART_1__B_UART__NONE_REVB) || \
1495:.\Generated_Source\PSoC5/UART_1.c ****                                     (UART_1_PARITY_TYPE_SW != 0u) )
1496:.\Generated_Source\PSoC5/UART_1.c ****                     UART_1_WriteControlRegister(UART_1_ReadControlRegister() |
1497:.\Generated_Source\PSoC5/UART_1.c ****                                                           UART_1_CTRL_HD_SEND_BREAK);
1498:.\Generated_Source\PSoC5/UART_1.c ****                 #endif /* End UART_1_PARITY_TYPE != UART_1__B_UART__NONE_REVB  */
1499:.\Generated_Source\PSoC5/UART_1.c **** 
1500:.\Generated_Source\PSoC5/UART_1.c ****                 #if(UART_1_TXCLKGEN_DP)
1501:.\Generated_Source\PSoC5/UART_1.c ****                     txPeriod = UART_1_TXBITCLKTX_COMPLETE_REG;
 1259              		.loc 1 1501 0 is_stmt 1
 1260 001e 1B4B     		ldr	r3, .L100+4
 1261 0020 1B78     		ldrb	r3, [r3]
 1262 0022 DAB2     		uxtb	r2, r3
 1263 0024 1A4B     		ldr	r3, .L100+8
 1264 0026 1A70     		strb	r2, [r3]
1502:.\Generated_Source\PSoC5/UART_1.c ****                     UART_1_TXBITCLKTX_COMPLETE_REG = UART_1_TXBITCTR_BREAKBITS;
 1265              		.loc 1 1502 0
 1266 0028 184B     		ldr	r3, .L100+4
 1267 002a 6722     		movs	r2, #103
 1268 002c 1A70     		strb	r2, [r3]
1503:.\Generated_Source\PSoC5/UART_1.c ****                 #else
1504:.\Generated_Source\PSoC5/UART_1.c ****                     txPeriod = UART_1_TXBITCTR_PERIOD_REG;
1505:.\Generated_Source\PSoC5/UART_1.c ****                     UART_1_TXBITCTR_PERIOD_REG = UART_1_TXBITCTR_BREAKBITS8X;
1506:.\Generated_Source\PSoC5/UART_1.c ****                 #endif /* End UART_1_TXCLKGEN_DP */
1507:.\Generated_Source\PSoC5/UART_1.c **** 
1508:.\Generated_Source\PSoC5/UART_1.c ****                 /* Send zeros */
1509:.\Generated_Source\PSoC5/UART_1.c ****                 UART_1_TXDATA_REG = 0u;
 1269              		.loc 1 1509 0
 1270 002e 194B     		ldr	r3, .L100+12
 1271 0030 0022     		movs	r2, #0
 1272 0032 1A70     		strb	r2, [r3]
 1273              	.L96:
1510:.\Generated_Source\PSoC5/UART_1.c **** 
1511:.\Generated_Source\PSoC5/UART_1.c ****                 do /* Wait until transmit starts */
1512:.\Generated_Source\PSoC5/UART_1.c ****                 {
1513:.\Generated_Source\PSoC5/UART_1.c ****                     tmpStat = UART_1_TXSTATUS_REG;
 1274              		.loc 1 1513 0 discriminator 1
 1275 0034 184B     		ldr	r3, .L100+16
 1276 0036 1B78     		ldrb	r3, [r3]
 1277 0038 FB73     		strb	r3, [r7, #15]
ARM GAS  C:\Users\Charlie\AppData\Local\Temp\cc6egklb.s 			page 50


1514:.\Generated_Source\PSoC5/UART_1.c ****                 }
1515:.\Generated_Source\PSoC5/UART_1.c ****                 while((tmpStat & UART_1_TX_STS_FIFO_EMPTY) != 0u);
 1278              		.loc 1 1515 0 discriminator 1
 1279 003a FB7B     		ldrb	r3, [r7, #15]	@ zero_extendqisi2
 1280 003c 03F00203 		and	r3, r3, #2
 1281 0040 002B     		cmp	r3, #0
 1282 0042 F7D1     		bne	.L96
 1283              	.L95:
1516:.\Generated_Source\PSoC5/UART_1.c ****             }
1517:.\Generated_Source\PSoC5/UART_1.c **** 
1518:.\Generated_Source\PSoC5/UART_1.c ****             if( (retMode == UART_1_WAIT_FOR_COMPLETE_REINIT) ||
 1284              		.loc 1 1518 0
 1285 0044 FB79     		ldrb	r3, [r7, #7]	@ zero_extendqisi2
 1286 0046 012B     		cmp	r3, #1
 1287 0048 02D0     		beq	.L97
 1288              		.loc 1 1518 0 is_stmt 0 discriminator 1
 1289 004a FB79     		ldrb	r3, [r7, #7]	@ zero_extendqisi2
 1290 004c 032B     		cmp	r3, #3
 1291 004e 09D1     		bne	.L98
 1292              	.L97:
1519:.\Generated_Source\PSoC5/UART_1.c ****                 (retMode == UART_1_SEND_WAIT_REINIT) )
1520:.\Generated_Source\PSoC5/UART_1.c ****             {
1521:.\Generated_Source\PSoC5/UART_1.c ****                 do /* Wait until transmit complete */
1522:.\Generated_Source\PSoC5/UART_1.c ****                 {
1523:.\Generated_Source\PSoC5/UART_1.c ****                     tmpStat = UART_1_TXSTATUS_REG;
 1293              		.loc 1 1523 0 is_stmt 1 discriminator 1
 1294 0050 114B     		ldr	r3, .L100+16
 1295 0052 1B78     		ldrb	r3, [r3]
 1296 0054 FB73     		strb	r3, [r7, #15]
1524:.\Generated_Source\PSoC5/UART_1.c ****                 }
1525:.\Generated_Source\PSoC5/UART_1.c ****                 while(((uint8)~tmpStat & UART_1_TX_STS_COMPLETE) != 0u);
 1297              		.loc 1 1525 0 discriminator 1
 1298 0056 FB7B     		ldrb	r3, [r7, #15]
 1299 0058 DB43     		mvns	r3, r3
 1300 005a DBB2     		uxtb	r3, r3
 1301 005c 03F00103 		and	r3, r3, #1
 1302 0060 002B     		cmp	r3, #0
 1303 0062 F5D1     		bne	.L97
 1304              	.L98:
1526:.\Generated_Source\PSoC5/UART_1.c ****             }
1527:.\Generated_Source\PSoC5/UART_1.c **** 
1528:.\Generated_Source\PSoC5/UART_1.c ****             if( (retMode == UART_1_WAIT_FOR_COMPLETE_REINIT) ||
 1305              		.loc 1 1528 0
 1306 0064 FB79     		ldrb	r3, [r7, #7]	@ zero_extendqisi2
 1307 0066 012B     		cmp	r3, #1
 1308 0068 05D0     		beq	.L99
 1309              		.loc 1 1528 0 is_stmt 0 discriminator 1
 1310 006a FB79     		ldrb	r3, [r7, #7]	@ zero_extendqisi2
 1311 006c 022B     		cmp	r3, #2
 1312 006e 02D0     		beq	.L99
1529:.\Generated_Source\PSoC5/UART_1.c ****                 (retMode == UART_1_REINIT) ||
 1313              		.loc 1 1529 0 is_stmt 1
 1314 0070 FB79     		ldrb	r3, [r7, #7]	@ zero_extendqisi2
 1315 0072 032B     		cmp	r3, #3
 1316 0074 03D1     		bne	.L92
 1317              	.L99:
1530:.\Generated_Source\PSoC5/UART_1.c ****                 (retMode == UART_1_SEND_WAIT_REINIT) )
ARM GAS  C:\Users\Charlie\AppData\Local\Temp\cc6egklb.s 			page 51


1531:.\Generated_Source\PSoC5/UART_1.c ****             {
1532:.\Generated_Source\PSoC5/UART_1.c **** 
1533:.\Generated_Source\PSoC5/UART_1.c ****             #if(UART_1_TXCLKGEN_DP)
1534:.\Generated_Source\PSoC5/UART_1.c ****                 UART_1_TXBITCLKTX_COMPLETE_REG = txPeriod;
 1318              		.loc 1 1534 0
 1319 0076 054B     		ldr	r3, .L100+4
 1320 0078 054A     		ldr	r2, .L100+8
 1321 007a 1278     		ldrb	r2, [r2]	@ zero_extendqisi2
 1322 007c 1A70     		strb	r2, [r3]
 1323              	.L92:
 1324              	.LBE2:
1535:.\Generated_Source\PSoC5/UART_1.c ****             #else
1536:.\Generated_Source\PSoC5/UART_1.c ****                 UART_1_TXBITCTR_PERIOD_REG = txPeriod;
1537:.\Generated_Source\PSoC5/UART_1.c ****             #endif /* End UART_1_TXCLKGEN_DP */
1538:.\Generated_Source\PSoC5/UART_1.c **** 
1539:.\Generated_Source\PSoC5/UART_1.c ****             #if( (UART_1_PARITY_TYPE != UART_1__B_UART__NONE_REVB) || \
1540:.\Generated_Source\PSoC5/UART_1.c ****                  (UART_1_PARITY_TYPE_SW != 0u) )
1541:.\Generated_Source\PSoC5/UART_1.c ****                 UART_1_WriteControlRegister(UART_1_ReadControlRegister() &
1542:.\Generated_Source\PSoC5/UART_1.c ****                                                       (uint8) ~UART_1_CTRL_HD_SEND_BREAK);
1543:.\Generated_Source\PSoC5/UART_1.c ****             #endif /* End UART_1_PARITY_TYPE != NONE */
1544:.\Generated_Source\PSoC5/UART_1.c ****             }
1545:.\Generated_Source\PSoC5/UART_1.c ****         #endif    /* End UART_1_HD_ENABLED */
1546:.\Generated_Source\PSoC5/UART_1.c ****         }
1547:.\Generated_Source\PSoC5/UART_1.c ****     }
 1325              		.loc 1 1547 0
 1326 007e 1437     		adds	r7, r7, #20
 1327 0080 BD46     		mov	sp, r7
 1328              		@ sp needed
 1329 0082 5DF8047B 		ldr	r7, [sp], #4
 1330 0086 7047     		bx	lr
 1331              	.L101:
 1332              		.align	2
 1333              	.L100:
 1334 0088 00000000 		.word	UART_1_initVar
 1335 008c 37650040 		.word	1073767735
 1336 0090 01000000 		.word	txPeriod.4988
 1337 0094 44650040 		.word	1073767748
 1338 0098 64650040 		.word	1073767780
 1339              		.cfi_endproc
 1340              	.LFE25:
 1341              		.size	UART_1_SendBreak, .-UART_1_SendBreak
 1342              		.section	.text.UART_1_SetTxAddressMode,"ax",%progbits
 1343              		.align	2
 1344              		.global	UART_1_SetTxAddressMode
 1345              		.thumb
 1346              		.thumb_func
 1347              		.type	UART_1_SetTxAddressMode, %function
 1348              	UART_1_SetTxAddressMode:
 1349              	.LFB26:
1548:.\Generated_Source\PSoC5/UART_1.c **** 
1549:.\Generated_Source\PSoC5/UART_1.c **** 
1550:.\Generated_Source\PSoC5/UART_1.c ****     /*******************************************************************************
1551:.\Generated_Source\PSoC5/UART_1.c ****     * Function Name: UART_1_SetTxAddressMode
1552:.\Generated_Source\PSoC5/UART_1.c ****     ********************************************************************************
1553:.\Generated_Source\PSoC5/UART_1.c ****     *
1554:.\Generated_Source\PSoC5/UART_1.c ****     * Summary:
1555:.\Generated_Source\PSoC5/UART_1.c ****     *  Configures the transmitter to signal the next bytes is address or data.
ARM GAS  C:\Users\Charlie\AppData\Local\Temp\cc6egklb.s 			page 52


1556:.\Generated_Source\PSoC5/UART_1.c ****     *
1557:.\Generated_Source\PSoC5/UART_1.c ****     * Parameters:
1558:.\Generated_Source\PSoC5/UART_1.c ****     *  addressMode: 
1559:.\Generated_Source\PSoC5/UART_1.c ****     *       UART_1_SET_SPACE - Configure the transmitter to send the next
1560:.\Generated_Source\PSoC5/UART_1.c ****     *                                    byte as a data.
1561:.\Generated_Source\PSoC5/UART_1.c ****     *       UART_1_SET_MARK  - Configure the transmitter to send the next
1562:.\Generated_Source\PSoC5/UART_1.c ****     *                                    byte as an address.
1563:.\Generated_Source\PSoC5/UART_1.c ****     *
1564:.\Generated_Source\PSoC5/UART_1.c ****     * Return:
1565:.\Generated_Source\PSoC5/UART_1.c ****     *  None.
1566:.\Generated_Source\PSoC5/UART_1.c ****     *
1567:.\Generated_Source\PSoC5/UART_1.c ****     * Side Effects:
1568:.\Generated_Source\PSoC5/UART_1.c ****     *  This function sets and clears UART_1_CTRL_MARK bit in the Control
1569:.\Generated_Source\PSoC5/UART_1.c ****     *  register.
1570:.\Generated_Source\PSoC5/UART_1.c ****     *
1571:.\Generated_Source\PSoC5/UART_1.c ****     *******************************************************************************/
1572:.\Generated_Source\PSoC5/UART_1.c ****     void UART_1_SetTxAddressMode(uint8 addressMode) 
1573:.\Generated_Source\PSoC5/UART_1.c ****     {
 1350              		.loc 1 1573 0
 1351              		.cfi_startproc
 1352              		@ args = 0, pretend = 0, frame = 8
 1353              		@ frame_needed = 1, uses_anonymous_args = 0
 1354              		@ link register save eliminated.
 1355 0000 80B4     		push	{r7}
 1356              		.cfi_def_cfa_offset 4
 1357              		.cfi_offset 7, -4
 1358 0002 83B0     		sub	sp, sp, #12
 1359              		.cfi_def_cfa_offset 16
 1360 0004 00AF     		add	r7, sp, #0
 1361              		.cfi_def_cfa_register 7
 1362 0006 0346     		mov	r3, r0
 1363 0008 FB71     		strb	r3, [r7, #7]
1574:.\Generated_Source\PSoC5/UART_1.c ****         /* Mark/Space sending enable */
1575:.\Generated_Source\PSoC5/UART_1.c ****         if(addressMode != 0u)
1576:.\Generated_Source\PSoC5/UART_1.c ****         {
1577:.\Generated_Source\PSoC5/UART_1.c ****         #if( UART_1_CONTROL_REG_REMOVED == 0u )
1578:.\Generated_Source\PSoC5/UART_1.c ****             UART_1_WriteControlRegister(UART_1_ReadControlRegister() |
1579:.\Generated_Source\PSoC5/UART_1.c ****                                                   UART_1_CTRL_MARK);
1580:.\Generated_Source\PSoC5/UART_1.c ****         #endif /* End UART_1_CONTROL_REG_REMOVED == 0u */
1581:.\Generated_Source\PSoC5/UART_1.c ****         }
1582:.\Generated_Source\PSoC5/UART_1.c ****         else
1583:.\Generated_Source\PSoC5/UART_1.c ****         {
1584:.\Generated_Source\PSoC5/UART_1.c ****         #if( UART_1_CONTROL_REG_REMOVED == 0u )
1585:.\Generated_Source\PSoC5/UART_1.c ****             UART_1_WriteControlRegister(UART_1_ReadControlRegister() &
1586:.\Generated_Source\PSoC5/UART_1.c ****                                                   (uint8) ~UART_1_CTRL_MARK);
1587:.\Generated_Source\PSoC5/UART_1.c ****         #endif /* End UART_1_CONTROL_REG_REMOVED == 0u */
1588:.\Generated_Source\PSoC5/UART_1.c ****         }
1589:.\Generated_Source\PSoC5/UART_1.c ****     }
 1364              		.loc 1 1589 0
 1365 000a 0C37     		adds	r7, r7, #12
 1366 000c BD46     		mov	sp, r7
 1367              		@ sp needed
 1368 000e 5DF8047B 		ldr	r7, [sp], #4
 1369 0012 7047     		bx	lr
 1370              		.cfi_endproc
 1371              	.LFE26:
 1372              		.size	UART_1_SetTxAddressMode, .-UART_1_SetTxAddressMode
ARM GAS  C:\Users\Charlie\AppData\Local\Temp\cc6egklb.s 			page 53


 1373              		.bss
 1374              	txPeriod.4988:
 1375 0001 00       		.space	1
 1376              		.text
 1377              	.Letext0:
 1378              		.file 2 ".\\Generated_Source\\PSoC5\\cytypes.h"